

Microchip MPLAB XC8 Assembler V2.30 build 20200825195618 
                                                                                               Thu Nov 12 03:38:00 2020

Microchip MPLAB XC8 C Compiler v2.30 (Free license) build 20200825195618 Og1 
     1                           	processor	18F46K42
     2                           	fnconf	rparam,??,?,0
     3                           	pagewidth 120
     4                           	opt	flic
     5                           	psect	smallconst,global,reloc=2,class=SMALLCONST,delta=1,noexec
     6                           	psect	nvCOMRAM,global,class=COMRAM,space=1,delta=1,lowdata,noexec
     7                           	psect	cinit,global,reloc=2,class=CODE,delta=1
     8                           	psect	bssCOMRAM,global,class=COMRAM,space=1,delta=1,lowdata,noexec
     9                           	psect	cstackCOMRAM,global,class=COMRAM,space=1,delta=1,lowdata,noexec
    10                           	psect	text0,global,reloc=2,class=CODE,delta=1
    11                           	psect	text1,global,reloc=2,class=CODE,delta=1
    12                           	psect	text2,global,reloc=2,class=CODE,delta=1
    13                           	psect	text3,global,reloc=2,class=CODE,delta=1,group=1
    14                           	psect	text4,global,reloc=2,class=CODE,delta=1
    15                           	psect	text5,global,reloc=2,class=CODE,delta=1
    16                           	psect	text6,global,reloc=2,class=CODE,delta=1,group=2
    17                           	psect	text7,global,reloc=2,class=CODE,delta=1,group=2
    18                           	psect	text8,global,reloc=2,class=CODE,delta=1
    19                           	psect	text9,global,reloc=2,class=CODE,delta=1
    20                           	psect	text10,global,reloc=2,class=CODE,delta=1
    21                           	psect	text11,global,reloc=2,class=CODE,delta=1
    22                           	psect	text12,global,reloc=2,class=CODE,delta=1
    23                           	psect	text13,global,reloc=2,class=CODE,delta=1
    24                           	psect	text14,global,reloc=2,class=CODE,delta=1
    25                           	psect	text15,global,reloc=2,class=CODE,delta=1
    26                           	psect	text16,global,reloc=2,class=CODE,delta=1
    27                           	psect	text17,global,reloc=2,class=CODE,delta=1
    28                           	psect	text18,global,reloc=2,class=CODE,delta=1
    29                           	psect	text19,global,reloc=2,class=CODE,delta=1
    30                           	psect	text20,global,reloc=2,class=CODE,delta=1
    31                           	psect	text21,global,reloc=2,class=CODE,delta=1
    32                           	psect	text22,global,reloc=2,class=CODE,delta=1
    33                           	psect	intsave_regs,global,class=BIGRAM,space=1,delta=1,noexec
    34                           	psect	text23,global,reloc=2,class=CODE,delta=1
    35                           	psect	rparam,global,class=COMRAM,space=1,delta=1,noexec
    36                           	psect	idloc,global,abs,ovrld,class=IDLOC,space=5,delta=1,noexec
    37                           	psect	config,global,abs,ovrld,class=CONFIG,space=4,delta=1,noexec
    38  0000                     
    39                           ; Version 2.20
    40                           ; Generated 05/05/2020 GMT
    41                           ; 
    42                           ; Copyright © 2020, Microchip Technology Inc. and its subsidiaries ("Microchip")
    43                           ; All rights reserved.
    44                           ; 
    45                           ; This software is developed by Microchip Technology Inc. and its subsidiaries ("Microch
      +                          ip").
    46                           ; 
    47                           ; Redistribution and use in source and binary forms, with or without modification, are
    48                           ; permitted provided that the following conditions are met:
    49                           ; 
    50                           ;     1. Redistributions of source code must retain the above copyright notice, this lis
      +                          t of
    51                           ;        conditions and the following disclaimer.
    52                           ; 
    53                           ;     2. Redistributions in binary form must reproduce the above copyright notice, this 
      +                          list
    54                           ;        of conditions and the following disclaimer in the documentation and/or other
    55                           ;        materials provided with the distribution.
    56                           ; 
    57                           ;     3. Microchip's name may not be used to endorse or promote products derived from th
      +                          is
    58                           ;        software without specific prior written permission.
    59                           ; 
    60                           ; THIS SOFTWARE IS PROVIDED BY MICROCHIP "AS IS" AND ANY EXPRESS OR IMPLIED WARRANTIES,
    61                           ; INCLUDING, BUT NOT LIMITED TO, THE IMPLIED WARRANTIES OF MERCHANTABILITY AND FITNESS F
      +                          OR
    62                           ; PURPOSE ARE DISCLAIMED.  IN NO EVENT SHALL MICROCHIP BE LIABLE FOR ANY DIRECT, INDIREC
      +                          T,
    63                           ; INCIDENTAL, SPECIAL, EXEMPLARY, OR CONSEQUENTIAL DAMAGES (INCLUDING BUT NOT LIMITED TO
    64                           ; PROCUREMENT OF SUBSTITUTE GOODS OR SERVICES; LOSS OF USE, DATA OR PROFITS; OR BUSINESS
    65                           ; INTERRUPTION) HOWSOEVER CAUSED AND ON ANY THEORY OF LIABILITY, WHETHER IN CONTRACT, ST
      +                          RICT
    66                           ; LIABILITY, OR TORT (INCLUDING NEGLIGENCE OR OTHERWISE) ARISING IN ANY WAY OUT OF THE U
      +                          SE OF
    67                           ; THIS SOFTWARE, EVEN IF ADVISED OF THE POSSIBILITY OF SUCH DAMAGE.
    68                           ; 
    69                           ; 
    70                           ; Code-generator required, PIC18F46K42 Definitions
    71                           ; 
    72                           ; SFR Addresses
    73  0000                     
    74                           	psect	smallconst
    75  001000                     __psmallconst:
    76                           	callstack 0
    77  001000  00                 	db	0
    78  001001                     _dpowers:
    79                           	callstack 0
    80  001001  0001               	dw	1
    81  001003  000A               	dw	10
    82  001005  0064               	dw	100
    83  001007  03E8               	dw	1000
    84  001009  2710               	dw	10000
    85  00100B                     __end_of_dpowers:
    86                           	callstack 0
    87  00100B                     STR_1:
    88  00100B  4C                 	db	76	;'L'
    89  00100C  45                 	db	69	;'E'
    90  00100D  44                 	db	68	;'D'
    91  00100E  20                 	db	32
    92  00100F  45                 	db	69	;'E'
    93  001010  78                 	db	120	;'x'
    94  001011  63                 	db	99	;'c'
    95  001012  65                 	db	101	;'e'
    96  001013  72                 	db	114	;'r'
    97  001014  63                 	db	99	;'c'
    98  001015  69                 	db	105	;'i'
    99  001016  73                 	db	115	;'s'
   100  001017  65                 	db	101	;'e'
   101  001018  20                 	db	32
   102  001019  4D                 	db	77	;'M'
   103  00101A  65                 	db	101	;'e'
   104  00101B  6E                 	db	110	;'n'
   105  00101C  75                 	db	117	;'u'
   106  00101D  0A                 	db	10
   107  00101E  0D                 	db	13
   108  00101F  0A                 	db	10
   109  001020  0D                 	db	13
   110  001021  20                 	db	32
   111  001022  31                 	db	49	;'1'
   112  001023  2E                 	db	46
   113  001024  20                 	db	32
   114  001025  54                 	db	84	;'T'
   115  001026  75                 	db	117	;'u'
   116  001027  72                 	db	114	;'r'
   117  001028  6E                 	db	110	;'n'
   118  001029  20                 	db	32
   119  00102A  52                 	db	82	;'R'
   120  00102B  65                 	db	101	;'e'
   121  00102C  64                 	db	100	;'d'
   122  00102D  20                 	db	32
   123  00102E  4C                 	db	76	;'L'
   124  00102F  45                 	db	69	;'E'
   125  001030  44                 	db	68	;'D'
   126  001031  20                 	db	32
   127  001032  6F                 	db	111	;'o'
   128  001033  6E                 	db	110	;'n'
   129  001034  0A                 	db	10
   130  001035  0D                 	db	13
   131  001036  0A                 	db	10
   132  001037  0D                 	db	13
   133  001038  32                 	db	50	;'2'
   134  001039  2E                 	db	46
   135  00103A  20                 	db	32
   136  00103B  54                 	db	84	;'T'
   137  00103C  75                 	db	117	;'u'
   138  00103D  72                 	db	114	;'r'
   139  00103E  6E                 	db	110	;'n'
   140  00103F  20                 	db	32
   141  001040  47                 	db	71	;'G'
   142  001041  72                 	db	114	;'r'
   143  001042  65                 	db	101	;'e'
   144  001043  65                 	db	101	;'e'
   145  001044  6E                 	db	110	;'n'
   146  001045  20                 	db	32
   147  001046  4C                 	db	76	;'L'
   148  001047  45                 	db	69	;'E'
   149  001048  44                 	db	68	;'D'
   150  001049  20                 	db	32
   151  00104A  6F                 	db	111	;'o'
   152  00104B  6E                 	db	110	;'n'
   153  00104C  0A                 	db	10
   154  00104D  0D                 	db	13
   155  00104E  0A                 	db	10
   156  00104F  0D                 	db	13
   157  001050  33                 	db	51	;'3'
   158  001051  2E                 	db	46
   159  001052  20                 	db	32
   160  001053  54                 	db	84	;'T'
   161  001054  75                 	db	117	;'u'
   162  001055  72                 	db	114	;'r'
   163  001056  6E                 	db	110	;'n'
   164  001057  20                 	db	32
   165  001058  42                 	db	66	;'B'
   166  001059  69                 	db	105	;'i'
   167  00105A  63                 	db	99	;'c'
   168  00105B  6F                 	db	111	;'o'
   169  00105C  6C                 	db	108	;'l'
   170  00105D  6F                 	db	111	;'o'
   171  00105E  75                 	db	117	;'u'
   172  00105F  72                 	db	114	;'r'
   173  001060  20                 	db	32
   174  001061  61                 	db	97	;'a'
   175  001062  6D                 	db	109	;'m'
   176  001063  62                 	db	98	;'b'
   177  001064  65                 	db	101	;'e'
   178  001065  72                 	db	114	;'r'
   179  001066  0A                 	db	10
   180  001067  0D                 	db	13
   181  001068  0A                 	db	10
   182  001069  0D                 	db	13
   183  00106A  34                 	db	52	;'4'
   184  00106B  2E                 	db	46
   185  00106C  20                 	db	32
   186  00106D  54                 	db	84	;'T'
   187  00106E  75                 	db	117	;'u'
   188  00106F  72                 	db	114	;'r'
   189  001070  6E                 	db	110	;'n'
   190  001071  20                 	db	32
   191  001072  41                 	db	65	;'A'
   192  001073  6C                 	db	108	;'l'
   193  001074  6C                 	db	108	;'l'
   194  001075  20                 	db	32
   195  001076  4C                 	db	76	;'L'
   196  001077  45                 	db	69	;'E'
   197  001078  44                 	db	68	;'D'
   198  001079  73                 	db	115	;'s'
   199  00107A  20                 	db	32
   200  00107B  4F                 	db	79	;'O'
   201  00107C  66                 	db	102	;'f'
   202  00107D  66                 	db	102	;'f'
   203  00107E  0A                 	db	10
   204  00107F  0D                 	db	13
   205  001080  3E                 	db	62	;'>'
   206  001081  00                 	db	0
   207  001082                     STR_2:
   208  001082  50                 	db	80	;'P'
   209  001083  6C                 	db	108	;'l'
   210  001084  65                 	db	101	;'e'
   211  001085  61                 	db	97	;'a'
   212  001086  73                 	db	115	;'s'
   213  001087  65                 	db	101	;'e'
   214  001088  20                 	db	32
   215  001089  74                 	db	116	;'t'
   216  00108A  79                 	db	121	;'y'
   217  00108B  70                 	db	112	;'p'
   218  00108C  65                 	db	101	;'e'
   219  00108D  20                 	db	32
   220  00108E  61                 	db	97	;'a'
   221  00108F  20                 	db	32
   222  001090  6E                 	db	110	;'n'
   223  001091  75                 	db	117	;'u'
   224  001092  6D                 	db	109	;'m'
   225  001093  62                 	db	98	;'b'
   226  001094  65                 	db	101	;'e'
   227  001095  72                 	db	114	;'r'
   228  001096  20                 	db	32
   229  001097  62                 	db	98	;'b'
   230  001098  65                 	db	101	;'e'
   231  001099  74                 	db	116	;'t'
   232  00109A  77                 	db	119	;'w'
   233  00109B  65                 	db	101	;'e'
   234  00109C  65                 	db	101	;'e'
   235  00109D  6E                 	db	110	;'n'
   236  00109E  20                 	db	32
   237  00109F  31                 	db	49	;'1'
   238  0010A0  20                 	db	32
   239  0010A1  61                 	db	97	;'a'
   240  0010A2  6E                 	db	110	;'n'
   241  0010A3  64                 	db	100	;'d'
   242  0010A4  20                 	db	32
   243  0010A5  35                 	db	53	;'5'
   244  0010A6  20                 	db	32
   245  0010A7  6F                 	db	111	;'o'
   246  0010A8  6E                 	db	110	;'n'
   247  0010A9  6C                 	db	108	;'l'
   248  0010AA  79                 	db	121	;'y'
   249  0010AB  2E                 	db	46
   250  0010AC  0A                 	db	10
   251  0010AD  0D                 	db	13
   252  0010AE  00                 	db	0
   253  0010AF                     STR_3:
   254  0010AF  20                 	db	32
   255  0010B0  43                 	db	67	;'C'
   256  0010B1  6F                 	db	111	;'o'
   257  0010B2  75                 	db	117	;'u'
   258  0010B3  6E                 	db	110	;'n'
   259  0010B4  74                 	db	116	;'t'
   260  0010B5  20                 	db	32
   261  0010B6  3D                 	db	61	;'='
   262  0010B7  20                 	db	32
   263  0010B8  25                 	db	37
   264  0010B9  75                 	db	117	;'u'
   265  0010BA  20                 	db	32
   266  0010BB  0A                 	db	10
   267  0010BC  0D                 	db	13
   268  0010BD  00                 	db	0
   269  0010BE                     STR_4:
   270  0010BE  25                 	db	37
   271  0010BF  63                 	db	99	;'c'
   272  0010C0  25                 	db	37
   273  0010C1  63                 	db	99	;'c'
   274  0010C2  25                 	db	37
   275  0010C3  63                 	db	99	;'c'
   276  0010C4  25                 	db	37
   277  0010C5  63                 	db	99	;'c'
   278  0010C6  00                 	db	0
   279  0010C7  00                 	db	0	; dummy byte at the end
   280  0000                     
   281                           	psect	nvCOMRAM
   282  000026                     __pnvCOMRAM:
   283                           	callstack 0
   284  000026                     _UART2_ErrorHandler:
   285                           	callstack 0
   286  000026                     	ds	2
   287  000028                     _UART2_OverrunErrorHandler:
   288                           	callstack 0
   289  000028                     	ds	2
   290  00002A                     _UART2_FramingErrorHandler:
   291                           	callstack 0
   292  00002A                     	ds	2
   293  0000                     _PIR3bits	set	14755
   294  0000                     _PMD7	set	14791
   295  0000                     _PMD6	set	14790
   296  0000                     _PMD5	set	14789
   297  0000                     _PMD4	set	14788
   298  0000                     _PMD3	set	14787
   299  0000                     _PMD2	set	14786
   300  0000                     _PMD1	set	14785
   301  0000                     _PMD0	set	14784
   302  0000                     _OSCTUNE	set	14814
   303  0000                     _OSCFRQ	set	14815
   304  0000                     _OSCEN	set	14813
   305  0000                     _OSCCON3	set	14811
   306  0000                     _OSCCON1	set	14809
   307  0000                     _PIR6bits	set	14758
   308  0000                     _RB6PPS	set	14862
   309  0000                     _U2RXPPS	set	15080
   310  0000                     _INLVLE	set	14980
   311  0000                     _INLVLD	set	14964
   312  0000                     _INLVLC	set	14948
   313  0000                     _INLVLB	set	14932
   314  0000                     _INLVLA	set	14916
   315  0000                     _SLRCONE	set	14979
   316  0000                     _SLRCOND	set	14963
   317  0000                     _SLRCONC	set	14947
   318  0000                     _SLRCONB	set	14931
   319  0000                     _SLRCONA	set	14915
   320  0000                     _ODCOND	set	14962
   321  0000                     _ODCONC	set	14946
   322  0000                     _ODCONB	set	14930
   323  0000                     _ODCONA	set	14914
   324  0000                     _ODCONE	set	14978
   325  0000                     _RD1I2C	set	14971
   326  0000                     _RD0I2C	set	14970
   327  0000                     _RC4I2C	set	14955
   328  0000                     _RC3I2C	set	14954
   329  0000                     _RB2I2C	set	14939
   330  0000                     _RB1I2C	set	14938
   331  0000                     _WPUC	set	14945
   332  0000                     _WPUA	set	14913
   333  0000                     _WPUB	set	14929
   334  0000                     _WPUE	set	14977
   335  0000                     _WPUD	set	14961
   336  0000                     _ANSELA	set	14912
   337  0000                     _ANSELE	set	14976
   338  0000                     _ANSELB	set	14928
   339  0000                     _ANSELC	set	14944
   340  0000                     _ANSELD	set	14960
   341  0000                     _U2TXB	set	15826
   342  0000                     _U2RXB	set	15824
   343  0000                     _U2ERRIRbits	set	15841
   344  0000                     _U2CON0bits	set	15834
   345  0000                     _U2ERRIE	set	15842
   346  0000                     _U2ERRIR	set	15841
   347  0000                     _U2UIR	set	15840
   348  0000                     _U2FIFO	set	15839
   349  0000                     _U2BRGH	set	15838
   350  0000                     _U2BRGL	set	15837
   351  0000                     _U2CON2	set	15836
   352  0000                     _U2CON1	set	15835
   353  0000                     _U2CON0	set	15834
   354  0000                     _U2P3L	set	15832
   355  0000                     _U2P2L	set	15830
   356  0000                     _U2P1L	set	15828
   357  0000                     _LATDbits	set	16317
   358  0000                     _PORTAbits	set	16330
   359  0000                     _TRISD	set	16325
   360  0000                     _TRISC	set	16324
   361  0000                     _TRISB	set	16323
   362  0000                     _TRISA	set	16322
   363  0000                     _TRISE	set	16326
   364  0000                     _LATC	set	16316
   365  0000                     _LATB	set	16315
   366  0000                     _LATA	set	16314
   367  0000                     _LATD	set	16317
   368  0000                     _LATE	set	16318
   369  0000                     _T0CON0bits	set	16312
   370  0000                     _T0CON0	set	16312
   371  0000                     _TMR0L	set	16310
   372  0000                     _TMR0H	set	16311
   373  0000                     _T0CON1	set	16313
   374                           
   375                           ; #config settings
   376                           
   377                           	psect	cinit
   378  00189C                     __pcinit:
   379                           	callstack 0
   380  00189C                     start_initialization:
   381                           	callstack 0
   382  00189C                     __initialization:
   383                           	callstack 0
   384                           
   385                           ; Clear objects allocated to COMRAM (3 bytes)
   386  00189C  6A2E               	clrf	(__pbssCOMRAM+2)& (0+255),c
   387  00189E  6A2D               	clrf	(__pbssCOMRAM+1)& (0+255),c
   388  0018A0  6A2C               	clrf	__pbssCOMRAM& (0+255),c
   389  0018A2                     end_of_initialization:
   390                           	callstack 0
   391  0018A2                     __end_of__initialization:
   392                           	callstack 0
   393  0018A2  0100               	movlb	0
   394  0018A4  EF64  F008         	goto	_main	;jump to C main() function
   395                           
   396                           	psect	bssCOMRAM
   397  00002C                     __pbssCOMRAM:
   398                           	callstack 0
   399  00002C                     _last_switch1_value:
   400                           	callstack 0
   401  00002C                     	ds	2
   402  00002E                     _uart2RxLastError:
   403                           	callstack 0
   404  00002E                     	ds	1
   405                           
   406                           	psect	cstackCOMRAM
   407  000001                     __pcstackCOMRAM:
   408                           	callstack 0
   409  000001                     ?_poll_switch1_for_edges:
   410                           	callstack 0
   411  000001                     ?___lwdiv:
   412                           	callstack 0
   413  000001                     UART2_Write@txData:
   414                           	callstack 0
   415  000001                     UART2_SetFramingErrorHandler@interruptHandler:
   416                           	callstack 0
   417  000001                     UART2_SetOverrunErrorHandler@interruptHandler:
   418                           	callstack 0
   419  000001                     UART2_SetErrorHandler@interruptHandler:
   420                           	callstack 0
   421  000001                     DELAY_milliseconds@milliseconds:
   422                           	callstack 0
   423  000001                     poll_switch1_for_edges@digitalinputpin:
   424                           	callstack 0
   425  000001                     ___lwdiv@dividend:
   426                           	callstack 0
   427                           
   428                           ; 2 bytes @ 0x0
   429  000001                     	ds	1
   430  000002                     putch@txData:
   431                           	callstack 0
   432                           
   433                           ; 1 bytes @ 0x1
   434  000002                     	ds	1
   435  000003                     ??_DELAY_milliseconds:
   436  000003                     poll_switch1_for_edges@has_switch1_changed:
   437                           	callstack 0
   438  000003                     ___lwdiv@divisor:
   439                           	callstack 0
   440                           
   441                           ; 2 bytes @ 0x2
   442  000003                     	ds	2
   443  000005                     ___lwdiv@quotient:
   444                           	callstack 0
   445                           
   446                           ; 2 bytes @ 0x4
   447  000005                     	ds	2
   448  000007                     ___lwdiv@counter:
   449                           	callstack 0
   450                           
   451                           ; 1 bytes @ 0x6
   452  000007                     	ds	1
   453  000008                     ?___lwmod:
   454                           	callstack 0
   455  000008                     ___lwmod@dividend:
   456                           	callstack 0
   457                           
   458                           ; 2 bytes @ 0x7
   459  000008                     	ds	2
   460  00000A                     ___lwmod@divisor:
   461                           	callstack 0
   462                           
   463                           ; 2 bytes @ 0x9
   464  00000A                     	ds	2
   465  00000C                     ___lwmod@counter:
   466                           	callstack 0
   467                           
   468                           ; 1 bytes @ 0xB
   469  00000C                     	ds	1
   470  00000D                     ?_printf:
   471                           	callstack 0
   472  00000D                     printf@f:
   473                           	callstack 0
   474                           
   475                           ; 2 bytes @ 0xC
   476  00000D                     	ds	10
   477  000017                     printf@flag:
   478                           	callstack 0
   479                           
   480                           ; 1 bytes @ 0x16
   481  000017                     	ds	1
   482  000018                     printf@val:
   483                           	callstack 0
   484                           
   485                           ; 2 bytes @ 0x17
   486  000018                     	ds	2
   487  00001A                     printf@prec:
   488                           	callstack 0
   489                           
   490                           ; 1 bytes @ 0x19
   491  00001A                     	ds	1
   492  00001B                     printf@ap:
   493                           	callstack 0
   494                           
   495                           ; 2 bytes @ 0x1A
   496  00001B                     	ds	2
   497  00001D                     printf@c:
   498                           	callstack 0
   499                           
   500                           ; 1 bytes @ 0x1C
   501  00001D                     	ds	1
   502  00001E                     ??_main:
   503                           
   504                           ; 1 bytes @ 0x1D
   505  00001E                     	ds	2
   506  000020                     main@i:
   507                           	callstack 0
   508                           
   509                           ; 2 bytes @ 0x1F
   510  000020                     	ds	2
   511  000022                     main@has_switch1_changed:
   512                           	callstack 0
   513                           
   514                           ; 2 bytes @ 0x21
   515  000022                     	ds	2
   516  000024                     main@digit:
   517                           	callstack 0
   518                           
   519                           ; 2 bytes @ 0x23
   520  000024                     	ds	2
   521                           
   522 ;;
   523 ;;Main: autosize = 0, tempsize = 2, incstack = 0, save=0
   524 ;;
   525 ;; *************** function _main *****************
   526 ;; Defined at:
   527 ;;		line 14 in file "main.c"
   528 ;; Parameters:    Size  Location     Type
   529 ;;		None
   530 ;; Auto vars:     Size  Location     Type
   531 ;;  input          10    0        unsigned char [10]
   532 ;;  digit           2   35[COMRAM] int 
   533 ;;  has_switch1_    2   33[COMRAM] int 
   534 ;;  i               2   31[COMRAM] int 
   535 ;; Return value:  Size  Location     Type
   536 ;;                  1    wreg      void 
   537 ;; Registers used:
   538 ;;		wreg, fsr2l, fsr2h, status,2, status,0, pclath, tosl, tblptrl, tblptrh, tblptru, prodl, prodh, cstack
   539 ;; Tracked objects:
   540 ;;		On entry : 0/0
   541 ;;		On exit  : 0/0
   542 ;;		Unchanged: 0/0
   543 ;; Data sizes:     COMRAM   BANK0   BANK1   BANK2   BANK3   BANK4   BANK5   BANK6   BANK7   BANK8   BANK9  BANK10  BANK1
      +1  BANK12  BANK13  BANK14  BANK15
   544 ;;      Params:         0       0       0       0       0       0       0       0       0       0       0       0       
      +0       0       0       0       0
   545 ;;      Locals:         6       0       0       0       0       0       0       0       0       0       0       0       
      +0       0       0       0       0
   546 ;;      Temps:          2       0       0       0       0       0       0       0       0       0       0       0       
      +0       0       0       0       0
   547 ;;      Totals:         8       0       0       0       0       0       0       0       0       0       0       0       
      +0       0       0       0       0
   548 ;;Total ram usage:        8 bytes
   549 ;; Hardware stack levels required when called:    4
   550 ;; This function calls:
   551 ;;		_DELAY_milliseconds
   552 ;;		_SYSTEM_Initialize
   553 ;;		_UART2_Read
   554 ;;		_UART2_is_rx_ready
   555 ;;		_clearPuTTY
   556 ;;		_poll_switch1_for_edges
   557 ;;		_printf
   558 ;; This function is called by:
   559 ;;		Startup code after reset
   560 ;; This function uses a non-reentrant model
   561 ;;
   562                           
   563                           	psect	text0
   564  0010C8                     __ptext0:
   565                           	callstack 0
   566  0010C8                     _main:
   567                           	callstack 27
   568  0010C8                     
   569                           ;main.c: 17: SYSTEM_Initialize();
   570  0010C8  EC39  F00C         	call	_SYSTEM_Initialize	;wreg free
   571  0010CC                     
   572                           ;main.c: 18: int i;;main.c: 19: char input[10];;main.c: 20: int digit=0,has_switch1_chan
      +                          ged;
   573  0010CC  0E00               	movlw	0
   574  0010CE  6E25               	movwf	(main@digit+1)^0,c
   575  0010D0  0E00               	movlw	0
   576  0010D2  6E24               	movwf	main@digit^0,c
   577  0010D4                     
   578                           ;main.c: 21: clearPuTTY();
   579  0010D4  ECD6  F00A         	call	_clearPuTTY	;wreg free
   580  0010D8                     
   581                           ;main.c: 22: printf("LED Excercise Menu\n\r\n\r 1. Turn Red LED on\n\r\n\r2. Turn Green 
      +                          LED on\n\r\n\r3. Turn Bicolour amber\n\r\n\r4. Turn All LEDs Off\n\r>");
   582  0010D8  0E0B               	movlw	low STR_1
   583  0010DA  6E0D               	movwf	printf@f^0,c
   584  0010DC  0E10               	movlw	high STR_1
   585  0010DE  6E0E               	movwf	(printf@f+1)^0,c
   586  0010E0  EC73  F009         	call	_printf	;wreg free
   587  0010E4                     l1673:
   588                           
   589                           ;main.c: 25: {;main.c: 26: if((UART2_is_rx_ready()))
   590  0010E4  EC2E  F00C         	call	_UART2_is_rx_ready	;wreg free
   591  0010E8  0900               	iorlw	0
   592  0010EA  B4D8               	btfsc	status,2,c
   593  0010EC  EF7A  F008         	goto	u641
   594  0010F0  EF7C  F008         	goto	u640
   595  0010F4                     u641:
   596  0010F4  EFA9  F008         	goto	l1685
   597  0010F8                     u640:
   598  0010F8                     
   599                           ;main.c: 27: {;main.c: 28: i = UART2_Read();
   600  0010F8  EC8B  F00A         	call	_UART2_Read	;wreg free
   601  0010FC  6E1E               	movwf	??_main^0,c
   602  0010FE  501E               	movf	??_main^0,w,c
   603  001100  6E20               	movwf	main@i^0,c
   604  001102  6A21               	clrf	(main@i+1)^0,c
   605  001104                     
   606                           ;main.c: 29: digit=i-48;
   607  001104  0ED0               	movlw	208
   608  001106  2420               	addwf	main@i^0,w,c
   609  001108  6E24               	movwf	main@digit^0,c
   610  00110A  0EFF               	movlw	255
   611  00110C  2021               	addwfc	(main@i+1)^0,w,c
   612  00110E  6E25               	movwf	(main@digit+1)^0,c
   613  001110                     
   614                           ;main.c: 30: if(digit<1 || digit>=5)
   615  001110  BE25               	btfsc	(main@digit+1)^0,7,c
   616  001112  EF93  F008         	goto	u651
   617  001116  5025               	movf	(main@digit+1)^0,w,c
   618  001118  E108               	bnz	u650
   619  00111A  0424               	decf	main@digit^0,w,c
   620  00111C  A0D8               	btfss	status,0,c
   621  00111E  EF93  F008         	goto	u651
   622  001122  EF95  F008         	goto	u650
   623  001126                     u651:
   624  001126  EFA3  F008         	goto	l1683
   625  00112A                     u650:
   626  00112A  BE25               	btfsc	(main@digit+1)^0,7,c
   627  00112C  EFA1  F008         	goto	u661
   628  001130  5025               	movf	(main@digit+1)^0,w,c
   629  001132  E109               	bnz	u660
   630  001134  0E05               	movlw	5
   631  001136  5C24               	subwf	main@digit^0,w,c
   632  001138  A0D8               	btfss	status,0,c
   633  00113A  EFA1  F008         	goto	u661
   634  00113E  EFA3  F008         	goto	u660
   635  001142                     u661:
   636  001142  EFA9  F008         	goto	l1685
   637  001146                     u660:
   638  001146                     l1683:
   639                           
   640                           ;main.c: 31: {;main.c: 32: printf("Please type a number between 1 and 5 only.\n\r");
   641  001146  0E82               	movlw	low STR_2
   642  001148  6E0D               	movwf	printf@f^0,c
   643  00114A  0E10               	movlw	high STR_2
   644  00114C  6E0E               	movwf	(printf@f+1)^0,c
   645  00114E  EC73  F009         	call	_printf	;wreg free
   646  001152                     l1685:
   647                           
   648                           ;main.c: 33: };main.c: 34: };main.c: 36: has_switch1_changed = poll_switch1_for_edges(PO
      +                          RTAbits.RA4);
   649  001152  B8CA               	btfsc	202,4,c	;volatile
   650  001154  EFAE  F008         	goto	u671
   651  001158  EFB2  F008         	goto	u670
   652  00115C                     u671:
   653  00115C  6A1E               	clrf	??_main^0,c
   654  00115E  2A1E               	incf	??_main^0,f,c
   655  001160  EFB3  F008         	goto	u678
   656  001164                     u670:
   657  001164  6A1E               	clrf	??_main^0,c
   658  001166                     u678:
   659  001166  501E               	movf	??_main^0,w,c
   660  001168  6E01               	movwf	poll_switch1_for_edges@digitalinputpin^0,c
   661  00116A  6A02               	clrf	(poll_switch1_for_edges@digitalinputpin+1)^0,c
   662  00116C  EC15  F00B         	call	_poll_switch1_for_edges	;wreg free
   663  001170  C001  F022         	movff	?_poll_switch1_for_edges,main@has_switch1_changed
   664  001174  C002  F023         	movff	?_poll_switch1_for_edges+1,main@has_switch1_changed+1
   665  001178                     
   666                           ;main.c: 37: if(has_switch1_changed==1){
   667  001178  0422               	decf	main@has_switch1_changed^0,w,c
   668  00117A  1023               	iorwf	(main@has_switch1_changed+1)^0,w,c
   669  00117C  A4D8               	btfss	status,2,c
   670  00117E  EFC3  F008         	goto	u681
   671  001182  EFC5  F008         	goto	u680
   672  001186                     u681:
   673  001186  EF53  F009         	goto	l1709
   674  00118A                     u680:
   675  00118A                     
   676                           ;main.c: 38: digit++;
   677  00118A  4A24               	infsnz	main@digit^0,f,c
   678  00118C  2A25               	incf	(main@digit+1)^0,f,c
   679  00118E                     
   680                           ;main.c: 40: if(digit>4)
   681  00118E  BE25               	btfsc	(main@digit+1)^0,7,c
   682  001190  EFD3  F008         	goto	u691
   683  001194  5025               	movf	(main@digit+1)^0,w,c
   684  001196  E109               	bnz	u690
   685  001198  0E05               	movlw	5
   686  00119A  5C24               	subwf	main@digit^0,w,c
   687  00119C  A0D8               	btfss	status,0,c
   688  00119E  EFD3  F008         	goto	u691
   689  0011A2  EFD5  F008         	goto	u690
   690  0011A6                     u691:
   691  0011A6  EFD9  F008         	goto	l1695
   692  0011AA                     u690:
   693  0011AA                     
   694                           ;main.c: 41: {;main.c: 42: digit=1;
   695  0011AA  0E00               	movlw	0
   696  0011AC  6E25               	movwf	(main@digit+1)^0,c
   697  0011AE  0E01               	movlw	1
   698  0011B0  6E24               	movwf	main@digit^0,c
   699  0011B2                     l1695:
   700                           
   701                           ;main.c: 43: };main.c: 44: printf(" Count = %u \n\r", digit);
   702  0011B2  0EAF               	movlw	low STR_3
   703  0011B4  6E0D               	movwf	printf@f^0,c
   704  0011B6  0E10               	movlw	high STR_3
   705  0011B8  6E0E               	movwf	(printf@f+1)^0,c
   706  0011BA  C024  F00F         	movff	main@digit,?_printf+2
   707  0011BE  C025  F010         	movff	main@digit+1,?_printf+3
   708  0011C2  EC73  F009         	call	_printf	;wreg free
   709  0011C6  EF53  F009         	goto	l1709
   710  0011CA                     l329:
   711  0011CA  80BD               	bsf	189,0,c	;volatile
   712  0011CC  92BD               	bcf	189,1,c	;volatile
   713  0011CE  94BD               	bcf	189,2,c	;volatile
   714  0011D0  96BD               	bcf	189,3,c	;volatile
   715  0011D2  EF72  F008         	goto	l1673
   716  0011D6                     l339:
   717  0011D6  82BD               	bsf	189,1,c	;volatile
   718  0011D8  90BD               	bcf	189,0,c	;volatile
   719  0011DA  94BD               	bcf	189,2,c	;volatile
   720  0011DC  96BD               	bcf	189,3,c	;volatile
   721  0011DE  EF72  F008         	goto	l1673
   722  0011E2                     l348:
   723  0011E2  90BD               	bcf	189,0,c	;volatile
   724  0011E4  92BD               	bcf	189,1,c	;volatile
   725  0011E6  94BD               	bcf	189,2,c	;volatile
   726  0011E8  86BD               	bsf	189,3,c	;volatile
   727  0011EA  B4BD               	btfsc	189,2,c	;volatile
   728  0011EC  EFFA  F008         	goto	u701
   729  0011F0  EFFD  F008         	goto	u700
   730  0011F4                     u701:
   731  0011F4  0E01               	movlw	1
   732  0011F6  EFFE  F008         	goto	u706
   733  0011FA                     u700:
   734  0011FA  0E00               	movlw	0
   735  0011FC                     u706:
   736  0011FC  0AFF               	xorlw	255
   737  0011FE  6E1E               	movwf	??_main^0,c
   738  001200  461E               	rlncf	??_main^0,f,c
   739  001202  461E               	rlncf	??_main^0,f,c
   740  001204  50BD               	movf	189,w,c	;volatile
   741  001206  181E               	xorwf	??_main^0,w,c
   742  001208  0BFB               	andlw	-5
   743  00120A  181E               	xorwf	??_main^0,w,c
   744  00120C  6EBD               	movwf	189,c	;volatile
   745  00120E  B6BD               	btfsc	189,3,c	;volatile
   746  001210  EF0C  F009         	goto	u711
   747  001214  EF0F  F009         	goto	u710
   748  001218                     u711:
   749  001218  0E01               	movlw	1
   750  00121A  EF10  F009         	goto	u716
   751  00121E                     u710:
   752  00121E  0E00               	movlw	0
   753  001220                     u716:
   754  001220  0AFF               	xorlw	255
   755  001222  6E1E               	movwf	??_main^0,c
   756  001224  461E               	rlncf	??_main^0,f,c
   757  001226  461E               	rlncf	??_main^0,f,c
   758  001228  461E               	rlncf	??_main^0,f,c
   759  00122A  50BD               	movf	189,w,c	;volatile
   760  00122C  181E               	xorwf	??_main^0,w,c
   761  00122E  0BF7               	andlw	-9
   762  001230  181E               	xorwf	??_main^0,w,c
   763  001232  6EBD               	movwf	189,c	;volatile
   764  001234                     
   765                           ;main.c: 66: DELAY_milliseconds(5);
   766  001234  0E00               	movlw	0
   767  001236  6E02               	movwf	(DELAY_milliseconds@milliseconds+1)^0,c
   768  001238  0E05               	movlw	5
   769  00123A  6E01               	movwf	DELAY_milliseconds@milliseconds^0,c
   770  00123C  ECEC  F00B         	call	_DELAY_milliseconds	;wreg free
   771  001240  B4BD               	btfsc	189,2,c	;volatile
   772  001242  EF25  F009         	goto	u721
   773  001246  EF28  F009         	goto	u720
   774  00124A                     u721:
   775  00124A  0E01               	movlw	1
   776  00124C  EF29  F009         	goto	u726
   777  001250                     u720:
   778  001250  0E00               	movlw	0
   779  001252                     u726:
   780  001252  0AFF               	xorlw	255
   781  001254  6E1E               	movwf	??_main^0,c
   782  001256  461E               	rlncf	??_main^0,f,c
   783  001258  461E               	rlncf	??_main^0,f,c
   784  00125A  50BD               	movf	189,w,c	;volatile
   785  00125C  181E               	xorwf	??_main^0,w,c
   786  00125E  0BFB               	andlw	-5
   787  001260  181E               	xorwf	??_main^0,w,c
   788  001262  6EBD               	movwf	189,c	;volatile
   789  001264  B6BD               	btfsc	189,3,c	;volatile
   790  001266  EF37  F009         	goto	u731
   791  00126A  EF3A  F009         	goto	u730
   792  00126E                     u731:
   793  00126E  0E01               	movlw	1
   794  001270  EF3B  F009         	goto	u736
   795  001274                     u730:
   796  001274  0E00               	movlw	0
   797  001276                     u736:
   798  001276  0AFF               	xorlw	255
   799  001278  6E1E               	movwf	??_main^0,c
   800  00127A  461E               	rlncf	??_main^0,f,c
   801  00127C  461E               	rlncf	??_main^0,f,c
   802  00127E  461E               	rlncf	??_main^0,f,c
   803  001280  50BD               	movf	189,w,c	;volatile
   804  001282  181E               	xorwf	??_main^0,w,c
   805  001284  0BF7               	andlw	-9
   806  001286  181E               	xorwf	??_main^0,w,c
   807  001288  6EBD               	movwf	189,c	;volatile
   808  00128A                     
   809                           ;main.c: 69: DELAY_milliseconds(25);
   810  00128A  0E00               	movlw	0
   811  00128C  6E02               	movwf	(DELAY_milliseconds@milliseconds+1)^0,c
   812  00128E  0E19               	movlw	25
   813  001290  6E01               	movwf	DELAY_milliseconds@milliseconds^0,c
   814  001292  ECEC  F00B         	call	_DELAY_milliseconds	;wreg free
   815                           
   816                           ;main.c: 70: break;
   817  001296  EF72  F008         	goto	l1673
   818  00129A                     l365:
   819  00129A  90BD               	bcf	189,0,c	;volatile
   820  00129C  92BD               	bcf	189,1,c	;volatile
   821  00129E  94BD               	bcf	189,2,c	;volatile
   822  0012A0  96BD               	bcf	189,3,c	;volatile
   823  0012A2  EF72  F008         	goto	l1673
   824  0012A6                     l1709:
   825  0012A6  C024  F01E         	movff	main@digit,??_main
   826  0012AA  C025  F01F         	movff	main@digit+1,??_main+1
   827                           
   828                           ; Switch on 2 bytes has been partitioned into a top level switch of size 1, and 1 sub-sw
      +                          itches
   829                           ; Switch size 1, requested type "simple"
   830                           ; Number of cases is 1, Range of values is 0 to 0
   831                           ; switch strategies available:
   832                           ; Name         Instructions Cycles
   833                           ; simple_byte            4     3 (average)
   834                           ;	Chosen strategy is simple_byte
   835  0012AE  501F               	movf	(??_main+1)^0,w,c
   836  0012B0  0A00               	xorlw	0	; case 0
   837  0012B2  B4D8               	btfsc	status,2,c
   838  0012B4  EF5E  F009         	goto	l1735
   839  0012B8  EF72  F008         	goto	l1673
   840  0012BC                     l1735:
   841                           
   842                           ; Switch size 1, requested type "simple"
   843                           ; Number of cases is 4, Range of values is 1 to 4
   844                           ; switch strategies available:
   845                           ; Name         Instructions Cycles
   846                           ; simple_byte           13     7 (average)
   847                           ;	Chosen strategy is simple_byte
   848  0012BC  501E               	movf	??_main^0,w,c
   849  0012BE  0A01               	xorlw	1	; case 1
   850  0012C0  B4D8               	btfsc	status,2,c
   851  0012C2  EFE5  F008         	goto	l329
   852  0012C6  0A03               	xorlw	3	; case 2
   853  0012C8  B4D8               	btfsc	status,2,c
   854  0012CA  EFEB  F008         	goto	l339
   855  0012CE  0A01               	xorlw	1	; case 3
   856  0012D0  B4D8               	btfsc	status,2,c
   857  0012D2  EFF1  F008         	goto	l348
   858  0012D6  0A07               	xorlw	7	; case 4
   859  0012D8  B4D8               	btfsc	status,2,c
   860  0012DA  EF4D  F009         	goto	l365
   861  0012DE  EF72  F008         	goto	l1673
   862  0012E2  EFFE  F07F         	goto	start
   863  0012E6                     __end_of_main:
   864                           	callstack 0
   865                           
   866 ;; *************** function _poll_switch1_for_edges *****************
   867 ;; Defined at:
   868 ;;		line 22 in file "../exercise10.X/buttons.c"
   869 ;; Parameters:    Size  Location     Type
   870 ;;  digitalinput    2    0[COMRAM] unsigned int 
   871 ;; Auto vars:     Size  Location     Type
   872 ;;  has_switch1_    2    2[COMRAM] unsigned int 
   873 ;; Return value:  Size  Location     Type
   874 ;;                  2    0[COMRAM] unsigned int 
   875 ;; Registers used:
   876 ;;		wreg, status,2, status,0
   877 ;; Tracked objects:
   878 ;;		On entry : 0/0
   879 ;;		On exit  : 0/0
   880 ;;		Unchanged: 0/0
   881 ;; Data sizes:     COMRAM   BANK0   BANK1   BANK2   BANK3   BANK4   BANK5   BANK6   BANK7   BANK8   BANK9  BANK10  BANK1
      +1  BANK12  BANK13  BANK14  BANK15
   882 ;;      Params:         2       0       0       0       0       0       0       0       0       0       0       0       
      +0       0       0       0       0
   883 ;;      Locals:         2       0       0       0       0       0       0       0       0       0       0       0       
      +0       0       0       0       0
   884 ;;      Temps:          0       0       0       0       0       0       0       0       0       0       0       0       
      +0       0       0       0       0
   885 ;;      Totals:         4       0       0       0       0       0       0       0       0       0       0       0       
      +0       0       0       0       0
   886 ;;Total ram usage:        4 bytes
   887 ;; Hardware stack levels used:    1
   888 ;; This function calls:
   889 ;;		Nothing
   890 ;; This function is called by:
   891 ;;		_main
   892 ;; This function uses a non-reentrant model
   893 ;;
   894                           
   895                           	psect	text1
   896  00162A                     __ptext1:
   897                           	callstack 0
   898  00162A                     _poll_switch1_for_edges:
   899                           	callstack 30
   900  00162A                     
   901                           ;buttons.c: 25: unsigned int has_switch1_changed = 0;
   902  00162A  0E00               	movlw	0
   903  00162C  6E04               	movwf	(poll_switch1_for_edges@has_switch1_changed+1)^0,c
   904  00162E  0E00               	movlw	0
   905  001630  6E03               	movwf	poll_switch1_for_edges@has_switch1_changed^0,c
   906  001632                     
   907                           ;buttons.c: 27: if (last_switch1_value == 0 && digitalinputpin >> 0)
   908  001632  502C               	movf	_last_switch1_value^0,w,c
   909  001634  102D               	iorwf	(_last_switch1_value+1)^0,w,c
   910  001636  A4D8               	btfss	status,2,c
   911  001638  EF20  F00B         	goto	u601
   912  00163C  EF22  F00B         	goto	u600
   913  001640                     u601:
   914  001640  EF33  F00B         	goto	l1655
   915  001644                     u600:
   916  001644  5001               	movf	poll_switch1_for_edges@digitalinputpin^0,w,c
   917  001646  1002               	iorwf	(poll_switch1_for_edges@digitalinputpin+1)^0,w,c
   918  001648  B4D8               	btfsc	status,2,c
   919  00164A  EF29  F00B         	goto	u611
   920  00164E  EF2B  F00B         	goto	u610
   921  001652                     u611:
   922  001652  EF33  F00B         	goto	l1655
   923  001656                     u610:
   924  001656                     
   925                           ;buttons.c: 28: {;buttons.c: 29: last_switch1_value = 1;
   926  001656  0E00               	movlw	0
   927  001658  6E2D               	movwf	(_last_switch1_value+1)^0,c
   928  00165A  0E01               	movlw	1
   929  00165C  6E2C               	movwf	_last_switch1_value^0,c
   930                           
   931                           ;buttons.c: 30: has_switch1_changed = 1;
   932  00165E  0E00               	movlw	0
   933  001660  6E04               	movwf	(poll_switch1_for_edges@has_switch1_changed+1)^0,c
   934  001662  0E01               	movlw	1
   935  001664  6E03               	movwf	poll_switch1_for_edges@has_switch1_changed^0,c
   936  001666                     l1655:
   937                           
   938                           ;buttons.c: 31: };buttons.c: 32: if (last_switch1_value == 1 && digitalinputpin == 0)
   939  001666  042C               	decf	_last_switch1_value^0,w,c
   940  001668  102D               	iorwf	(_last_switch1_value+1)^0,w,c
   941  00166A  A4D8               	btfss	status,2,c
   942  00166C  EF3A  F00B         	goto	u621
   943  001670  EF3C  F00B         	goto	u620
   944  001674                     u621:
   945  001674  EF4D  F00B         	goto	l1661
   946  001678                     u620:
   947  001678  5001               	movf	poll_switch1_for_edges@digitalinputpin^0,w,c
   948  00167A  1002               	iorwf	(poll_switch1_for_edges@digitalinputpin+1)^0,w,c
   949  00167C  A4D8               	btfss	status,2,c
   950  00167E  EF43  F00B         	goto	u631
   951  001682  EF45  F00B         	goto	u630
   952  001686                     u631:
   953  001686  EF4D  F00B         	goto	l1661
   954  00168A                     u630:
   955  00168A                     
   956                           ;buttons.c: 33: {;buttons.c: 34: last_switch1_value = 0;
   957  00168A  0E00               	movlw	0
   958  00168C  6E2D               	movwf	(_last_switch1_value+1)^0,c
   959  00168E  0E00               	movlw	0
   960  001690  6E2C               	movwf	_last_switch1_value^0,c
   961                           
   962                           ;buttons.c: 35: has_switch1_changed = 2;
   963  001692  0E00               	movlw	0
   964  001694  6E04               	movwf	(poll_switch1_for_edges@has_switch1_changed+1)^0,c
   965  001696  0E02               	movlw	2
   966  001698  6E03               	movwf	poll_switch1_for_edges@has_switch1_changed^0,c
   967  00169A                     l1661:
   968                           
   969                           ;buttons.c: 36: };buttons.c: 38: return has_switch1_changed;
   970  00169A  C003  F001         	movff	poll_switch1_for_edges@has_switch1_changed,?_poll_switch1_for_edges
   971  00169E  C004  F002         	movff	poll_switch1_for_edges@has_switch1_changed+1,?_poll_switch1_for_edges+1
   972  0016A2  0012               	return		;funcret
   973  0016A4                     __end_of_poll_switch1_for_edges:
   974                           	callstack 0
   975                           
   976 ;; *************** function _clearPuTTY *****************
   977 ;; Defined at:
   978 ;;		line 4 in file "../exercise10.X/putty.c"
   979 ;; Parameters:    Size  Location     Type
   980 ;;		None
   981 ;; Auto vars:     Size  Location     Type
   982 ;;		None
   983 ;; Return value:  Size  Location     Type
   984 ;;                  1    wreg      void 
   985 ;; Registers used:
   986 ;;		wreg, fsr2l, fsr2h, status,2, status,0, tblptrl, tblptrh, tblptru, prodl, prodh, cstack
   987 ;; Tracked objects:
   988 ;;		On entry : 0/0
   989 ;;		On exit  : 0/0
   990 ;;		Unchanged: 0/0
   991 ;; Data sizes:     COMRAM   BANK0   BANK1   BANK2   BANK3   BANK4   BANK5   BANK6   BANK7   BANK8   BANK9  BANK10  BANK1
      +1  BANK12  BANK13  BANK14  BANK15
   992 ;;      Params:         0       0       0       0       0       0       0       0       0       0       0       0       
      +0       0       0       0       0
   993 ;;      Locals:         0       0       0       0       0       0       0       0       0       0       0       0       
      +0       0       0       0       0
   994 ;;      Temps:          0       0       0       0       0       0       0       0       0       0       0       0       
      +0       0       0       0       0
   995 ;;      Totals:         0       0       0       0       0       0       0       0       0       0       0       0       
      +0       0       0       0       0
   996 ;;Total ram usage:        0 bytes
   997 ;; Hardware stack levels used:    1
   998 ;; Hardware stack levels required when called:    3
   999 ;; This function calls:
  1000 ;;		_printf
  1001 ;; This function is called by:
  1002 ;;		_main
  1003 ;; This function uses a non-reentrant model
  1004 ;;
  1005                           
  1006                           	psect	text2
  1007  0015AC                     __ptext2:
  1008                           	callstack 0
  1009  0015AC                     _clearPuTTY:
  1010                           	callstack 27
  1011  0015AC                     
  1012                           ;putty.c: 6: printf("%c%c%c%c",27,'[','2','J');
  1013  0015AC  0EBE               	movlw	low STR_4
  1014  0015AE  6E0D               	movwf	printf@f^0,c
  1015  0015B0  0E10               	movlw	high STR_4
  1016  0015B2  6E0E               	movwf	(printf@f+1)^0,c
  1017  0015B4  0E00               	movlw	0
  1018  0015B6  6E10               	movwf	(?_printf+3)^0,c
  1019  0015B8  0E1B               	movlw	27
  1020  0015BA  6E0F               	movwf	(?_printf+2)^0,c
  1021  0015BC  0E00               	movlw	0
  1022  0015BE  6E12               	movwf	(?_printf+5)^0,c
  1023  0015C0  0E5B               	movlw	91
  1024  0015C2  6E11               	movwf	(?_printf+4)^0,c
  1025  0015C4  0E00               	movlw	0
  1026  0015C6  6E14               	movwf	(?_printf+7)^0,c
  1027  0015C8  0E32               	movlw	50
  1028  0015CA  6E13               	movwf	(?_printf+6)^0,c
  1029  0015CC  0E00               	movlw	0
  1030  0015CE  6E16               	movwf	(?_printf+9)^0,c
  1031  0015D0  0E4A               	movlw	74
  1032  0015D2  6E15               	movwf	(?_printf+8)^0,c
  1033  0015D4  EC73  F009         	call	_printf	;wreg free
  1034                           
  1035                           ;putty.c: 7: printf("%c%c%c%c",27,'[','3','J');
  1036  0015D8  0EBE               	movlw	low STR_4
  1037  0015DA  6E0D               	movwf	printf@f^0,c
  1038  0015DC  0E10               	movlw	high STR_4
  1039  0015DE  6E0E               	movwf	(printf@f+1)^0,c
  1040  0015E0  0E00               	movlw	0
  1041  0015E2  6E10               	movwf	(?_printf+3)^0,c
  1042  0015E4  0E1B               	movlw	27
  1043  0015E6  6E0F               	movwf	(?_printf+2)^0,c
  1044  0015E8  0E00               	movlw	0
  1045  0015EA  6E12               	movwf	(?_printf+5)^0,c
  1046  0015EC  0E5B               	movlw	91
  1047  0015EE  6E11               	movwf	(?_printf+4)^0,c
  1048  0015F0  0E00               	movlw	0
  1049  0015F2  6E14               	movwf	(?_printf+7)^0,c
  1050  0015F4  0E33               	movlw	51
  1051  0015F6  6E13               	movwf	(?_printf+6)^0,c
  1052  0015F8  0E00               	movlw	0
  1053  0015FA  6E16               	movwf	(?_printf+9)^0,c
  1054  0015FC  0E4A               	movlw	74
  1055  0015FE  6E15               	movwf	(?_printf+8)^0,c
  1056  001600  EC73  F009         	call	_printf	;wreg free
  1057                           
  1058                           ;putty.c: 8: printf("%c%c%c",27,'[','H');
  1059  001604  0EC0               	movlw	low (STR_4+2)
  1060  001606  6E0D               	movwf	printf@f^0,c
  1061  001608  0E10               	movlw	high (STR_4+2)
  1062  00160A  6E0E               	movwf	(printf@f+1)^0,c
  1063  00160C  0E00               	movlw	0
  1064  00160E  6E10               	movwf	(?_printf+3)^0,c
  1065  001610  0E1B               	movlw	27
  1066  001612  6E0F               	movwf	(?_printf+2)^0,c
  1067  001614  0E00               	movlw	0
  1068  001616  6E12               	movwf	(?_printf+5)^0,c
  1069  001618  0E5B               	movlw	91
  1070  00161A  6E11               	movwf	(?_printf+4)^0,c
  1071  00161C  0E00               	movlw	0
  1072  00161E  6E14               	movwf	(?_printf+7)^0,c
  1073  001620  0E48               	movlw	72
  1074  001622  6E13               	movwf	(?_printf+6)^0,c
  1075  001624  EC73  F009         	call	_printf	;wreg free
  1076  001628  0012               	return		;funcret
  1077  00162A                     __end_of_clearPuTTY:
  1078                           	callstack 0
  1079                           
  1080 ;; *************** function _printf *****************
  1081 ;; Defined at:
  1082 ;;		line 477 in file "C:\Program Files\Microchip\xc8\v2.30\pic\sources\c90\common\doprnt.c"
  1083 ;; Parameters:    Size  Location     Type
  1084 ;;  f               2   12[COMRAM] PTR const unsigned char 
  1085 ;;		 -> STR_6(7), STR_5(9), STR_4(9), STR_3(15), 
  1086 ;;		 -> STR_2(45), STR_1(119), 
  1087 ;; Auto vars:     Size  Location     Type
  1088 ;;  tmpval          4    0        struct .
  1089 ;;  cp              3    0        PTR const unsigned char 
  1090 ;;  ap              2   26[COMRAM] PTR void [1]
  1091 ;;		 -> ?_printf(2), 
  1092 ;;  val             2   23[COMRAM] unsigned int 
  1093 ;;  len             2    0        unsigned int 
  1094 ;;  c               1   28[COMRAM] unsigned char 
  1095 ;;  prec            1   25[COMRAM] char 
  1096 ;;  flag            1   22[COMRAM] unsigned char 
  1097 ;; Return value:  Size  Location     Type
  1098 ;;                  2   12[COMRAM] int 
  1099 ;; Registers used:
  1100 ;;		wreg, fsr2l, fsr2h, status,2, status,0, tblptrl, tblptrh, tblptru, prodl, prodh, cstack
  1101 ;; Tracked objects:
  1102 ;;		On entry : 0/0
  1103 ;;		On exit  : 0/0
  1104 ;;		Unchanged: 0/0
  1105 ;; Data sizes:     COMRAM   BANK0   BANK1   BANK2   BANK3   BANK4   BANK5   BANK6   BANK7   BANK8   BANK9  BANK10  BANK1
      +1  BANK12  BANK13  BANK14  BANK15
  1106 ;;      Params:        10       0       0       0       0       0       0       0       0       0       0       0       
      +0       0       0       0       0
  1107 ;;      Locals:         7       0       0       0       0       0       0       0       0       0       0       0       
      +0       0       0       0       0
  1108 ;;      Temps:          0       0       0       0       0       0       0       0       0       0       0       0       
      +0       0       0       0       0
  1109 ;;      Totals:        17       0       0       0       0       0       0       0       0       0       0       0       
      +0       0       0       0       0
  1110 ;;Total ram usage:       17 bytes
  1111 ;; Hardware stack levels used:    1
  1112 ;; Hardware stack levels required when called:    2
  1113 ;; This function calls:
  1114 ;;		___lwdiv
  1115 ;;		___lwmod
  1116 ;;		_putch
  1117 ;; This function is called by:
  1118 ;;		_main
  1119 ;;		_clearPuTTY
  1120 ;; This function uses a non-reentrant model
  1121 ;;
  1122                           
  1123                           	psect	text3
  1124  0012E6                     __ptext3:
  1125                           	callstack 0
  1126  0012E6                     _printf:
  1127                           	callstack 28
  1128  0012E6                     
  1129                           ;doprnt.c: 479: va_list ap;;doprnt.c: 512: char c;;doprnt.c: 521: signed char prec;;dopr
      +                          nt.c: 525: unsigned char flag;;doprnt.c: 540: union {;doprnt.c: 541: unsigned long vd;;d
      +                          oprnt.c: 542: double integ;;doprnt.c: 543: } tmpval;;doprnt.c: 545: unsigned int val;;do
      +                          prnt.c: 546: unsigned len;;doprnt.c: 547: const char * cp;;doprnt.c: 550: *ap = __va_sta
      +                          rt();
  1130  0012E6  0E0F               	movlw	low (?_printf+2)
  1131  0012E8  6E1B               	movwf	printf@ap^0,c
  1132  0012EA  0E00               	movlw	high (?_printf+2)
  1133  0012EC  6E1C               	movwf	(printf@ap+1)^0,c
  1134                           
  1135                           ;doprnt.c: 553: while((c = *f++)) {
  1136  0012EE  EF28  F00A         	goto	l1633
  1137  0012F2                     l1591:
  1138                           
  1139                           ;doprnt.c: 555: if(c != '%')
  1140  0012F2  0E25               	movlw	37
  1141  0012F4  181D               	xorwf	printf@c^0,w,c
  1142  0012F6  B4D8               	btfsc	status,2,c
  1143  0012F8  EF80  F009         	goto	u541
  1144  0012FC  EF82  F009         	goto	u540
  1145  001300                     u541:
  1146  001300  EF87  F009         	goto	l1595
  1147  001304                     u540:
  1148  001304                     
  1149                           ;doprnt.c: 557: {;doprnt.c: 558: (putch(c) );
  1150  001304  501D               	movf	printf@c^0,w,c
  1151  001306  EC54  F00C         	call	_putch
  1152                           
  1153                           ;doprnt.c: 559: continue;
  1154  00130A  EF28  F00A         	goto	l1633
  1155  00130E                     l1595:
  1156                           
  1157                           ;doprnt.c: 560: };doprnt.c: 565: flag = 0;
  1158  00130E  0E00               	movlw	0
  1159  001310  6E17               	movwf	printf@flag^0,c
  1160                           
  1161                           ;doprnt.c: 661: switch(c = *f++) {
  1162  001312  EFA0  F009         	goto	l1607
  1163  001316                     l1597:
  1164                           
  1165                           ;doprnt.c: 825: c = (char)(*(int *)__va_arg((*(int **)ap), (int)0));
  1166  001316  0060  F06F  FFD9   	movff	printf@ap,fsr2l
  1167  00131C  0060  F073  FFDA   	movff	printf@ap+1,fsr2h
  1168  001322  50DF               	movf	indf2,w,c
  1169  001324  6E1D               	movwf	printf@c^0,c
  1170  001326  0E02               	movlw	2
  1171  001328  261B               	addwf	printf@ap^0,f,c
  1172  00132A  0E00               	movlw	0
  1173  00132C  221C               	addwfc	(printf@ap+1)^0,f,c
  1174  00132E                     l1601:
  1175                           
  1176                           ;doprnt.c: 835: (putch(c) );
  1177  00132E  501D               	movf	printf@c^0,w,c
  1178  001330  EC54  F00C         	call	_putch
  1179                           
  1180                           ;doprnt.c: 836: continue;
  1181  001334  EF28  F00A         	goto	l1633
  1182  001338                     l1603:
  1183                           
  1184                           ;doprnt.c: 844: flag |= 0xC0;
  1185  001338  0EC0               	movlw	192
  1186  00133A  1217               	iorwf	printf@flag^0,f,c
  1187                           
  1188                           ;doprnt.c: 845: break;
  1189  00133C  EFBC  F009         	goto	l1609
  1190  001340                     l1607:
  1191  001340  0060  F037  FFF6   	movff	printf@f,tblptrl
  1192  001346  0060  F03B  FFF7   	movff	printf@f+1,tblptrh
  1193  00134C  4A0D               	infsnz	printf@f^0,f,c
  1194  00134E  2A0E               	incf	(printf@f+1)^0,f,c
  1195  001350                     	if	1	;Program memory is < 0x10000, tblptru is always zero
  1196  001350  6AF8               	clrf	tblptru,c
  1197  001352                     	endif
  1198  001352                     	if	0	;tblptru may be non-zero
  1199  001352                     	endif
  1200  001352  0008               	tblrd		*
  1201  001354  006F FFD4  F01D    	movff	tablat,printf@c
  1202  00135A  501D               	movf	printf@c^0,w,c
  1203                           
  1204                           ; Switch size 1, requested type "simple"
  1205                           ; Number of cases is 3, Range of values is 0 to 117
  1206                           ; switch strategies available:
  1207                           ; Name         Instructions Cycles
  1208                           ; simple_byte           10     6 (average)
  1209                           ;	Chosen strategy is simple_byte
  1210  00135C  0A00               	xorlw	0	; case 0
  1211  00135E  B4D8               	btfsc	status,2,c
  1212  001360  EF3D  F00A         	goto	l443
  1213  001364  0A63               	xorlw	99	; case 99
  1214  001366  B4D8               	btfsc	status,2,c
  1215  001368  EF8B  F009         	goto	l1597
  1216  00136C  0A16               	xorlw	22	; case 117
  1217  00136E  B4D8               	btfsc	status,2,c
  1218  001370  EF9C  F009         	goto	l1603
  1219  001374  EF97  F009         	goto	l1601
  1220  001378                     l1609:
  1221                           
  1222                           ;doprnt.c: 1299: {;doprnt.c: 1312: val = (*(unsigned *)__va_arg((*(unsigned **)ap), (uns
      +                          igned)0));
  1223  001378  0060  F06F  FFD9   	movff	printf@ap,fsr2l
  1224  00137E  0060  F073  FFDA   	movff	printf@ap+1,fsr2h
  1225  001384  006F FF78  F018    	movff	postinc2,printf@val
  1226  00138A  006F FF74  F019    	movff	postdec2,printf@val+1
  1227  001390  0E02               	movlw	2
  1228  001392  261B               	addwf	printf@ap^0,f,c
  1229  001394  0E00               	movlw	0
  1230  001396  221C               	addwfc	(printf@ap+1)^0,f,c
  1231  001398                     
  1232                           ;doprnt.c: 1313: };doprnt.c: 1331: for(c = 1 ; c != sizeof dpowers/sizeof dpowers[0] ; c
      +                          ++)
  1233  001398  0E01               	movlw	1
  1234  00139A  6E1D               	movwf	printf@c^0,c
  1235  00139C                     l1619:
  1236                           
  1237                           ;doprnt.c: 1332: if(val < dpowers[c])
  1238  00139C  501D               	movf	printf@c^0,w,c
  1239  00139E  0D02               	mullw	2
  1240  0013A0  0E01               	movlw	low _dpowers
  1241  0013A2  24F3               	addwf	243,w,c
  1242  0013A4  6EF6               	movwf	tblptrl,c
  1243  0013A6  0E10               	movlw	high _dpowers
  1244  0013A8  20F4               	addwfc	244,w,c
  1245  0013AA  6EF7               	movwf	tblptrh,c
  1246  0013AC                     	if	1	;There are 3 active tblptr bytes
  1247  0013AC  6AF8               	clrf	tblptru,c
  1248  0013AE  0E00               	movlw	low (__mediumconst shr (0+16))
  1249  0013B0  22F8               	addwfc	tblptru,f,c
  1250  0013B2                     	endif
  1251  0013B2  0009               	tblrd		*+
  1252  0013B4  50F5               	movf	tablat,w,c
  1253  0013B6  5C18               	subwf	printf@val^0,w,c
  1254  0013B8  0009               	tblrd		*+
  1255  0013BA  50F5               	movf	tablat,w,c
  1256  0013BC  5819               	subwfb	(printf@val+1)^0,w,c
  1257  0013BE  B0D8               	btfsc	status,0,c
  1258  0013C0  EFE4  F009         	goto	u551
  1259  0013C4  EFE6  F009         	goto	u550
  1260  0013C8                     u551:
  1261  0013C8  EFE8  F009         	goto	l1623
  1262  0013CC                     u550:
  1263  0013CC  EFF2  F009         	goto	l437
  1264  0013D0                     l1623:
  1265  0013D0  2A1D               	incf	printf@c^0,f,c
  1266  0013D2  0E05               	movlw	5
  1267  0013D4  181D               	xorwf	printf@c^0,w,c
  1268  0013D6  A4D8               	btfss	status,2,c
  1269  0013D8  EFF0  F009         	goto	u561
  1270  0013DC  EFF2  F009         	goto	u560
  1271  0013E0                     u561:
  1272  0013E0  EFCE  F009         	goto	l1619
  1273  0013E4                     u560:
  1274  0013E4                     l437:
  1275                           
  1276                           ;doprnt.c: 1448: {;doprnt.c: 1495: };doprnt.c: 1498: prec = c;
  1277  0013E4  C01D  F01A         	movff	printf@c,printf@prec
  1278                           
  1279                           ;doprnt.c: 1500: while(prec--) {
  1280  0013E8  EF1F  F00A         	goto	l1631
  1281  0013EC                     l1627:
  1282                           
  1283                           ;doprnt.c: 1504: {;doprnt.c: 1515: c = (val / dpowers[(unsigned char)prec]) % 10 + '0';
  1284  0013EC  501A               	movf	printf@prec^0,w,c
  1285  0013EE  0D02               	mullw	2
  1286  0013F0  0E01               	movlw	low _dpowers
  1287  0013F2  24F3               	addwf	243,w,c
  1288  0013F4  6EF6               	movwf	tblptrl,c
  1289  0013F6  0E10               	movlw	high _dpowers
  1290  0013F8  20F4               	addwfc	244,w,c
  1291  0013FA  6EF7               	movwf	tblptrh,c
  1292  0013FC                     	if	1	;There are 3 active tblptr bytes
  1293  0013FC  6AF8               	clrf	tblptru,c
  1294  0013FE  0E00               	movlw	low (__mediumconst shr (0+16))
  1295  001400  22F8               	addwfc	tblptru,f,c
  1296  001402                     	endif
  1297  001402  0009               	tblrd		*+
  1298  001404  006F FFD4  F003    	movff	tablat,___lwdiv@divisor
  1299  00140A  000A               	tblrd		*-
  1300  00140C  006F FFD4  F004    	movff	tablat,___lwdiv@divisor+1
  1301  001412  C018  F001         	movff	printf@val,___lwdiv@dividend
  1302  001416  C019  F002         	movff	printf@val+1,___lwdiv@dividend+1
  1303  00141A  EC52  F00B         	call	___lwdiv	;wreg free
  1304  00141E  C001  F008         	movff	?___lwdiv,___lwmod@dividend
  1305  001422  C002  F009         	movff	?___lwdiv+1,___lwmod@dividend+1
  1306  001426  0E00               	movlw	0
  1307  001428  6E0B               	movwf	(___lwmod@divisor+1)^0,c
  1308  00142A  0E0A               	movlw	10
  1309  00142C  6E0A               	movwf	___lwmod@divisor^0,c
  1310  00142E  EC8C  F00B         	call	___lwmod	;wreg free
  1311  001432  5008               	movf	?___lwmod^0,w,c
  1312  001434  0F30               	addlw	48
  1313  001436  6E1D               	movwf	printf@c^0,c
  1314  001438                     
  1315                           ;doprnt.c: 1549: };doprnt.c: 1550: (putch(c) );
  1316  001438  501D               	movf	printf@c^0,w,c
  1317  00143A  EC54  F00C         	call	_putch
  1318  00143E                     l1631:
  1319  00143E  061A               	decf	printf@prec^0,f,c
  1320  001440  281A               	incf	printf@prec^0,w,c
  1321  001442  A4D8               	btfss	status,2,c
  1322  001444  EF26  F00A         	goto	u571
  1323  001448  EF28  F00A         	goto	u570
  1324  00144C                     u571:
  1325  00144C  EFF6  F009         	goto	l1627
  1326  001450                     u570:
  1327  001450                     l1633:
  1328  001450  0060  F037  FFF6   	movff	printf@f,tblptrl
  1329  001456  0060  F03B  FFF7   	movff	printf@f+1,tblptrh
  1330  00145C  4A0D               	infsnz	printf@f^0,f,c
  1331  00145E  2A0E               	incf	(printf@f+1)^0,f,c
  1332  001460                     	if	1	;Program memory is < 0x10000, tblptru is always zero
  1333  001460  6AF8               	clrf	tblptru,c
  1334  001462                     	endif
  1335  001462                     	if	0	;tblptru may be non-zero
  1336  001462                     	endif
  1337  001462  0008               	tblrd		*
  1338  001464  006F FFD4  F01D    	movff	tablat,printf@c
  1339  00146A  501D               	movf	printf@c^0,w,c
  1340  00146C  A4D8               	btfss	status,2,c
  1341  00146E  EF3B  F00A         	goto	u581
  1342  001472  EF3D  F00A         	goto	u580
  1343  001476                     u581:
  1344  001476  EF79  F009         	goto	l1591
  1345  00147A                     u580:
  1346  00147A                     l443:
  1347  00147A  0012               	return		;funcret
  1348  00147C                     __end_of_printf:
  1349                           	callstack 0
  1350                           
  1351 ;; *************** function _putch *****************
  1352 ;; Defined at:
  1353 ;;		line 175 in file "mcc_generated_files/uart2.c"
  1354 ;; Parameters:    Size  Location     Type
  1355 ;;  txData          1    wreg     unsigned char 
  1356 ;; Auto vars:     Size  Location     Type
  1357 ;;  txData          1    1[COMRAM] unsigned char 
  1358 ;; Return value:  Size  Location     Type
  1359 ;;                  1    wreg      void 
  1360 ;; Registers used:
  1361 ;;		wreg, status,2, cstack
  1362 ;; Tracked objects:
  1363 ;;		On entry : 0/0
  1364 ;;		On exit  : 0/0
  1365 ;;		Unchanged: 0/0
  1366 ;; Data sizes:     COMRAM   BANK0   BANK1   BANK2   BANK3   BANK4   BANK5   BANK6   BANK7   BANK8   BANK9  BANK10  BANK1
      +1  BANK12  BANK13  BANK14  BANK15
  1367 ;;      Params:         0       0       0       0       0       0       0       0       0       0       0       0       
      +0       0       0       0       0
  1368 ;;      Locals:         1       0       0       0       0       0       0       0       0       0       0       0       
      +0       0       0       0       0
  1369 ;;      Temps:          0       0       0       0       0       0       0       0       0       0       0       0       
      +0       0       0       0       0
  1370 ;;      Totals:         1       0       0       0       0       0       0       0       0       0       0       0       
      +0       0       0       0       0
  1371 ;;Total ram usage:        1 bytes
  1372 ;; Hardware stack levels used:    1
  1373 ;; Hardware stack levels required when called:    1
  1374 ;; This function calls:
  1375 ;;		_UART2_Write
  1376 ;; This function is called by:
  1377 ;;		_printf
  1378 ;; This function uses a non-reentrant model
  1379 ;;
  1380                           
  1381                           	psect	text4
  1382  0018A8                     __ptext4:
  1383                           	callstack 0
  1384  0018A8                     _putch:
  1385                           	callstack 28
  1386                           
  1387                           ;incstack = 0
  1388                           ;putch@txData stored from wreg
  1389  0018A8  6E02               	movwf	putch@txData^0,c
  1390  0018AA                     
  1391                           ;uart2.c: 177: UART2_Write(txData);
  1392  0018AA  5002               	movf	putch@txData^0,w,c
  1393  0018AC  EC15  F00C         	call	_UART2_Write
  1394  0018B0  0012               	return		;funcret
  1395  0018B2                     __end_of_putch:
  1396                           	callstack 0
  1397                           
  1398 ;; *************** function _UART2_Write *****************
  1399 ;; Defined at:
  1400 ;;		line 161 in file "mcc_generated_files/uart2.c"
  1401 ;; Parameters:    Size  Location     Type
  1402 ;;  txData          1    wreg     unsigned char 
  1403 ;; Auto vars:     Size  Location     Type
  1404 ;;  txData          1    0[COMRAM] unsigned char 
  1405 ;; Return value:  Size  Location     Type
  1406 ;;                  1    wreg      void 
  1407 ;; Registers used:
  1408 ;;		wreg
  1409 ;; Tracked objects:
  1410 ;;		On entry : 0/0
  1411 ;;		On exit  : 0/0
  1412 ;;		Unchanged: 0/0
  1413 ;; Data sizes:     COMRAM   BANK0   BANK1   BANK2   BANK3   BANK4   BANK5   BANK6   BANK7   BANK8   BANK9  BANK10  BANK1
      +1  BANK12  BANK13  BANK14  BANK15
  1414 ;;      Params:         0       0       0       0       0       0       0       0       0       0       0       0       
      +0       0       0       0       0
  1415 ;;      Locals:         1       0       0       0       0       0       0       0       0       0       0       0       
      +0       0       0       0       0
  1416 ;;      Temps:          0       0       0       0       0       0       0       0       0       0       0       0       
      +0       0       0       0       0
  1417 ;;      Totals:         1       0       0       0       0       0       0       0       0       0       0       0       
      +0       0       0       0       0
  1418 ;;Total ram usage:        1 bytes
  1419 ;; Hardware stack levels used:    1
  1420 ;; This function calls:
  1421 ;;		Nothing
  1422 ;; This function is called by:
  1423 ;;		_putch
  1424 ;; This function uses a non-reentrant model
  1425 ;;
  1426                           
  1427                           	psect	text5
  1428  00182A                     __ptext5:
  1429                           	callstack 0
  1430  00182A                     _UART2_Write:
  1431                           	callstack 28
  1432                           
  1433                           ;incstack = 0
  1434                           ;UART2_Write@txData stored from wreg
  1435  00182A  6E01               	movwf	UART2_Write@txData^0,c
  1436  00182C                     l83:
  1437  00182C  0139               	movlb	57	; () banked
  1438  00182E  A7A6               	btfss	166,3,b	;volatile
  1439  001830  EF1C  F00C         	goto	u11
  1440  001834  EF1E  F00C         	goto	u10
  1441  001838                     u11:
  1442  001838  EF16  F00C         	goto	l83
  1443  00183C                     u10:
  1444  00183C                     
  1445                           ; BSR set to: 57
  1446                           ;uart2.c: 165: };uart2.c: 167: U2TXB = txData;
  1447  00183C  0060  F007  FDD2   	movff	UART2_Write@txData,15826	;volatile
  1448  001842                     
  1449                           ; BSR set to: 57
  1450  001842  0012               	return		;funcret
  1451  001844                     __end_of_UART2_Write:
  1452                           	callstack 0
  1453                           
  1454 ;; *************** function ___lwmod *****************
  1455 ;; Defined at:
  1456 ;;		line 7 in file "C:\Program Files\Microchip\xc8\v2.30\pic\sources\c90\common\lwmod.c"
  1457 ;; Parameters:    Size  Location     Type
  1458 ;;  dividend        2    7[COMRAM] unsigned int 
  1459 ;;  divisor         2    9[COMRAM] unsigned int 
  1460 ;; Auto vars:     Size  Location     Type
  1461 ;;  counter         1   11[COMRAM] unsigned char 
  1462 ;; Return value:  Size  Location     Type
  1463 ;;                  2    7[COMRAM] unsigned int 
  1464 ;; Registers used:
  1465 ;;		wreg, status,2, status,0
  1466 ;; Tracked objects:
  1467 ;;		On entry : 0/0
  1468 ;;		On exit  : 0/0
  1469 ;;		Unchanged: 0/0
  1470 ;; Data sizes:     COMRAM   BANK0   BANK1   BANK2   BANK3   BANK4   BANK5   BANK6   BANK7   BANK8   BANK9  BANK10  BANK1
      +1  BANK12  BANK13  BANK14  BANK15
  1471 ;;      Params:         4       0       0       0       0       0       0       0       0       0       0       0       
      +0       0       0       0       0
  1472 ;;      Locals:         1       0       0       0       0       0       0       0       0       0       0       0       
      +0       0       0       0       0
  1473 ;;      Temps:          0       0       0       0       0       0       0       0       0       0       0       0       
      +0       0       0       0       0
  1474 ;;      Totals:         5       0       0       0       0       0       0       0       0       0       0       0       
      +0       0       0       0       0
  1475 ;;Total ram usage:        5 bytes
  1476 ;; Hardware stack levels used:    1
  1477 ;; This function calls:
  1478 ;;		Nothing
  1479 ;; This function is called by:
  1480 ;;		_printf
  1481 ;; This function uses a non-reentrant model
  1482 ;;
  1483                           
  1484                           	psect	text6
  1485  001718                     __ptext6:
  1486                           	callstack 0
  1487  001718                     ___lwmod:
  1488                           	callstack 29
  1489  001718  500A               	movf	___lwmod@divisor^0,w,c
  1490  00171A  100B               	iorwf	(___lwmod@divisor+1)^0,w,c
  1491  00171C  B4D8               	btfsc	status,2,c
  1492  00171E  EF93  F00B         	goto	u511
  1493  001722  EF95  F00B         	goto	u510
  1494  001726                     u511:
  1495  001726  EFB9  F00B         	goto	l935
  1496  00172A                     u510:
  1497  00172A  0E01               	movlw	1
  1498  00172C  6E0C               	movwf	___lwmod@counter^0,c
  1499  00172E  EF9D  F00B         	goto	l1569
  1500  001732                     l1567:
  1501  001732  90D8               	bcf	status,0,c
  1502  001734  360A               	rlcf	___lwmod@divisor^0,f,c
  1503  001736  360B               	rlcf	(___lwmod@divisor+1)^0,f,c
  1504  001738  2A0C               	incf	___lwmod@counter^0,f,c
  1505  00173A                     l1569:
  1506  00173A  AE0B               	btfss	(___lwmod@divisor+1)^0,7,c
  1507  00173C  EFA2  F00B         	goto	u521
  1508  001740  EFA4  F00B         	goto	u520
  1509  001744                     u521:
  1510  001744  EF99  F00B         	goto	l1567
  1511  001748                     u520:
  1512  001748                     l1571:
  1513  001748  500A               	movf	___lwmod@divisor^0,w,c
  1514  00174A  5C08               	subwf	___lwmod@dividend^0,w,c
  1515  00174C  500B               	movf	(___lwmod@divisor+1)^0,w,c
  1516  00174E  5809               	subwfb	(___lwmod@dividend+1)^0,w,c
  1517  001750  A0D8               	btfss	status,0,c
  1518  001752  EFAD  F00B         	goto	u531
  1519  001756  EFAF  F00B         	goto	u530
  1520  00175A                     u531:
  1521  00175A  EFB3  F00B         	goto	l1575
  1522  00175E                     u530:
  1523  00175E  500A               	movf	___lwmod@divisor^0,w,c
  1524  001760  5E08               	subwf	___lwmod@dividend^0,f,c
  1525  001762  500B               	movf	(___lwmod@divisor+1)^0,w,c
  1526  001764  5A09               	subwfb	(___lwmod@dividend+1)^0,f,c
  1527  001766                     l1575:
  1528  001766  90D8               	bcf	status,0,c
  1529  001768  320B               	rrcf	(___lwmod@divisor+1)^0,f,c
  1530  00176A  320A               	rrcf	___lwmod@divisor^0,f,c
  1531  00176C  2E0C               	decfsz	___lwmod@counter^0,f,c
  1532  00176E  EFA4  F00B         	goto	l1571
  1533  001772                     l935:
  1534  001772  C008  F008         	movff	___lwmod@dividend,?___lwmod
  1535  001776  C009  F009         	movff	___lwmod@dividend+1,?___lwmod+1
  1536  00177A  0012               	return		;funcret
  1537  00177C                     __end_of___lwmod:
  1538                           	callstack 0
  1539                           
  1540 ;; *************** function ___lwdiv *****************
  1541 ;; Defined at:
  1542 ;;		line 7 in file "C:\Program Files\Microchip\xc8\v2.30\pic\sources\c90\common\lwdiv.c"
  1543 ;; Parameters:    Size  Location     Type
  1544 ;;  dividend        2    0[COMRAM] unsigned int 
  1545 ;;  divisor         2    2[COMRAM] unsigned int 
  1546 ;; Auto vars:     Size  Location     Type
  1547 ;;  quotient        2    4[COMRAM] unsigned int 
  1548 ;;  counter         1    6[COMRAM] unsigned char 
  1549 ;; Return value:  Size  Location     Type
  1550 ;;                  2    0[COMRAM] unsigned int 
  1551 ;; Registers used:
  1552 ;;		wreg, status,2, status,0
  1553 ;; Tracked objects:
  1554 ;;		On entry : 0/0
  1555 ;;		On exit  : 0/0
  1556 ;;		Unchanged: 0/0
  1557 ;; Data sizes:     COMRAM   BANK0   BANK1   BANK2   BANK3   BANK4   BANK5   BANK6   BANK7   BANK8   BANK9  BANK10  BANK1
      +1  BANK12  BANK13  BANK14  BANK15
  1558 ;;      Params:         4       0       0       0       0       0       0       0       0       0       0       0       
      +0       0       0       0       0
  1559 ;;      Locals:         3       0       0       0       0       0       0       0       0       0       0       0       
      +0       0       0       0       0
  1560 ;;      Temps:          0       0       0       0       0       0       0       0       0       0       0       0       
      +0       0       0       0       0
  1561 ;;      Totals:         7       0       0       0       0       0       0       0       0       0       0       0       
      +0       0       0       0       0
  1562 ;;Total ram usage:        7 bytes
  1563 ;; Hardware stack levels used:    1
  1564 ;; This function calls:
  1565 ;;		Nothing
  1566 ;; This function is called by:
  1567 ;;		_printf
  1568 ;; This function uses a non-reentrant model
  1569 ;;
  1570                           
  1571                           	psect	text7
  1572  0016A4                     __ptext7:
  1573                           	callstack 0
  1574  0016A4                     ___lwdiv:
  1575                           	callstack 29
  1576  0016A4  0E00               	movlw	0
  1577  0016A6  6E06               	movwf	(___lwdiv@quotient+1)^0,c
  1578  0016A8  0E00               	movlw	0
  1579  0016AA  6E05               	movwf	___lwdiv@quotient^0,c
  1580  0016AC  5003               	movf	___lwdiv@divisor^0,w,c
  1581  0016AE  1004               	iorwf	(___lwdiv@divisor+1)^0,w,c
  1582  0016B0  B4D8               	btfsc	status,2,c
  1583  0016B2  EF5D  F00B         	goto	u481
  1584  0016B6  EF5F  F00B         	goto	u480
  1585  0016BA                     u481:
  1586  0016BA  EF87  F00B         	goto	l925
  1587  0016BE                     u480:
  1588  0016BE  0E01               	movlw	1
  1589  0016C0  6E07               	movwf	___lwdiv@counter^0,c
  1590  0016C2  EF67  F00B         	goto	l1549
  1591  0016C6                     l1547:
  1592  0016C6  90D8               	bcf	status,0,c
  1593  0016C8  3603               	rlcf	___lwdiv@divisor^0,f,c
  1594  0016CA  3604               	rlcf	(___lwdiv@divisor+1)^0,f,c
  1595  0016CC  2A07               	incf	___lwdiv@counter^0,f,c
  1596  0016CE                     l1549:
  1597  0016CE  AE04               	btfss	(___lwdiv@divisor+1)^0,7,c
  1598  0016D0  EF6C  F00B         	goto	u491
  1599  0016D4  EF6E  F00B         	goto	u490
  1600  0016D8                     u491:
  1601  0016D8  EF63  F00B         	goto	l1547
  1602  0016DC                     u490:
  1603  0016DC                     l1551:
  1604  0016DC  90D8               	bcf	status,0,c
  1605  0016DE  3605               	rlcf	___lwdiv@quotient^0,f,c
  1606  0016E0  3606               	rlcf	(___lwdiv@quotient+1)^0,f,c
  1607  0016E2  5003               	movf	___lwdiv@divisor^0,w,c
  1608  0016E4  5C01               	subwf	___lwdiv@dividend^0,w,c
  1609  0016E6  5004               	movf	(___lwdiv@divisor+1)^0,w,c
  1610  0016E8  5802               	subwfb	(___lwdiv@dividend+1)^0,w,c
  1611  0016EA  A0D8               	btfss	status,0,c
  1612  0016EC  EF7A  F00B         	goto	u501
  1613  0016F0  EF7C  F00B         	goto	u500
  1614  0016F4                     u501:
  1615  0016F4  EF81  F00B         	goto	l1559
  1616  0016F8                     u500:
  1617  0016F8  5003               	movf	___lwdiv@divisor^0,w,c
  1618  0016FA  5E01               	subwf	___lwdiv@dividend^0,f,c
  1619  0016FC  5004               	movf	(___lwdiv@divisor+1)^0,w,c
  1620  0016FE  5A02               	subwfb	(___lwdiv@dividend+1)^0,f,c
  1621  001700  8005               	bsf	___lwdiv@quotient^0,0,c
  1622  001702                     l1559:
  1623  001702  90D8               	bcf	status,0,c
  1624  001704  3204               	rrcf	(___lwdiv@divisor+1)^0,f,c
  1625  001706  3203               	rrcf	___lwdiv@divisor^0,f,c
  1626  001708  2E07               	decfsz	___lwdiv@counter^0,f,c
  1627  00170A  EF6E  F00B         	goto	l1551
  1628  00170E                     l925:
  1629  00170E  C005  F001         	movff	___lwdiv@quotient,?___lwdiv
  1630  001712  C006  F002         	movff	___lwdiv@quotient+1,?___lwdiv+1
  1631  001716  0012               	return		;funcret
  1632  001718                     __end_of___lwdiv:
  1633                           	callstack 0
  1634                           
  1635 ;; *************** function _UART2_is_rx_ready *****************
  1636 ;; Defined at:
  1637 ;;		line 117 in file "mcc_generated_files/uart2.c"
  1638 ;; Parameters:    Size  Location     Type
  1639 ;;		None
  1640 ;; Auto vars:     Size  Location     Type
  1641 ;;		None
  1642 ;; Return value:  Size  Location     Type
  1643 ;;                  1    wreg      unsigned char 
  1644 ;; Registers used:
  1645 ;;		wreg
  1646 ;; Tracked objects:
  1647 ;;		On entry : 0/0
  1648 ;;		On exit  : 0/0
  1649 ;;		Unchanged: 0/0
  1650 ;; Data sizes:     COMRAM   BANK0   BANK1   BANK2   BANK3   BANK4   BANK5   BANK6   BANK7   BANK8   BANK9  BANK10  BANK1
      +1  BANK12  BANK13  BANK14  BANK15
  1651 ;;      Params:         0       0       0       0       0       0       0       0       0       0       0       0       
      +0       0       0       0       0
  1652 ;;      Locals:         0       0       0       0       0       0       0       0       0       0       0       0       
      +0       0       0       0       0
  1653 ;;      Temps:          0       0       0       0       0       0       0       0       0       0       0       0       
      +0       0       0       0       0
  1654 ;;      Totals:         0       0       0       0       0       0       0       0       0       0       0       0       
      +0       0       0       0       0
  1655 ;;Total ram usage:        0 bytes
  1656 ;; Hardware stack levels used:    1
  1657 ;; This function calls:
  1658 ;;		Nothing
  1659 ;; This function is called by:
  1660 ;;		_main
  1661 ;;		_wait_for_ENTER
  1662 ;;		_ReadNUART2
  1663 ;; This function uses a non-reentrant model
  1664 ;;
  1665                           
  1666                           	psect	text8
  1667  00185C                     __ptext8:
  1668                           	callstack 0
  1669  00185C                     _UART2_is_rx_ready:
  1670                           	callstack 30
  1671  00185C                     
  1672                           ;uart2.c: 119: return (bool)(PIR6bits.U2RXIF);
  1673  00185C  0139               	movlb	57	; () banked
  1674  00185E  B5A6               	btfsc	166,2,b	;volatile
  1675  001860  EF34  F00C         	goto	u131
  1676  001864  EF37  F00C         	goto	u130
  1677  001868                     u131:
  1678  001868  0E01               	movlw	1
  1679  00186A  EF38  F00C         	goto	u136
  1680  00186E                     u130:
  1681  00186E  0E00               	movlw	0
  1682  001870                     u136:
  1683  001870                     
  1684                           ; BSR set to: 57
  1685  001870  0012               	return		;funcret
  1686  001872                     __end_of_UART2_is_rx_ready:
  1687                           	callstack 0
  1688                           
  1689 ;; *************** function _UART2_Read *****************
  1690 ;; Defined at:
  1691 ;;		line 136 in file "mcc_generated_files/uart2.c"
  1692 ;; Parameters:    Size  Location     Type
  1693 ;;		None
  1694 ;; Auto vars:     Size  Location     Type
  1695 ;;		None
  1696 ;; Return value:  Size  Location     Type
  1697 ;;                  1    wreg      unsigned char 
  1698 ;; Registers used:
  1699 ;;		wreg, status,2, pclath, tosl, cstack
  1700 ;; Tracked objects:
  1701 ;;		On entry : 0/0
  1702 ;;		On exit  : 0/0
  1703 ;;		Unchanged: 0/0
  1704 ;; Data sizes:     COMRAM   BANK0   BANK1   BANK2   BANK3   BANK4   BANK5   BANK6   BANK7   BANK8   BANK9  BANK10  BANK1
      +1  BANK12  BANK13  BANK14  BANK15
  1705 ;;      Params:         0       0       0       0       0       0       0       0       0       0       0       0       
      +0       0       0       0       0
  1706 ;;      Locals:         0       0       0       0       0       0       0       0       0       0       0       0       
      +0       0       0       0       0
  1707 ;;      Temps:          0       0       0       0       0       0       0       0       0       0       0       0       
      +0       0       0       0       0
  1708 ;;      Totals:         0       0       0       0       0       0       0       0       0       0       0       0       
      +0       0       0       0       0
  1709 ;;Total ram usage:        0 bytes
  1710 ;; Hardware stack levels used:    1
  1711 ;; Hardware stack levels required when called:    1
  1712 ;; This function calls:
  1713 ;;		Absolute function
  1714 ;;		_UART2_DefaultErrorHandler
  1715 ;;		_UART2_DefaultFramingErrorHandler
  1716 ;;		_UART2_DefaultOverrunErrorHandler
  1717 ;; This function is called by:
  1718 ;;		_main
  1719 ;;		_getch
  1720 ;;		_wait_for_ENTER
  1721 ;;		_ReadNUART2
  1722 ;; This function uses a non-reentrant model
  1723 ;;
  1724                           
  1725                           	psect	text9
  1726  001516                     __ptext9:
  1727                           	callstack 0
  1728  001516                     _UART2_Read:
  1729                           	callstack 29
  1730  001516                     l74:
  1731  001516  0139               	movlb	57	; () banked
  1732  001518  A5A6               	btfss	166,2,b	;volatile
  1733  00151A  EF91  F00A         	goto	u141
  1734  00151E  EF93  F00A         	goto	u140
  1735  001522                     u141:
  1736  001522  EF8B  F00A         	goto	l74
  1737  001526                     u140:
  1738  001526                     
  1739                           ; BSR set to: 57
  1740                           ;uart2.c: 140: };uart2.c: 142: uart2RxLastError.status = 0;
  1741  001526  0E00               	movlw	0
  1742  001528  6E2E               	movwf	_uart2RxLastError^0,c	;volatile
  1743  00152A                     
  1744                           ; BSR set to: 57
  1745                           ;uart2.c: 144: if(U2ERRIRbits.FERIF){
  1746  00152A  013D               	movlb	61	; () banked
  1747  00152C  A7E1               	btfss	225,3,b	;volatile
  1748  00152E  EF9B  F00A         	goto	u151
  1749  001532  EF9D  F00A         	goto	u150
  1750  001536                     u151:
  1751  001536  EFAA  F00A         	goto	l1345
  1752  00153A                     u150:
  1753  00153A                     
  1754                           ; BSR set to: 61
  1755                           ;uart2.c: 145: uart2RxLastError.ferr = 1;
  1756  00153A  822E               	bsf	_uart2RxLastError^0,1,c	;volatile
  1757  00153C                     
  1758                           ; BSR set to: 61
  1759                           ;uart2.c: 146: UART2_FramingErrorHandler();
  1760  00153C  D802               	call	u168
  1761  00153E  EFAA  F00A         	goto	u169
  1762  001542                     u168:
  1763  001542  0005               	push	
  1764  001544  6EFA               	movwf	pclath,c
  1765  001546  502A               	movf	_UART2_FramingErrorHandler^0,w,c
  1766  001548  6EFD               	movwf	tosl,c
  1767  00154A  502B               	movf	(_UART2_FramingErrorHandler+1)^0,w,c
  1768  00154C  6EFE               	movwf	tosh,c
  1769  00154E  6AFF               	clrf	tosu,c
  1770  001550  50FA               	movf	pclath,w,c
  1771  001552  0012               	return		;indir
  1772  001554                     u169:
  1773  001554                     l1345:
  1774                           
  1775                           ;uart2.c: 147: };uart2.c: 149: if(U2ERRIRbits.RXFOIF){
  1776  001554  013D               	movlb	61	; () banked
  1777  001556  A3E1               	btfss	225,1,b	;volatile
  1778  001558  EFB0  F00A         	goto	u171
  1779  00155C  EFB2  F00A         	goto	u170
  1780  001560                     u171:
  1781  001560  EFBF  F00A         	goto	l1351
  1782  001564                     u170:
  1783  001564                     
  1784                           ; BSR set to: 61
  1785                           ;uart2.c: 150: uart2RxLastError.oerr = 1;
  1786  001564  842E               	bsf	_uart2RxLastError^0,2,c	;volatile
  1787  001566                     
  1788                           ; BSR set to: 61
  1789                           ;uart2.c: 151: UART2_OverrunErrorHandler();
  1790  001566  D802               	call	u188
  1791  001568  EFBF  F00A         	goto	u189
  1792  00156C                     u188:
  1793  00156C  0005               	push	
  1794  00156E  6EFA               	movwf	pclath,c
  1795  001570  5028               	movf	_UART2_OverrunErrorHandler^0,w,c
  1796  001572  6EFD               	movwf	tosl,c
  1797  001574  5029               	movf	(_UART2_OverrunErrorHandler+1)^0,w,c
  1798  001576  6EFE               	movwf	tosh,c
  1799  001578  6AFF               	clrf	tosu,c
  1800  00157A  50FA               	movf	pclath,w,c
  1801  00157C  0012               	return		;indir
  1802  00157E                     u189:
  1803  00157E                     l1351:
  1804                           
  1805                           ;uart2.c: 152: };uart2.c: 154: if(uart2RxLastError.status){
  1806  00157E  502E               	movf	_uart2RxLastError^0,w,c	;volatile
  1807  001580  B4D8               	btfsc	status,2,c
  1808  001582  EFC5  F00A         	goto	u191
  1809  001586  EFC7  F00A         	goto	u190
  1810  00158A                     u191:
  1811  00158A  EFD3  F00A         	goto	l1355
  1812  00158E                     u190:
  1813  00158E                     
  1814                           ;uart2.c: 155: UART2_ErrorHandler();
  1815  00158E  D802               	call	u208
  1816  001590  EFD3  F00A         	goto	u209
  1817  001594                     u208:
  1818  001594  0005               	push	
  1819  001596  6EFA               	movwf	pclath,c
  1820  001598  5026               	movf	_UART2_ErrorHandler^0,w,c
  1821  00159A  6EFD               	movwf	tosl,c
  1822  00159C  5027               	movf	(_UART2_ErrorHandler+1)^0,w,c
  1823  00159E  6EFE               	movwf	tosh,c
  1824  0015A0  6AFF               	clrf	tosu,c
  1825  0015A2  50FA               	movf	pclath,w,c
  1826  0015A4  0012               	return		;indir
  1827  0015A6                     u209:
  1828  0015A6                     l1355:
  1829                           
  1830                           ;uart2.c: 156: };uart2.c: 158: return U2RXB;
  1831  0015A6  013D               	movlb	61	; () banked
  1832  0015A8  51D0               	movf	208,w,b	;volatile
  1833  0015AA                     
  1834                           ; BSR set to: 61
  1835  0015AA  0012               	return		;funcret
  1836  0015AC                     __end_of_UART2_Read:
  1837                           	callstack 0
  1838                           
  1839 ;; *************** function _UART2_DefaultOverrunErrorHandler *****************
  1840 ;; Defined at:
  1841 ;;		line 186 in file "mcc_generated_files/uart2.c"
  1842 ;; Parameters:    Size  Location     Type
  1843 ;;		None
  1844 ;; Auto vars:     Size  Location     Type
  1845 ;;		None
  1846 ;; Return value:  Size  Location     Type
  1847 ;;                  1    wreg      void 
  1848 ;; Registers used:
  1849 ;;		None
  1850 ;; Tracked objects:
  1851 ;;		On entry : 0/0
  1852 ;;		On exit  : 0/0
  1853 ;;		Unchanged: 0/0
  1854 ;; Data sizes:     COMRAM   BANK0   BANK1   BANK2   BANK3   BANK4   BANK5   BANK6   BANK7   BANK8   BANK9  BANK10  BANK1
      +1  BANK12  BANK13  BANK14  BANK15
  1855 ;;      Params:         0       0       0       0       0       0       0       0       0       0       0       0       
      +0       0       0       0       0
  1856 ;;      Locals:         0       0       0       0       0       0       0       0       0       0       0       0       
      +0       0       0       0       0
  1857 ;;      Temps:          0       0       0       0       0       0       0       0       0       0       0       0       
      +0       0       0       0       0
  1858 ;;      Totals:         0       0       0       0       0       0       0       0       0       0       0       0       
      +0       0       0       0       0
  1859 ;;Total ram usage:        0 bytes
  1860 ;; Hardware stack levels used:    1
  1861 ;; This function calls:
  1862 ;;		Nothing
  1863 ;; This function is called by:
  1864 ;;		_UART2_Initialize
  1865 ;;		_UART2_Read
  1866 ;; This function uses a non-reentrant model
  1867 ;;
  1868                           
  1869                           	psect	text10
  1870  0018D0                     __ptext10:
  1871                           	callstack 0
  1872  0018D0                     _UART2_DefaultOverrunErrorHandler:
  1873                           	callstack 29
  1874  0018D0  0012               	return		;funcret
  1875  0018D2                     __end_of_UART2_DefaultOverrunErrorHandler:
  1876                           	callstack 0
  1877                           
  1878 ;; *************** function _UART2_DefaultFramingErrorHandler *****************
  1879 ;; Defined at:
  1880 ;;		line 184 in file "mcc_generated_files/uart2.c"
  1881 ;; Parameters:    Size  Location     Type
  1882 ;;		None
  1883 ;; Auto vars:     Size  Location     Type
  1884 ;;		None
  1885 ;; Return value:  Size  Location     Type
  1886 ;;                  1    wreg      void 
  1887 ;; Registers used:
  1888 ;;		None
  1889 ;; Tracked objects:
  1890 ;;		On entry : 0/0
  1891 ;;		On exit  : 0/0
  1892 ;;		Unchanged: 0/0
  1893 ;; Data sizes:     COMRAM   BANK0   BANK1   BANK2   BANK3   BANK4   BANK5   BANK6   BANK7   BANK8   BANK9  BANK10  BANK1
      +1  BANK12  BANK13  BANK14  BANK15
  1894 ;;      Params:         0       0       0       0       0       0       0       0       0       0       0       0       
      +0       0       0       0       0
  1895 ;;      Locals:         0       0       0       0       0       0       0       0       0       0       0       0       
      +0       0       0       0       0
  1896 ;;      Temps:          0       0       0       0       0       0       0       0       0       0       0       0       
      +0       0       0       0       0
  1897 ;;      Totals:         0       0       0       0       0       0       0       0       0       0       0       0       
      +0       0       0       0       0
  1898 ;;Total ram usage:        0 bytes
  1899 ;; Hardware stack levels used:    1
  1900 ;; This function calls:
  1901 ;;		Nothing
  1902 ;; This function is called by:
  1903 ;;		_UART2_Initialize
  1904 ;;		_UART2_Read
  1905 ;; This function uses a non-reentrant model
  1906 ;;
  1907                           
  1908                           	psect	text11
  1909  0018D2                     __ptext11:
  1910                           	callstack 0
  1911  0018D2                     _UART2_DefaultFramingErrorHandler:
  1912                           	callstack 29
  1913  0018D2  0012               	return		;funcret
  1914  0018D4                     __end_of_UART2_DefaultFramingErrorHandler:
  1915                           	callstack 0
  1916                           
  1917 ;; *************** function _UART2_DefaultErrorHandler *****************
  1918 ;; Defined at:
  1919 ;;		line 188 in file "mcc_generated_files/uart2.c"
  1920 ;; Parameters:    Size  Location     Type
  1921 ;;		None
  1922 ;; Auto vars:     Size  Location     Type
  1923 ;;		None
  1924 ;; Return value:  Size  Location     Type
  1925 ;;                  1    wreg      void 
  1926 ;; Registers used:
  1927 ;;		None
  1928 ;; Tracked objects:
  1929 ;;		On entry : 0/0
  1930 ;;		On exit  : 0/0
  1931 ;;		Unchanged: 0/0
  1932 ;; Data sizes:     COMRAM   BANK0   BANK1   BANK2   BANK3   BANK4   BANK5   BANK6   BANK7   BANK8   BANK9  BANK10  BANK1
      +1  BANK12  BANK13  BANK14  BANK15
  1933 ;;      Params:         0       0       0       0       0       0       0       0       0       0       0       0       
      +0       0       0       0       0
  1934 ;;      Locals:         0       0       0       0       0       0       0       0       0       0       0       0       
      +0       0       0       0       0
  1935 ;;      Temps:          0       0       0       0       0       0       0       0       0       0       0       0       
      +0       0       0       0       0
  1936 ;;      Totals:         0       0       0       0       0       0       0       0       0       0       0       0       
      +0       0       0       0       0
  1937 ;;Total ram usage:        0 bytes
  1938 ;; Hardware stack levels used:    1
  1939 ;; This function calls:
  1940 ;;		Nothing
  1941 ;; This function is called by:
  1942 ;;		_UART2_Initialize
  1943 ;;		_UART2_Read
  1944 ;; This function uses a non-reentrant model
  1945 ;;
  1946                           
  1947                           	psect	text12
  1948  0018D4                     __ptext12:
  1949                           	callstack 0
  1950  0018D4                     _UART2_DefaultErrorHandler:
  1951                           	callstack 29
  1952  0018D4  0012               	return		;funcret
  1953  0018D6                     __end_of_UART2_DefaultErrorHandler:
  1954                           	callstack 0
  1955                           
  1956 ;; *************** function _SYSTEM_Initialize *****************
  1957 ;; Defined at:
  1958 ;;		line 50 in file "mcc_generated_files/mcc.c"
  1959 ;; Parameters:    Size  Location     Type
  1960 ;;		None
  1961 ;; Auto vars:     Size  Location     Type
  1962 ;;		None
  1963 ;; Return value:  Size  Location     Type
  1964 ;;                  1    wreg      void 
  1965 ;; Registers used:
  1966 ;;		wreg, status,2, status,0, cstack
  1967 ;; Tracked objects:
  1968 ;;		On entry : 0/0
  1969 ;;		On exit  : 0/0
  1970 ;;		Unchanged: 0/0
  1971 ;; Data sizes:     COMRAM   BANK0   BANK1   BANK2   BANK3   BANK4   BANK5   BANK6   BANK7   BANK8   BANK9  BANK10  BANK1
      +1  BANK12  BANK13  BANK14  BANK15
  1972 ;;      Params:         0       0       0       0       0       0       0       0       0       0       0       0       
      +0       0       0       0       0
  1973 ;;      Locals:         0       0       0       0       0       0       0       0       0       0       0       0       
      +0       0       0       0       0
  1974 ;;      Temps:          0       0       0       0       0       0       0       0       0       0       0       0       
      +0       0       0       0       0
  1975 ;;      Totals:         0       0       0       0       0       0       0       0       0       0       0       0       
      +0       0       0       0       0
  1976 ;;Total ram usage:        0 bytes
  1977 ;; Hardware stack levels used:    1
  1978 ;; Hardware stack levels required when called:    2
  1979 ;; This function calls:
  1980 ;;		_OSCILLATOR_Initialize
  1981 ;;		_PIN_MANAGER_Initialize
  1982 ;;		_PMD_Initialize
  1983 ;;		_TMR0_Initialize
  1984 ;;		_UART2_Initialize
  1985 ;; This function is called by:
  1986 ;;		_main
  1987 ;; This function uses a non-reentrant model
  1988 ;;
  1989                           
  1990                           	psect	text13
  1991  001872                     __ptext13:
  1992                           	callstack 0
  1993  001872                     _SYSTEM_Initialize:
  1994                           	callstack 28
  1995  001872                     
  1996                           ;mcc.c: 52: PMD_Initialize();
  1997  001872  EC03  F00C         	call	_PMD_Initialize	;wreg free
  1998                           
  1999                           ;mcc.c: 53: PIN_MANAGER_Initialize();
  2000  001876  EC3E  F00A         	call	_PIN_MANAGER_Initialize	;wreg free
  2001                           
  2002                           ;mcc.c: 54: OSCILLATOR_Initialize();
  2003  00187A  EC22  F00C         	call	_OSCILLATOR_Initialize	;wreg free
  2004                           
  2005                           ;mcc.c: 55: TMR0_Initialize();
  2006  00187E  EC44  F00C         	call	_TMR0_Initialize	;wreg free
  2007  001882                     
  2008                           ;mcc.c: 56: UART2_Initialize();
  2009  001882  ECBE  F00B         	call	_UART2_Initialize	;wreg free
  2010  001886  0012               	return		;funcret
  2011  001888                     __end_of_SYSTEM_Initialize:
  2012                           	callstack 0
  2013                           
  2014 ;; *************** function _UART2_Initialize *****************
  2015 ;; Defined at:
  2016 ;;		line 66 in file "mcc_generated_files/uart2.c"
  2017 ;; Parameters:    Size  Location     Type
  2018 ;;		None
  2019 ;; Auto vars:     Size  Location     Type
  2020 ;;		None
  2021 ;; Return value:  Size  Location     Type
  2022 ;;                  1    wreg      void 
  2023 ;; Registers used:
  2024 ;;		wreg, status,2, status,0, cstack
  2025 ;; Tracked objects:
  2026 ;;		On entry : 0/0
  2027 ;;		On exit  : 0/0
  2028 ;;		Unchanged: 0/0
  2029 ;; Data sizes:     COMRAM   BANK0   BANK1   BANK2   BANK3   BANK4   BANK5   BANK6   BANK7   BANK8   BANK9  BANK10  BANK1
      +1  BANK12  BANK13  BANK14  BANK15
  2030 ;;      Params:         0       0       0       0       0       0       0       0       0       0       0       0       
      +0       0       0       0       0
  2031 ;;      Locals:         0       0       0       0       0       0       0       0       0       0       0       0       
      +0       0       0       0       0
  2032 ;;      Temps:          0       0       0       0       0       0       0       0       0       0       0       0       
      +0       0       0       0       0
  2033 ;;      Totals:         0       0       0       0       0       0       0       0       0       0       0       0       
      +0       0       0       0       0
  2034 ;;Total ram usage:        0 bytes
  2035 ;; Hardware stack levels used:    1
  2036 ;; Hardware stack levels required when called:    1
  2037 ;; This function calls:
  2038 ;;		_UART2_SetErrorHandler
  2039 ;;		_UART2_SetFramingErrorHandler
  2040 ;;		_UART2_SetOverrunErrorHandler
  2041 ;; This function is called by:
  2042 ;;		_SYSTEM_Initialize
  2043 ;; This function uses a non-reentrant model
  2044 ;;
  2045                           
  2046                           	psect	text14
  2047  00177C                     __ptext14:
  2048                           	callstack 0
  2049  00177C                     _UART2_Initialize:
  2050                           	callstack 28
  2051  00177C                     
  2052                           ;uart2.c: 73: U2P1L = 0x00;
  2053  00177C  0E00               	movlw	0
  2054  00177E  013D               	movlb	61	; () banked
  2055  001780  6FD4               	movwf	212,b	;volatile
  2056                           
  2057                           ;uart2.c: 76: U2P2L = 0x00;
  2058  001782  0E00               	movlw	0
  2059  001784  6FD6               	movwf	214,b	;volatile
  2060                           
  2061                           ;uart2.c: 79: U2P3L = 0x00;
  2062  001786  0E00               	movlw	0
  2063  001788  6FD8               	movwf	216,b	;volatile
  2064                           
  2065                           ;uart2.c: 82: U2CON0 = 0xB0;
  2066  00178A  0EB0               	movlw	176
  2067  00178C  6FDA               	movwf	218,b	;volatile
  2068                           
  2069                           ;uart2.c: 85: U2CON1 = 0x80;
  2070  00178E  0E80               	movlw	128
  2071  001790  6FDB               	movwf	219,b	;volatile
  2072                           
  2073                           ;uart2.c: 88: U2CON2 = 0x00;
  2074  001792  0E00               	movlw	0
  2075  001794  6FDC               	movwf	220,b	;volatile
  2076                           
  2077                           ;uart2.c: 91: U2BRGL = 0xCF;
  2078  001796  0ECF               	movlw	207
  2079  001798  6FDD               	movwf	221,b	;volatile
  2080                           
  2081                           ;uart2.c: 94: U2BRGH = 0x00;
  2082  00179A  0E00               	movlw	0
  2083  00179C  6FDE               	movwf	222,b	;volatile
  2084                           
  2085                           ;uart2.c: 97: U2FIFO = 0x00;
  2086  00179E  0E00               	movlw	0
  2087  0017A0  6FDF               	movwf	223,b	;volatile
  2088                           
  2089                           ;uart2.c: 100: U2UIR = 0x00;
  2090  0017A2  0E00               	movlw	0
  2091  0017A4  6FE0               	movwf	224,b	;volatile
  2092                           
  2093                           ;uart2.c: 103: U2ERRIR = 0x00;
  2094  0017A6  0E00               	movlw	0
  2095  0017A8  6FE1               	movwf	225,b	;volatile
  2096                           
  2097                           ;uart2.c: 106: U2ERRIE = 0x00;
  2098  0017AA  0E00               	movlw	0
  2099  0017AC  6FE2               	movwf	226,b	;volatile
  2100  0017AE                     
  2101                           ; BSR set to: 61
  2102                           ;uart2.c: 109: UART2_SetFramingErrorHandler(UART2_DefaultFramingErrorHandler);
  2103  0017AE  0ED2               	movlw	low _UART2_DefaultFramingErrorHandler
  2104  0017B0  6E01               	movwf	UART2_SetFramingErrorHandler@interruptHandler^0,c
  2105  0017B2  0E18               	movlw	high _UART2_DefaultFramingErrorHandler
  2106  0017B4  6E02               	movwf	(UART2_SetFramingErrorHandler@interruptHandler+1)^0,c
  2107  0017B6  EC5E  F00C         	call	_UART2_SetFramingErrorHandler	;wreg free
  2108  0017BA                     
  2109                           ;uart2.c: 110: UART2_SetOverrunErrorHandler(UART2_DefaultOverrunErrorHandler);
  2110  0017BA  0ED0               	movlw	low _UART2_DefaultOverrunErrorHandler
  2111  0017BC  6E01               	movwf	UART2_SetOverrunErrorHandler@interruptHandler^0,c
  2112  0017BE  0E18               	movlw	high _UART2_DefaultOverrunErrorHandler
  2113  0017C0  6E02               	movwf	(UART2_SetOverrunErrorHandler@interruptHandler+1)^0,c
  2114  0017C2  EC59  F00C         	call	_UART2_SetOverrunErrorHandler	;wreg free
  2115  0017C6                     
  2116                           ;uart2.c: 111: UART2_SetErrorHandler(UART2_DefaultErrorHandler);
  2117  0017C6  0ED4               	movlw	low _UART2_DefaultErrorHandler
  2118  0017C8  6E01               	movwf	UART2_SetErrorHandler@interruptHandler^0,c
  2119  0017CA  0E18               	movlw	high _UART2_DefaultErrorHandler
  2120  0017CC  6E02               	movwf	(UART2_SetErrorHandler@interruptHandler+1)^0,c
  2121  0017CE  EC63  F00C         	call	_UART2_SetErrorHandler	;wreg free
  2122  0017D2                     
  2123                           ;uart2.c: 113: uart2RxLastError.status = 0;
  2124  0017D2  0E00               	movlw	0
  2125  0017D4  6E2E               	movwf	_uart2RxLastError^0,c	;volatile
  2126  0017D6  0012               	return		;funcret
  2127  0017D8                     __end_of_UART2_Initialize:
  2128                           	callstack 0
  2129                           
  2130 ;; *************** function _UART2_SetOverrunErrorHandler *****************
  2131 ;; Defined at:
  2132 ;;		line 195 in file "mcc_generated_files/uart2.c"
  2133 ;; Parameters:    Size  Location     Type
  2134 ;;  interruptHan    2    0[COMRAM] PTR FTN()void 
  2135 ;;		 -> UART2_DefaultOverrunErrorHandler(1), 
  2136 ;; Auto vars:     Size  Location     Type
  2137 ;;		None
  2138 ;; Return value:  Size  Location     Type
  2139 ;;                  1    wreg      void 
  2140 ;; Registers used:
  2141 ;;		wreg, status,2, status,0
  2142 ;; Tracked objects:
  2143 ;;		On entry : 0/0
  2144 ;;		On exit  : 0/0
  2145 ;;		Unchanged: 0/0
  2146 ;; Data sizes:     COMRAM   BANK0   BANK1   BANK2   BANK3   BANK4   BANK5   BANK6   BANK7   BANK8   BANK9  BANK10  BANK1
      +1  BANK12  BANK13  BANK14  BANK15
  2147 ;;      Params:         2       0       0       0       0       0       0       0       0       0       0       0       
      +0       0       0       0       0
  2148 ;;      Locals:         0       0       0       0       0       0       0       0       0       0       0       0       
      +0       0       0       0       0
  2149 ;;      Temps:          0       0       0       0       0       0       0       0       0       0       0       0       
      +0       0       0       0       0
  2150 ;;      Totals:         2       0       0       0       0       0       0       0       0       0       0       0       
      +0       0       0       0       0
  2151 ;;Total ram usage:        2 bytes
  2152 ;; Hardware stack levels used:    1
  2153 ;; This function calls:
  2154 ;;		Nothing
  2155 ;; This function is called by:
  2156 ;;		_UART2_Initialize
  2157 ;; This function uses a non-reentrant model
  2158 ;;
  2159                           
  2160                           	psect	text15
  2161  0018B2                     __ptext15:
  2162                           	callstack 0
  2163  0018B2                     _UART2_SetOverrunErrorHandler:
  2164                           	callstack 28
  2165  0018B2                     
  2166                           ;uart2.c: 196: UART2_OverrunErrorHandler = interruptHandler;
  2167  0018B2  C001  F028         	movff	UART2_SetOverrunErrorHandler@interruptHandler,_UART2_OverrunErrorHandler
  2168  0018B6  C002  F029         	movff	UART2_SetOverrunErrorHandler@interruptHandler+1,_UART2_OverrunErrorHandler+1
  2169  0018BA  0012               	return		;funcret
  2170  0018BC                     __end_of_UART2_SetOverrunErrorHandler:
  2171                           	callstack 0
  2172                           
  2173 ;; *************** function _UART2_SetFramingErrorHandler *****************
  2174 ;; Defined at:
  2175 ;;		line 191 in file "mcc_generated_files/uart2.c"
  2176 ;; Parameters:    Size  Location     Type
  2177 ;;  interruptHan    2    0[COMRAM] PTR FTN()void 
  2178 ;;		 -> UART2_DefaultFramingErrorHandler(1), 
  2179 ;; Auto vars:     Size  Location     Type
  2180 ;;		None
  2181 ;; Return value:  Size  Location     Type
  2182 ;;                  1    wreg      void 
  2183 ;; Registers used:
  2184 ;;		wreg, status,2, status,0
  2185 ;; Tracked objects:
  2186 ;;		On entry : 0/0
  2187 ;;		On exit  : 0/0
  2188 ;;		Unchanged: 0/0
  2189 ;; Data sizes:     COMRAM   BANK0   BANK1   BANK2   BANK3   BANK4   BANK5   BANK6   BANK7   BANK8   BANK9  BANK10  BANK1
      +1  BANK12  BANK13  BANK14  BANK15
  2190 ;;      Params:         2       0       0       0       0       0       0       0       0       0       0       0       
      +0       0       0       0       0
  2191 ;;      Locals:         0       0       0       0       0       0       0       0       0       0       0       0       
      +0       0       0       0       0
  2192 ;;      Temps:          0       0       0       0       0       0       0       0       0       0       0       0       
      +0       0       0       0       0
  2193 ;;      Totals:         2       0       0       0       0       0       0       0       0       0       0       0       
      +0       0       0       0       0
  2194 ;;Total ram usage:        2 bytes
  2195 ;; Hardware stack levels used:    1
  2196 ;; This function calls:
  2197 ;;		Nothing
  2198 ;; This function is called by:
  2199 ;;		_UART2_Initialize
  2200 ;; This function uses a non-reentrant model
  2201 ;;
  2202                           
  2203                           	psect	text16
  2204  0018BC                     __ptext16:
  2205                           	callstack 0
  2206  0018BC                     _UART2_SetFramingErrorHandler:
  2207                           	callstack 28
  2208  0018BC                     
  2209                           ;uart2.c: 192: UART2_FramingErrorHandler = interruptHandler;
  2210  0018BC  C001  F02A         	movff	UART2_SetFramingErrorHandler@interruptHandler,_UART2_FramingErrorHandler
  2211  0018C0  C002  F02B         	movff	UART2_SetFramingErrorHandler@interruptHandler+1,_UART2_FramingErrorHandler+1
  2212  0018C4  0012               	return		;funcret
  2213  0018C6                     __end_of_UART2_SetFramingErrorHandler:
  2214                           	callstack 0
  2215                           
  2216 ;; *************** function _UART2_SetErrorHandler *****************
  2217 ;; Defined at:
  2218 ;;		line 199 in file "mcc_generated_files/uart2.c"
  2219 ;; Parameters:    Size  Location     Type
  2220 ;;  interruptHan    2    0[COMRAM] PTR FTN()void 
  2221 ;;		 -> UART2_DefaultErrorHandler(1), 
  2222 ;; Auto vars:     Size  Location     Type
  2223 ;;		None
  2224 ;; Return value:  Size  Location     Type
  2225 ;;                  1    wreg      void 
  2226 ;; Registers used:
  2227 ;;		wreg, status,2, status,0
  2228 ;; Tracked objects:
  2229 ;;		On entry : 0/0
  2230 ;;		On exit  : 0/0
  2231 ;;		Unchanged: 0/0
  2232 ;; Data sizes:     COMRAM   BANK0   BANK1   BANK2   BANK3   BANK4   BANK5   BANK6   BANK7   BANK8   BANK9  BANK10  BANK1
      +1  BANK12  BANK13  BANK14  BANK15
  2233 ;;      Params:         2       0       0       0       0       0       0       0       0       0       0       0       
      +0       0       0       0       0
  2234 ;;      Locals:         0       0       0       0       0       0       0       0       0       0       0       0       
      +0       0       0       0       0
  2235 ;;      Temps:          0       0       0       0       0       0       0       0       0       0       0       0       
      +0       0       0       0       0
  2236 ;;      Totals:         2       0       0       0       0       0       0       0       0       0       0       0       
      +0       0       0       0       0
  2237 ;;Total ram usage:        2 bytes
  2238 ;; Hardware stack levels used:    1
  2239 ;; This function calls:
  2240 ;;		Nothing
  2241 ;; This function is called by:
  2242 ;;		_UART2_Initialize
  2243 ;; This function uses a non-reentrant model
  2244 ;;
  2245                           
  2246                           	psect	text17
  2247  0018C6                     __ptext17:
  2248                           	callstack 0
  2249  0018C6                     _UART2_SetErrorHandler:
  2250                           	callstack 28
  2251  0018C6                     
  2252                           ;uart2.c: 200: UART2_ErrorHandler = interruptHandler;
  2253  0018C6  C001  F026         	movff	UART2_SetErrorHandler@interruptHandler,_UART2_ErrorHandler
  2254  0018CA  C002  F027         	movff	UART2_SetErrorHandler@interruptHandler+1,_UART2_ErrorHandler+1
  2255  0018CE  0012               	return		;funcret
  2256  0018D0                     __end_of_UART2_SetErrorHandler:
  2257                           	callstack 0
  2258                           
  2259 ;; *************** function _TMR0_Initialize *****************
  2260 ;; Defined at:
  2261 ;;		line 60 in file "mcc_generated_files/tmr0.c"
  2262 ;; Parameters:    Size  Location     Type
  2263 ;;		None
  2264 ;; Auto vars:     Size  Location     Type
  2265 ;;		None
  2266 ;; Return value:  Size  Location     Type
  2267 ;;                  1    wreg      void 
  2268 ;; Registers used:
  2269 ;;		wreg, status,2
  2270 ;; Tracked objects:
  2271 ;;		On entry : 0/0
  2272 ;;		On exit  : 0/0
  2273 ;;		Unchanged: 0/0
  2274 ;; Data sizes:     COMRAM   BANK0   BANK1   BANK2   BANK3   BANK4   BANK5   BANK6   BANK7   BANK8   BANK9  BANK10  BANK1
      +1  BANK12  BANK13  BANK14  BANK15
  2275 ;;      Params:         0       0       0       0       0       0       0       0       0       0       0       0       
      +0       0       0       0       0
  2276 ;;      Locals:         0       0       0       0       0       0       0       0       0       0       0       0       
      +0       0       0       0       0
  2277 ;;      Temps:          0       0       0       0       0       0       0       0       0       0       0       0       
      +0       0       0       0       0
  2278 ;;      Totals:         0       0       0       0       0       0       0       0       0       0       0       0       
      +0       0       0       0       0
  2279 ;;Total ram usage:        0 bytes
  2280 ;; Hardware stack levels used:    1
  2281 ;; This function calls:
  2282 ;;		Nothing
  2283 ;; This function is called by:
  2284 ;;		_SYSTEM_Initialize
  2285 ;; This function uses a non-reentrant model
  2286 ;;
  2287                           
  2288                           	psect	text18
  2289  001888                     __ptext18:
  2290                           	callstack 0
  2291  001888                     _TMR0_Initialize:
  2292                           	callstack 29
  2293  001888                     
  2294                           ;tmr0.c: 65: T0CON1 = 0x00;
  2295  001888  0E00               	movlw	0
  2296  00188A  6EB9               	movwf	185,c	;volatile
  2297  00188C                     
  2298                           ;tmr0.c: 68: TMR0H = 0xFF;
  2299  00188C  68B7               	setf	183,c	;volatile
  2300                           
  2301                           ;tmr0.c: 71: TMR0L = 0x00;
  2302  00188E  0E00               	movlw	0
  2303  001890  6EB6               	movwf	182,c	;volatile
  2304  001892                     
  2305                           ;tmr0.c: 74: PIR3bits.TMR0IF = 0;
  2306  001892  0139               	movlb	57	; () banked
  2307  001894  9FA3               	bcf	163,7,b	;volatile
  2308                           
  2309                           ;tmr0.c: 77: T0CON0 = 0x80;
  2310  001896  0E80               	movlw	128
  2311  001898  6EB8               	movwf	184,c	;volatile
  2312  00189A                     
  2313                           ; BSR set to: 57
  2314  00189A  0012               	return		;funcret
  2315  00189C                     __end_of_TMR0_Initialize:
  2316                           	callstack 0
  2317                           
  2318 ;; *************** function _PMD_Initialize *****************
  2319 ;; Defined at:
  2320 ;;		line 73 in file "mcc_generated_files/mcc.c"
  2321 ;; Parameters:    Size  Location     Type
  2322 ;;		None
  2323 ;; Auto vars:     Size  Location     Type
  2324 ;;		None
  2325 ;; Return value:  Size  Location     Type
  2326 ;;                  1    wreg      void 
  2327 ;; Registers used:
  2328 ;;		wreg, status,2
  2329 ;; Tracked objects:
  2330 ;;		On entry : 0/0
  2331 ;;		On exit  : 0/0
  2332 ;;		Unchanged: 0/0
  2333 ;; Data sizes:     COMRAM   BANK0   BANK1   BANK2   BANK3   BANK4   BANK5   BANK6   BANK7   BANK8   BANK9  BANK10  BANK1
      +1  BANK12  BANK13  BANK14  BANK15
  2334 ;;      Params:         0       0       0       0       0       0       0       0       0       0       0       0       
      +0       0       0       0       0
  2335 ;;      Locals:         0       0       0       0       0       0       0       0       0       0       0       0       
      +0       0       0       0       0
  2336 ;;      Temps:          0       0       0       0       0       0       0       0       0       0       0       0       
      +0       0       0       0       0
  2337 ;;      Totals:         0       0       0       0       0       0       0       0       0       0       0       0       
      +0       0       0       0       0
  2338 ;;Total ram usage:        0 bytes
  2339 ;; Hardware stack levels used:    1
  2340 ;; This function calls:
  2341 ;;		Nothing
  2342 ;; This function is called by:
  2343 ;;		_SYSTEM_Initialize
  2344 ;; This function uses a non-reentrant model
  2345 ;;
  2346                           
  2347                           	psect	text19
  2348  001806                     __ptext19:
  2349                           	callstack 0
  2350  001806                     _PMD_Initialize:
  2351                           	callstack 29
  2352  001806                     
  2353                           ;mcc.c: 76: PMD0 = 0x00;
  2354  001806  0E00               	movlw	0
  2355  001808  0139               	movlb	57	; () banked
  2356  00180A  6FC0               	movwf	192,b	;volatile
  2357                           
  2358                           ;mcc.c: 78: PMD1 = 0x00;
  2359  00180C  0E00               	movlw	0
  2360  00180E  6FC1               	movwf	193,b	;volatile
  2361                           
  2362                           ;mcc.c: 80: PMD2 = 0x00;
  2363  001810  0E00               	movlw	0
  2364  001812  6FC2               	movwf	194,b	;volatile
  2365                           
  2366                           ;mcc.c: 82: PMD3 = 0x00;
  2367  001814  0E00               	movlw	0
  2368  001816  6FC3               	movwf	195,b	;volatile
  2369                           
  2370                           ;mcc.c: 84: PMD4 = 0x00;
  2371  001818  0E00               	movlw	0
  2372  00181A  6FC4               	movwf	196,b	;volatile
  2373                           
  2374                           ;mcc.c: 86: PMD5 = 0x00;
  2375  00181C  0E00               	movlw	0
  2376  00181E  6FC5               	movwf	197,b	;volatile
  2377                           
  2378                           ;mcc.c: 88: PMD6 = 0x00;
  2379  001820  0E00               	movlw	0
  2380  001822  6FC6               	movwf	198,b	;volatile
  2381                           
  2382                           ;mcc.c: 90: PMD7 = 0x00;
  2383  001824  0E00               	movlw	0
  2384  001826  6FC7               	movwf	199,b	;volatile
  2385  001828                     
  2386                           ; BSR set to: 57
  2387  001828  0012               	return		;funcret
  2388  00182A                     __end_of_PMD_Initialize:
  2389                           	callstack 0
  2390                           
  2391 ;; *************** function _PIN_MANAGER_Initialize *****************
  2392 ;; Defined at:
  2393 ;;		line 55 in file "mcc_generated_files/pin_manager.c"
  2394 ;; Parameters:    Size  Location     Type
  2395 ;;		None
  2396 ;; Auto vars:     Size  Location     Type
  2397 ;;		None
  2398 ;; Return value:  Size  Location     Type
  2399 ;;                  1    wreg      void 
  2400 ;; Registers used:
  2401 ;;		wreg, status,2
  2402 ;; Tracked objects:
  2403 ;;		On entry : 0/0
  2404 ;;		On exit  : 0/0
  2405 ;;		Unchanged: 0/0
  2406 ;; Data sizes:     COMRAM   BANK0   BANK1   BANK2   BANK3   BANK4   BANK5   BANK6   BANK7   BANK8   BANK9  BANK10  BANK1
      +1  BANK12  BANK13  BANK14  BANK15
  2407 ;;      Params:         0       0       0       0       0       0       0       0       0       0       0       0       
      +0       0       0       0       0
  2408 ;;      Locals:         0       0       0       0       0       0       0       0       0       0       0       0       
      +0       0       0       0       0
  2409 ;;      Temps:          0       0       0       0       0       0       0       0       0       0       0       0       
      +0       0       0       0       0
  2410 ;;      Totals:         0       0       0       0       0       0       0       0       0       0       0       0       
      +0       0       0       0       0
  2411 ;;Total ram usage:        0 bytes
  2412 ;; Hardware stack levels used:    1
  2413 ;; This function calls:
  2414 ;;		Nothing
  2415 ;; This function is called by:
  2416 ;;		_SYSTEM_Initialize
  2417 ;; This function uses a non-reentrant model
  2418 ;;
  2419                           
  2420                           	psect	text20
  2421  00147C                     __ptext20:
  2422                           	callstack 0
  2423  00147C                     _PIN_MANAGER_Initialize:
  2424                           	callstack 29
  2425  00147C                     
  2426                           ;pin_manager.c: 60: LATE = 0x00;
  2427  00147C  0E00               	movlw	0
  2428  00147E  6EBE               	movwf	190,c	;volatile
  2429                           
  2430                           ;pin_manager.c: 61: LATD = 0x00;
  2431  001480  0E00               	movlw	0
  2432  001482  6EBD               	movwf	189,c	;volatile
  2433                           
  2434                           ;pin_manager.c: 62: LATA = 0x00;
  2435  001484  0E00               	movlw	0
  2436  001486  6EBA               	movwf	186,c	;volatile
  2437                           
  2438                           ;pin_manager.c: 63: LATB = 0x00;
  2439  001488  0E00               	movlw	0
  2440  00148A  6EBB               	movwf	187,c	;volatile
  2441                           
  2442                           ;pin_manager.c: 64: LATC = 0x00;
  2443  00148C  0E00               	movlw	0
  2444  00148E  6EBC               	movwf	188,c	;volatile
  2445                           
  2446                           ;pin_manager.c: 69: TRISE = 0x07;
  2447  001490  0E07               	movlw	7
  2448  001492  6EC6               	movwf	198,c	;volatile
  2449  001494                     
  2450                           ;pin_manager.c: 70: TRISA = 0xFF;
  2451  001494  68C2               	setf	194,c	;volatile
  2452                           
  2453                           ;pin_manager.c: 71: TRISB = 0xBF;
  2454  001496  0EBF               	movlw	191
  2455  001498  6EC3               	movwf	195,c	;volatile
  2456  00149A                     
  2457                           ;pin_manager.c: 72: TRISC = 0xFF;
  2458  00149A  68C4               	setf	196,c	;volatile
  2459                           
  2460                           ;pin_manager.c: 73: TRISD = 0xF0;
  2461  00149C  0EF0               	movlw	240
  2462  00149E  6EC5               	movwf	197,c	;volatile
  2463                           
  2464                           ;pin_manager.c: 78: ANSELD = 0xF0;
  2465  0014A0  0EF0               	movlw	240
  2466  0014A2  013A               	movlb	58	; () banked
  2467  0014A4  6F70               	movwf	112,b	;volatile
  2468  0014A6                     
  2469                           ; BSR set to: 58
  2470                           ;pin_manager.c: 79: ANSELC = 0xFF;
  2471  0014A6  6960               	setf	96,b	;volatile
  2472                           
  2473                           ;pin_manager.c: 80: ANSELB = 0x3F;
  2474  0014A8  0E3F               	movlw	63
  2475  0014AA  6F50               	movwf	80,b	;volatile
  2476                           
  2477                           ;pin_manager.c: 81: ANSELE = 0x07;
  2478  0014AC  0E07               	movlw	7
  2479  0014AE  6F80               	movwf	128,b	;volatile
  2480                           
  2481                           ;pin_manager.c: 82: ANSELA = 0xEF;
  2482  0014B0  0EEF               	movlw	239
  2483  0014B2  6F40               	movwf	64,b	;volatile
  2484                           
  2485                           ;pin_manager.c: 87: WPUD = 0x00;
  2486  0014B4  0E00               	movlw	0
  2487  0014B6  6F71               	movwf	113,b	;volatile
  2488                           
  2489                           ;pin_manager.c: 88: WPUE = 0x00;
  2490  0014B8  0E00               	movlw	0
  2491  0014BA  6F81               	movwf	129,b	;volatile
  2492                           
  2493                           ;pin_manager.c: 89: WPUB = 0x00;
  2494  0014BC  0E00               	movlw	0
  2495  0014BE  6F51               	movwf	81,b	;volatile
  2496                           
  2497                           ;pin_manager.c: 90: WPUA = 0x00;
  2498  0014C0  0E00               	movlw	0
  2499  0014C2  6F41               	movwf	65,b	;volatile
  2500                           
  2501                           ;pin_manager.c: 91: WPUC = 0x00;
  2502  0014C4  0E00               	movlw	0
  2503  0014C6  6F61               	movwf	97,b	;volatile
  2504                           
  2505                           ;pin_manager.c: 96: RB1I2C = 0x00;
  2506  0014C8  0E00               	movlw	0
  2507  0014CA  6F5A               	movwf	90,b	;volatile
  2508                           
  2509                           ;pin_manager.c: 97: RB2I2C = 0x00;
  2510  0014CC  0E00               	movlw	0
  2511  0014CE  6F5B               	movwf	91,b	;volatile
  2512                           
  2513                           ;pin_manager.c: 98: RC3I2C = 0x00;
  2514  0014D0  0E00               	movlw	0
  2515  0014D2  6F6A               	movwf	106,b	;volatile
  2516                           
  2517                           ;pin_manager.c: 99: RC4I2C = 0x00;
  2518  0014D4  0E00               	movlw	0
  2519  0014D6  6F6B               	movwf	107,b	;volatile
  2520                           
  2521                           ;pin_manager.c: 100: RD0I2C = 0x00;
  2522  0014D8  0E00               	movlw	0
  2523  0014DA  6F7A               	movwf	122,b	;volatile
  2524                           
  2525                           ;pin_manager.c: 101: RD1I2C = 0x00;
  2526  0014DC  0E00               	movlw	0
  2527  0014DE  6F7B               	movwf	123,b	;volatile
  2528                           
  2529                           ;pin_manager.c: 106: ODCONE = 0x00;
  2530  0014E0  0E00               	movlw	0
  2531  0014E2  6F82               	movwf	130,b	;volatile
  2532                           
  2533                           ;pin_manager.c: 107: ODCONA = 0x00;
  2534  0014E4  0E00               	movlw	0
  2535  0014E6  6F42               	movwf	66,b	;volatile
  2536                           
  2537                           ;pin_manager.c: 108: ODCONB = 0x00;
  2538  0014E8  0E00               	movlw	0
  2539  0014EA  6F52               	movwf	82,b	;volatile
  2540                           
  2541                           ;pin_manager.c: 109: ODCONC = 0x00;
  2542  0014EC  0E00               	movlw	0
  2543  0014EE  6F62               	movwf	98,b	;volatile
  2544                           
  2545                           ;pin_manager.c: 110: ODCOND = 0x00;
  2546  0014F0  0E00               	movlw	0
  2547  0014F2  6F72               	movwf	114,b	;volatile
  2548  0014F4                     
  2549                           ; BSR set to: 58
  2550                           ;pin_manager.c: 115: SLRCONA = 0xFF;
  2551  0014F4  6943               	setf	67,b	;volatile
  2552  0014F6                     
  2553                           ; BSR set to: 58
  2554                           ;pin_manager.c: 116: SLRCONB = 0xFF;
  2555  0014F6  6953               	setf	83,b	;volatile
  2556  0014F8                     
  2557                           ; BSR set to: 58
  2558                           ;pin_manager.c: 117: SLRCONC = 0xFF;
  2559  0014F8  6963               	setf	99,b	;volatile
  2560  0014FA                     
  2561                           ; BSR set to: 58
  2562                           ;pin_manager.c: 118: SLRCOND = 0xFF;
  2563  0014FA  6973               	setf	115,b	;volatile
  2564                           
  2565                           ;pin_manager.c: 119: SLRCONE = 0x07;
  2566  0014FC  0E07               	movlw	7
  2567  0014FE  6F83               	movwf	131,b	;volatile
  2568  001500                     
  2569                           ; BSR set to: 58
  2570                           ;pin_manager.c: 124: INLVLA = 0xFF;
  2571  001500  6944               	setf	68,b	;volatile
  2572  001502                     
  2573                           ; BSR set to: 58
  2574                           ;pin_manager.c: 125: INLVLB = 0xFF;
  2575  001502  6954               	setf	84,b	;volatile
  2576  001504                     
  2577                           ; BSR set to: 58
  2578                           ;pin_manager.c: 126: INLVLC = 0xFF;
  2579  001504  6964               	setf	100,b	;volatile
  2580  001506                     
  2581                           ; BSR set to: 58
  2582                           ;pin_manager.c: 127: INLVLD = 0xFF;
  2583  001506  6974               	setf	116,b	;volatile
  2584                           
  2585                           ;pin_manager.c: 128: INLVLE = 0x0F;
  2586  001508  0E0F               	movlw	15
  2587  00150A  6F84               	movwf	132,b	;volatile
  2588                           
  2589                           ;pin_manager.c: 137: U2RXPPS = 0x0F;
  2590  00150C  0E0F               	movlw	15
  2591  00150E  6FE8               	movwf	232,b	;volatile
  2592                           
  2593                           ;pin_manager.c: 138: RB6PPS = 0x16;
  2594  001510  0E16               	movlw	22
  2595  001512  6F0E               	movwf	14,b	;volatile
  2596  001514                     
  2597                           ; BSR set to: 58
  2598  001514  0012               	return		;funcret
  2599  001516                     __end_of_PIN_MANAGER_Initialize:
  2600                           	callstack 0
  2601                           
  2602 ;; *************** function _OSCILLATOR_Initialize *****************
  2603 ;; Defined at:
  2604 ;;		line 59 in file "mcc_generated_files/mcc.c"
  2605 ;; Parameters:    Size  Location     Type
  2606 ;;		None
  2607 ;; Auto vars:     Size  Location     Type
  2608 ;;		None
  2609 ;; Return value:  Size  Location     Type
  2610 ;;                  1    wreg      void 
  2611 ;; Registers used:
  2612 ;;		wreg, status,2
  2613 ;; Tracked objects:
  2614 ;;		On entry : 0/0
  2615 ;;		On exit  : 0/0
  2616 ;;		Unchanged: 0/0
  2617 ;; Data sizes:     COMRAM   BANK0   BANK1   BANK2   BANK3   BANK4   BANK5   BANK6   BANK7   BANK8   BANK9  BANK10  BANK1
      +1  BANK12  BANK13  BANK14  BANK15
  2618 ;;      Params:         0       0       0       0       0       0       0       0       0       0       0       0       
      +0       0       0       0       0
  2619 ;;      Locals:         0       0       0       0       0       0       0       0       0       0       0       0       
      +0       0       0       0       0
  2620 ;;      Temps:          0       0       0       0       0       0       0       0       0       0       0       0       
      +0       0       0       0       0
  2621 ;;      Totals:         0       0       0       0       0       0       0       0       0       0       0       0       
      +0       0       0       0       0
  2622 ;;Total ram usage:        0 bytes
  2623 ;; Hardware stack levels used:    1
  2624 ;; This function calls:
  2625 ;;		Nothing
  2626 ;; This function is called by:
  2627 ;;		_SYSTEM_Initialize
  2628 ;; This function uses a non-reentrant model
  2629 ;;
  2630                           
  2631                           	psect	text21
  2632  001844                     __ptext21:
  2633                           	callstack 0
  2634  001844                     _OSCILLATOR_Initialize:
  2635                           	callstack 29
  2636  001844                     
  2637                           ;mcc.c: 62: OSCCON1 = 0x62;
  2638  001844  0E62               	movlw	98
  2639  001846  0139               	movlb	57	; () banked
  2640  001848  6FD9               	movwf	217,b	;volatile
  2641                           
  2642                           ;mcc.c: 64: OSCCON3 = 0x00;
  2643  00184A  0E00               	movlw	0
  2644  00184C  6FDB               	movwf	219,b	;volatile
  2645                           
  2646                           ;mcc.c: 66: OSCEN = 0x00;
  2647  00184E  0E00               	movlw	0
  2648  001850  6FDD               	movwf	221,b	;volatile
  2649                           
  2650                           ;mcc.c: 68: OSCFRQ = 0x06;
  2651  001852  0E06               	movlw	6
  2652  001854  6FDF               	movwf	223,b	;volatile
  2653                           
  2654                           ;mcc.c: 70: OSCTUNE = 0x00;
  2655  001856  0E00               	movlw	0
  2656  001858  6FDE               	movwf	222,b	;volatile
  2657  00185A                     
  2658                           ; BSR set to: 57
  2659  00185A  0012               	return		;funcret
  2660  00185C                     __end_of_OSCILLATOR_Initialize:
  2661                           	callstack 0
  2662                           
  2663 ;; *************** function _DELAY_milliseconds *****************
  2664 ;; Defined at:
  2665 ;;		line 38 in file "mcc_generated_files/delay.c"
  2666 ;; Parameters:    Size  Location     Type
  2667 ;;  milliseconds    2    0[COMRAM] unsigned int 
  2668 ;; Auto vars:     Size  Location     Type
  2669 ;;		None
  2670 ;; Return value:  Size  Location     Type
  2671 ;;                  1    wreg      void 
  2672 ;; Registers used:
  2673 ;;		wreg, status,2, status,0
  2674 ;; Tracked objects:
  2675 ;;		On entry : 0/0
  2676 ;;		On exit  : 0/0
  2677 ;;		Unchanged: 0/0
  2678 ;; Data sizes:     COMRAM   BANK0   BANK1   BANK2   BANK3   BANK4   BANK5   BANK6   BANK7   BANK8   BANK9  BANK10  BANK1
      +1  BANK12  BANK13  BANK14  BANK15
  2679 ;;      Params:         2       0       0       0       0       0       0       0       0       0       0       0       
      +0       0       0       0       0
  2680 ;;      Locals:         0       0       0       0       0       0       0       0       0       0       0       0       
      +0       0       0       0       0
  2681 ;;      Temps:          1       0       0       0       0       0       0       0       0       0       0       0       
      +0       0       0       0       0
  2682 ;;      Totals:         3       0       0       0       0       0       0       0       0       0       0       0       
      +0       0       0       0       0
  2683 ;;Total ram usage:        3 bytes
  2684 ;; Hardware stack levels used:    1
  2685 ;; This function calls:
  2686 ;;		Nothing
  2687 ;; This function is called by:
  2688 ;;		_main
  2689 ;; This function uses a non-reentrant model
  2690 ;;
  2691                           
  2692                           	psect	text22
  2693  0017D8                     __ptext22:
  2694                           	callstack 0
  2695  0017D8                     _DELAY_milliseconds:
  2696                           	callstack 30
  2697  0017D8                     
  2698                           ;delay.c: 39: while(milliseconds--){
  2699  0017D8  EFF5  F00B         	goto	l1639
  2700  0017DC                     l1637:
  2701                           
  2702                           ;delay.c: 40: _delay((unsigned long)((1)*(8000000/4000.0)));
  2703  0017DC  0E03               	movlw	3
  2704  0017DE  6E03               	movwf	??_DELAY_milliseconds^0,c
  2705  0017E0  0E98               	movlw	152
  2706  0017E2                     u747:
  2707  0017E2  2EE8               	decfsz	wreg,f,c
  2708  0017E4  D7FE               	bra	u747
  2709  0017E6  2E03               	decfsz	??_DELAY_milliseconds^0,f,c
  2710  0017E8  D7FC               	bra	u747
  2711  0017EA                     l1639:
  2712  0017EA  0601               	decf	DELAY_milliseconds@milliseconds^0,f,c
  2713  0017EC  A0D8               	btfss	status,0,c
  2714  0017EE  0602               	decf	(DELAY_milliseconds@milliseconds+1)^0,f,c
  2715  0017F0  2801               	incf	DELAY_milliseconds@milliseconds^0,w,c
  2716  0017F2  E106               	bnz	u591
  2717  0017F4  2802               	incf	(DELAY_milliseconds@milliseconds+1)^0,w,c
  2718  0017F6  A4D8               	btfss	status,2,c
  2719  0017F8  EF00  F00C         	goto	u591
  2720  0017FC  EF02  F00C         	goto	u590
  2721  001800                     u591:
  2722  001800  EFEE  F00B         	goto	l1637
  2723  001804                     u590:
  2724  001804  0012               	return		;funcret
  2725  001806                     __end_of_DELAY_milliseconds:
  2726                           	callstack 0
  2727                           
  2728                           	psect	text23
  2729  000000                     __ptext23:
  2730                           	callstack 0
  2731  000000                     
  2732                           	psect	rparam
  2733  0000                     
  2734                           	psect	idloc
  2735                           
  2736                           ;Config register IDLOC0 @ 0x200000
  2737                           ;	unspecified, using default values
  2738  200000                     	org	2097152
  2739  200000  0FFF               	dw	4095
  2740                           
  2741                           ;Config register IDLOC1 @ 0x200002
  2742                           ;	unspecified, using default values
  2743  200002                     	org	2097154
  2744  200002  0FFF               	dw	4095
  2745                           
  2746                           ;Config register IDLOC2 @ 0x200004
  2747                           ;	unspecified, using default values
  2748  200004                     	org	2097156
  2749  200004  0FFF               	dw	4095
  2750                           
  2751                           ;Config register IDLOC3 @ 0x200006
  2752                           ;	unspecified, using default values
  2753  200006                     	org	2097158
  2754  200006  0FFF               	dw	4095
  2755                           
  2756                           ;Config register IDLOC4 @ 0x200008
  2757                           ;	unspecified, using default values
  2758  200008                     	org	2097160
  2759  200008  0FFF               	dw	4095
  2760                           
  2761                           ;Config register IDLOC5 @ 0x20000A
  2762                           ;	unspecified, using default values
  2763  20000A                     	org	2097162
  2764  20000A  0FFF               	dw	4095
  2765                           
  2766                           ;Config register IDLOC6 @ 0x20000C
  2767                           ;	unspecified, using default values
  2768  20000C                     	org	2097164
  2769  20000C  0FFF               	dw	4095
  2770                           
  2771                           ;Config register IDLOC7 @ 0x20000E
  2772                           ;	unspecified, using default values
  2773  20000E                     	org	2097166
  2774  20000E  0FFF               	dw	4095
  2775                           
  2776                           	psect	config
  2777                           
  2778                           ;Config register CONFIG1L @ 0x300000
  2779                           ;	External Oscillator Selection
  2780                           ;	FEXTOSC = OFF, Oscillator not enabled
  2781                           ;	Reset Oscillator Selection
  2782                           ;	RSTOSC = HFINTOSC_1MHZ, HFINTOSC with HFFRQ = 4 MHz and CDIV = 4:1
  2783  300000                     	org	3145728
  2784  300000  EC                 	db	236
  2785                           
  2786                           ;Config register CONFIG1H @ 0x300001
  2787                           ;	Clock out Enable bit
  2788                           ;	CLKOUTEN = ON, CLKOUT function is enabled
  2789                           ;	PRLOCKED One-Way Set Enable bit
  2790                           ;	PR1WAY = ON, PRLOCK bit can be cleared and set only once
  2791                           ;	Clock Switch Enable bit
  2792                           ;	CSWEN = ON, Writing to NOSC and NDIV is allowed
  2793                           ;	Fail-Safe Clock Monitor Enable bit
  2794                           ;	FCMEN = ON, Fail-Safe Clock Monitor enabled
  2795  300001                     	org	3145729
  2796  300001  FE                 	db	254
  2797                           
  2798                           ;Config register CONFIG2L @ 0x300002
  2799                           ;	MCLR Enable bit
  2800                           ;	MCLRE = EXTMCLR, If LVP = 0, MCLR pin is MCLR; If LVP = 1, RE3 pin function is MCLR
  2801                           ;	Power-up timer selection bits
  2802                           ;	PWRTS = PWRT_OFF, PWRT is disabled
  2803                           ;	Multi-vector enable bit
  2804                           ;	MVECEN = OFF, Interrupt contoller does not use vector table to prioritze interrupts
  2805                           ;	IVTLOCK bit One-way set enable bit
  2806                           ;	IVT1WAY = ON, IVTLOCK bit can be cleared and set only once
  2807                           ;	Low Power BOR Enable bit
  2808                           ;	LPBOREN = OFF, ULPBOR disabled
  2809                           ;	Brown-out Reset Enable bits
  2810                           ;	BOREN = SBORDIS, Brown-out Reset enabled , SBOREN bit is ignored
  2811  300002                     	org	3145730
  2812  300002  F7                 	db	247
  2813                           
  2814                           ;Config register CONFIG2H @ 0x300003
  2815                           ;	Brown-out Reset Voltage Selection bits
  2816                           ;	BORV = VBOR_2P45, Brown-out Reset Voltage (VBOR) set to 2.45V
  2817                           ;	ZCD Disable bit
  2818                           ;	ZCD = OFF, ZCD disabled. ZCD can be enabled by setting the ZCDSEN bit of ZCDCON
  2819                           ;	PPSLOCK bit One-Way Set Enable bit
  2820                           ;	PPS1WAY = ON, PPSLOCK bit can be cleared and set only once; PPS registers remain locke
      +                          d after one clear/set cycle
  2821                           ;	Stack Full/Underflow Reset Enable bit
  2822                           ;	STVREN = ON, Stack full/underflow will cause Reset
  2823                           ;	Debugger Enable bit
  2824                           ;	DEBUG = OFF, Background debugger disabled
  2825                           ;	Extended Instruction Set Enable bit
  2826                           ;	XINST = OFF, Extended Instruction Set and Indexed Addressing Mode disabled
  2827  300003                     	org	3145731
  2828  300003  FF                 	db	255
  2829                           
  2830                           ;Config register CONFIG3L @ 0x300004
  2831                           ;	WDT Period selection bits
  2832                           ;	WDTCPS = WDTCPS_31, Divider ratio 1:65536; software control of WDTPS
  2833                           ;	WDT operating mode
  2834                           ;	WDTE = OFF, WDT Disabled; SWDTEN is ignored
  2835  300004                     	org	3145732
  2836  300004  9F                 	db	159
  2837                           
  2838                           ;Config register CONFIG3H @ 0x300005
  2839                           ;	WDT Window Select bits
  2840                           ;	WDTCWS = WDTCWS_7, window always open (100%); software control; keyed access not requi
      +                          red
  2841                           ;	WDT input clock selector
  2842                           ;	WDTCCS = SC, Software Control
  2843  300005                     	org	3145733
  2844  300005  FF                 	db	255
  2845                           
  2846                           ;Config register CONFIG4L @ 0x300006
  2847                           ;	Boot Block Size selection bits
  2848                           ;	BBSIZE = BBSIZE_512, Boot Block size is 512 words
  2849                           ;	Boot Block enable bit
  2850                           ;	BBEN = OFF, Boot block disabled
  2851                           ;	Storage Area Flash enable bit
  2852                           ;	SAFEN = OFF, SAF disabled
  2853                           ;	Application Block write protection bit
  2854                           ;	WRTAPP = OFF, Application Block not write protected
  2855  300006                     	org	3145734
  2856  300006  FF                 	db	255
  2857                           
  2858                           ;Config register CONFIG4H @ 0x300007
  2859                           ;	Configuration Register Write Protection bit
  2860                           ;	WRTB = OFF, Configuration registers (300000-30000Bh) not write-protected
  2861                           ;	Boot Block Write Protection bit
  2862                           ;	WRTC = OFF, Boot Block (000000-0007FFh) not write-protected
  2863                           ;	Data EEPROM Write Protection bit
  2864                           ;	WRTD = OFF, Data EEPROM not write-protected
  2865                           ;	SAF Write protection bit
  2866                           ;	WRTSAF = OFF, SAF not Write Protected
  2867                           ;	Low Voltage Programming Enable bit
  2868                           ;	LVP = ON, Low voltage programming enabled. MCLR/VPP pin function is MCLR. MCLRE config
      +                          uration bit is ignored
  2869  300007                     	org	3145735
  2870  300007  FF                 	db	255
  2871                           
  2872                           ;Config register CONFIG5L @ 0x300008
  2873                           ;	PFM and Data EEPROM Code Protection bit
  2874                           ;	CP = OFF, PFM and Data EEPROM code protection disabled
  2875  300008                     	org	3145736
  2876  300008  FF                 	db	255
  2877                           
  2878                           ;Config register CONFIG5H @ 0x300009
  2879                           ;	unspecified, using default values
  2880  300009                     	org	3145737
  2881  300009  FF                 	db	255
  2882                           tosu	equ	0x3FFF
  2883                           tosh	equ	0x3FFE
  2884                           tosl	equ	0x3FFD
  2885                           stkptr	equ	0x3FFC
  2886                           pclatu	equ	0x3FFB
  2887                           pclath	equ	0x3FFA
  2888                           pcl	equ	0x3FF9
  2889                           tblptru	equ	0x3FF8
  2890                           tblptrh	equ	0x3FF7
  2891                           tblptrl	equ	0x3FF6
  2892                           tablat	equ	0x3FF5
  2893                           prodh	equ	0x3FF4
  2894                           prodl	equ	0x3FF3
  2895                           indf0	equ	0x3FEF
  2896                           postinc0	equ	0x3FEE
  2897                           postdec0	equ	0x3FED
  2898                           preinc0	equ	0x3FEC
  2899                           plusw0	equ	0x3FEB
  2900                           fsr0h	equ	0x3FEA
  2901                           fsr0l	equ	0x3FE9
  2902                           wreg	equ	0x3FE8
  2903                           indf1	equ	0x3FE7
  2904                           postinc1	equ	0x3FE6
  2905                           postdec1	equ	0x3FE5
  2906                           preinc1	equ	0x3FE4
  2907                           plusw1	equ	0x3FE3
  2908                           fsr1h	equ	0x3FE2
  2909                           fsr1l	equ	0x3FE1
  2910                           bsr	equ	0x3FE0
  2911                           indf2	equ	0x3FDF
  2912                           postinc2	equ	0x3FDE
  2913                           postdec2	equ	0x3FDD
  2914                           preinc2	equ	0x3FDC
  2915                           plusw2	equ	0x3FDB
  2916                           fsr2h	equ	0x3FDA
  2917                           fsr2l	equ	0x3FD9
  2918                           status	equ	0x3FD8

Data Sizes:
    Strings     188
    Constant    10
    Data        0
    BSS         3
    Persistent  6
    Stack       0

Auto Spaces:
    Space          Size  Autos    Used
    COMRAM           95     37      46
    BANK0           160      0       0
    BANK1           256      0       0
    BANK2           256      0       0
    BANK3           256      0       0
    BANK4           256      0       0
    BANK5           256      0       0
    BANK6           256      0       0
    BANK7           256      0       0
    BANK8           256      0       0
    BANK9           256      0       0
    BANK10          256      0       0
    BANK11          256      0       0
    BANK12          256      0       0
    BANK13          256      0       0
    BANK14          256      0       0
    BANK15          256      0       0

Pointer List with Targets:

    printf@f	PTR const unsigned char  size(2) Largest target is 119
		 -> STR_6(CODE[7]), STR_5(CODE[9]), STR_4(CODE[9]), STR_3(CODE[15]), 
		 -> STR_2(CODE[45]), STR_1(CODE[119]), 

    printf@ap	PTR void [1] size(2) Largest target is 2
		 -> ?_printf(COMRAM[2]), 

    UART2_SetErrorHandler@interruptHandler	PTR FTN()void  size(2) Largest target is 1
		 -> UART2_DefaultErrorHandler(), 

    UART2_SetOverrunErrorHandler@interruptHandler	PTR FTN()void  size(2) Largest target is 1
		 -> UART2_DefaultOverrunErrorHandler(), 

    UART2_SetFramingErrorHandler@interruptHandler	PTR FTN()void  size(2) Largest target is 1
		 -> UART2_DefaultFramingErrorHandler(), 

    UART2_ErrorHandler	PTR FTN()void  size(2) Largest target is 1
		 -> Absolute function(), UART2_DefaultErrorHandler(), 

    UART2_OverrunErrorHandler	PTR FTN()void  size(2) Largest target is 1
		 -> Absolute function(), UART2_DefaultOverrunErrorHandler(), 

    UART2_FramingErrorHandler	PTR FTN()void  size(2) Largest target is 1
		 -> Absolute function(), UART2_DefaultFramingErrorHandler(), 


Critical Paths under _main in COMRAM

    _main->_printf
    _clearPuTTY->_printf
    _printf->___lwmod
    _putch->_UART2_Write
    ___lwmod->___lwdiv
    _UART2_Initialize->_UART2_SetErrorHandler
    _UART2_Initialize->_UART2_SetFramingErrorHandler
    _UART2_Initialize->_UART2_SetOverrunErrorHandler

Critical Paths under _main in BANK0

    None.

Critical Paths under _main in BANK1

    None.

Critical Paths under _main in BANK2

    None.

Critical Paths under _main in BANK3

    None.

Critical Paths under _main in BANK4

    None.

Critical Paths under _main in BANK5

    None.

Critical Paths under _main in BANK6

    None.

Critical Paths under _main in BANK7

    None.

Critical Paths under _main in BANK8

    None.

Critical Paths under _main in BANK9

    None.

Critical Paths under _main in BANK10

    None.

Critical Paths under _main in BANK11

    None.

Critical Paths under _main in BANK12

    None.

Critical Paths under _main in BANK13

    None.

Critical Paths under _main in BANK14

    None.

Critical Paths under _main in BANK15

    None.

Call Graph Tables:

 ---------------------------------------------------------------------------------
 (Depth) Function   	        Calls       Base Space   Used Autos Params    Refs
 ---------------------------------------------------------------------------------
 (0) _main                                                18    18      0    3725
                                             29 COMRAM     8     8      0
                 _DELAY_milliseconds
                  _SYSTEM_Initialize
                         _UART2_Read
                  _UART2_is_rx_ready
                         _clearPuTTY
             _poll_switch1_for_edges
                             _printf
 ---------------------------------------------------------------------------------
 (1) _poll_switch1_for_edges                               4     2      2     145
                                              0 COMRAM     4     2      2
 ---------------------------------------------------------------------------------
 (1) _clearPuTTY                                           0     0      0    1476
                             _printf
 ---------------------------------------------------------------------------------
 (1) _printf                                              26    16     10    1476
                                             12 COMRAM    17     7     10
                            ___lwdiv
                            ___lwmod
                              _putch
 ---------------------------------------------------------------------------------
 (2) _putch                                                1     1      0      30
                                              1 COMRAM     1     1      0
                        _UART2_Write
 ---------------------------------------------------------------------------------
 (3) _UART2_Write                                          1     1      0      15
                                              0 COMRAM     1     1      0
 ---------------------------------------------------------------------------------
 (2) ___lwmod                                              5     1      4     311
                                              7 COMRAM     5     1      4
                            ___lwdiv (ARG)
 ---------------------------------------------------------------------------------
 (2) ___lwdiv                                              7     3      4     314
                                              0 COMRAM     7     3      4
 ---------------------------------------------------------------------------------
 (1) _UART2_is_rx_ready                                    0     0      0       0
 ---------------------------------------------------------------------------------
 (1) _UART2_Read                                           0     0      0       0
                   Absolute function *
          _UART2_DefaultErrorHandler *
   _UART2_DefaultFramingErrorHandler *
   _UART2_DefaultOverrunErrorHandler *
 ---------------------------------------------------------------------------------
 (2) _UART2_DefaultOverrunErrorHandler                     0     0      0       0
 ---------------------------------------------------------------------------------
 (2) _UART2_DefaultFramingErrorHandler                     0     0      0       0
 ---------------------------------------------------------------------------------
 (2) _UART2_DefaultErrorHandler                            0     0      0       0
 ---------------------------------------------------------------------------------
 (2) Absolute function(Fake)                               0     0      0       0
 ---------------------------------------------------------------------------------
 (1) _SYSTEM_Initialize                                    0     0      0     294
              _OSCILLATOR_Initialize
             _PIN_MANAGER_Initialize
                     _PMD_Initialize
                    _TMR0_Initialize
                   _UART2_Initialize
 ---------------------------------------------------------------------------------
 (2) _UART2_Initialize                                     0     0      0     294
              _UART2_SetErrorHandler
       _UART2_SetFramingErrorHandler
       _UART2_SetOverrunErrorHandler
 ---------------------------------------------------------------------------------
 (3) _UART2_SetOverrunErrorHandler                         2     0      2      98
                                              0 COMRAM     2     0      2
 ---------------------------------------------------------------------------------
 (3) _UART2_SetFramingErrorHandler                         2     0      2      98
                                              0 COMRAM     2     0      2
 ---------------------------------------------------------------------------------
 (3) _UART2_SetErrorHandler                                2     0      2      98
                                              0 COMRAM     2     0      2
 ---------------------------------------------------------------------------------
 (2) _TMR0_Initialize                                      0     0      0       0
 ---------------------------------------------------------------------------------
 (2) _PMD_Initialize                                       0     0      0       0
 ---------------------------------------------------------------------------------
 (2) _PIN_MANAGER_Initialize                               0     0      0       0
 ---------------------------------------------------------------------------------
 (2) _OSCILLATOR_Initialize                                0     0      0       0
 ---------------------------------------------------------------------------------
 (1) _DELAY_milliseconds                                   3     1      2     174
                                              0 COMRAM     3     1      2
 ---------------------------------------------------------------------------------
 Estimated maximum stack depth 3
 ---------------------------------------------------------------------------------

 Call Graph Graphs:

 _main (ROOT)
   _DELAY_milliseconds
   _SYSTEM_Initialize
     _OSCILLATOR_Initialize
     _PIN_MANAGER_Initialize
     _PMD_Initialize
     _TMR0_Initialize
     _UART2_Initialize
       _UART2_SetErrorHandler
       _UART2_SetFramingErrorHandler
       _UART2_SetOverrunErrorHandler
   _UART2_Read
     Absolute function(Fake) *
     _UART2_DefaultErrorHandler *
     _UART2_DefaultFramingErrorHandler *
     _UART2_DefaultOverrunErrorHandler *
   _UART2_is_rx_ready
   _clearPuTTY
     _printf
       ___lwdiv
       ___lwmod
         ___lwdiv (ARG)
       _putch
         _UART2_Write
   _poll_switch1_for_edges
   _printf
     ___lwdiv
     ___lwmod
       ___lwdiv (ARG)
     _putch
       _UART2_Write

 Address spaces:
Name               Size   Autos  Total    Cost      Usage
BIGRAM             FFF      0       0      37        0.0%
EEDATA             400      0       0       0        0.0%
BITBANK15          100      0       0      30        0.0%
BANK15             100      0       0      31        0.0%
BITBANK14          100      0       0      28        0.0%
BANK14             100      0       0      29        0.0%
BITBANK13          100      0       0      36        0.0%
BANK13             100      0       0      27        0.0%
BITBANK12          100      0       0      35        0.0%
BANK12             100      0       0      26        0.0%
BITBANK11          100      0       0      34        0.0%
BANK11             100      0       0      25        0.0%
BITBANK10          100      0       0      33        0.0%
BANK10             100      0       0      24        0.0%
BITBANK9           100      0       0      22        0.0%
BANK9              100      0       0      23        0.0%
BITBANK8           100      0       0      20        0.0%
BANK8              100      0       0      21        0.0%
BITBANK7           100      0       0      18        0.0%
BANK7              100      0       0      19        0.0%
BITBANK6           100      0       0      16        0.0%
BANK6              100      0       0      17        0.0%
BITBANK5           100      0       0      14        0.0%
BANK5              100      0       0      15        0.0%
BITBANK4           100      0       0      12        0.0%
BANK4              100      0       0      13        0.0%
BITBANK3           100      0       0      10        0.0%
BANK3              100      0       0      11        0.0%
BITBANK2           100      0       0       8        0.0%
BANK2              100      0       0       9        0.0%
BITBANK1           100      0       0       6        0.0%
BANK1              100      0       0       7        0.0%
BITBANK0            A0      0       0       4        0.0%
BANK0               A0      0       0       5        0.0%
BITCOMRAM           5F      0       0       0        0.0%
COMRAM              5F     25      2E       1       48.4%
BITSFR_8             0      0       0     200        0.0%
SFR_8                0      0       0     200        0.0%
BITSFR_7             0      0       0     200        0.0%
SFR_7                0      0       0     200        0.0%
BITSFR_6             0      0       0     200        0.0%
SFR_6                0      0       0     200        0.0%
BITSFR_5             0      0       0     200        0.0%
SFR_5                0      0       0     200        0.0%
BITSFR_4             0      0       0     200        0.0%
SFR_4                0      0       0     200        0.0%
BITSFR_3             0      0       0     200        0.0%
SFR_3                0      0       0     200        0.0%
BITSFR_2             0      0       0     200        0.0%
SFR_2                0      0       0     200        0.0%
BITSFR_1             0      0       0     200        0.0%
SFR_1                0      0       0     200        0.0%
BITSFR               0      0       0     200        0.0%
SFR                  0      0       0     200        0.0%
STACK                0      0       0       2        0.0%
NULL                 0      0       0       0        0.0%
ABS                  0      0      2E      32        0.0%
DATA                 0      0      2E       3        0.0%
CODE                 0      0       0       0        0.0%


Microchip Technology PIC18 Macro Assembler V2.30 build 20200825195618 
Symbol Table                                                                                   Thu Nov 12 03:38:00 2020

                   __end_of_UART2_is_rx_ready 1872                                            l60 1870  
                                          l80 15AA                                            l57 17D6  
                                          l74 1516                                            l83 182C  
                                          l92 18B0                                            l86 1842  
                                          l95 18D2                                            l98 18D0  
                                          u10 183C                                            u11 1838  
                                         l101 18D4                                           l110 18CE  
                                         l104 18C4                                           l107 18BA  
                                         l118 1804                                           l331 11CC  
                                         l172 1828                                           l341 11D8  
                                         l333 11CE                                           l166 1886  
                                         l350 11E4                                           l415 1628  
                                         l343 11DA                                           l335 11D0  
                                         l352 11E6                                           l169 185A  
                                         l345 11DC                                           l329 11CA  
                                         l354 11E8                                           l187 189A  
                                         l443 147A                                           l371 12A0  
                                         l339 11D6                                           l348 11E2  
                                         l437 13E4                                           l365 129A  
                                         l294 1514                                           l382 16A2  
                                         l358 120E                                           l367 129C  
                                         l369 129E                                           l932 1716  
                                         l925 170E                                           l942 177A  
                                         l935 1772                                           u130 186E  
                                         u131 1868                                           u140 1526  
                                         u141 1522                                           u150 153A  
                                         u151 1536                                           u208 1594  
                                         u136 1870                                           u209 15A6  
                                         u170 1564                                           u171 1560  
                                         u500 16F8                                           u501 16F4  
                                         u190 158E                                           u510 172A  
                                         u191 158A                                           u511 1726  
                                         u168 1542                                           u520 1748  
                                         u600 1644                                           u169 1554  
                                         u521 1744                                           u601 1640  
                                         u530 175E                                           u610 1656  
                                         u531 175A                                           u611 1652  
                                         u188 156C                                           u540 1304  
                                         u620 1678                                           u700 11FA  
                                         u189 157E                                           u541 1300  
                                         u621 1674                                           u701 11F4  
                                         u550 13CC                                           u630 168A  
                                         u710 121E                                           u551 13C8  
                                         u631 1686                                           u711 1218  
                                         u480 16BE                                           u560 13E4  
                                         u720 1250                                           u640 10F8  
                                         u481 16BA                                           u561 13E0  
                                         u721 124A                                           u641 10F4  
                                         u490 16DC                                           u570 1450  
                                         u730 1274                                           u706 11FC  
                                         u650 112A                                           u491 16D8  
                                         u571 144C                                           u731 126E  
                                         u651 1126                                           u580 147A  
                                         u716 1220                                           u660 1146  
                                         u581 1476                                           u661 1142  
                                         u590 1804                                           u726 1252  
                                         u670 1164                                           u591 1800  
                                         u671 115C                                           u736 1276  
                                         u680 118A                                           u681 1186  
                                         u690 11AA                                           u747 17E2  
                                         u691 11A6                                           u678 1166  
                  __end_of_DELAY_milliseconds 1806                       __size_of_PMD_Initialize 0024  
                                         tosl 003FFD                                           wreg 003FE8  
                                        l1201 18AA                                          l1251 1806  
                                        l1331 185C                                          l1261 14F4  
                                        l1253 147C                                          l1341 153A  
                                        l1271 1502                                          l1263 14F6  
                                        l1255 1494                                          l1351 157E  
                                        l1343 153C                                          l1335 1516  
                                        l1191 182C                                          l1273 1504  
                                        l1265 14F8                                          l1257 149A  
                                        l1281 188C                                          l1353 158E  
                                        l1345 1554                                          l1337 1526  
                                        l1193 183C                                          l1601 132E  
                                        l1275 1506                                          l1267 14FA  
                                        l1259 14A6                                          l1283 1892  
                                        l1355 15A6                                          l1347 1564  
                                        l1339 152A                                          l1611 1390  
                                        l1603 1338                                          l1277 1844  
                                        l1269 1500                                          l1349 1566  
                                        l1541 16A4                                          l1613 1398  
                                        l1701 1240                                          l1279 1888  
                                        l1535 18BC                                          l1551 16DC  
                                        l1543 16AC                                          l1631 143E  
                                        l1623 13D0                                          l1607 1340  
                                        l1703 1264                                          l1537 18B2  
                                        l1641 1872                                          l1561 1708  
                                        l1553 16E2                                          l1545 16BE  
                                        l1625 13D2                                          l1609 1378  
                                        l1633 1450                                          l1705 128A  
                                        l1635 17D8                                          l1539 18C6  
                                        l1643 1882                                          l1555 16F8  
                                        l1547 16C6                                          l1571 1748  
                                        l1563 1718                                          l1627 13EC  
                                        l1619 139C                                          l1651 1644  
                                        l1637 17DC                                          l1581 17AE  
                                        l1557 1700                                          l1549 16CE  
                                        l1573 175E                                          l1565 172A  
                                        l1629 1438                                          l1645 15AC  
                                        l1661 169A                                          l1653 1656  
                                        l1709 12A6                                          l1639 17EA  
                                        l1583 17BA                                          l1559 1702  
                                        l1575 1766                                          l1567 1732  
                                        l1591 12F2                                          l1655 1666  
                                        l1647 162A                                          l1735 12BC  
                                        l1671 10D8                                          l1585 17C6  
                                        l1577 176C                                          l1569 173A  
                                        l1593 1304                                          l1657 1678  
                                        l1649 1632                                          l1681 112A  
                                        l1673 10E4                                          l1665 10C8  
                                        l1587 17D2                                          l1579 177C  
                                        l1595 130E                                          l1659 168A  
                                        l1691 118E                                          l1683 1146  
                                        l1675 10F8                                          l1667 10CC  
                                        l1597 1316                                          l1589 12E6  
                                        l1693 11AA                                          l1677 1104  
                                        l1685 1152                                          l1669 10D4  
                                        l1599 1326                                          l1695 11B2  
                                        l1687 1178                                          l1679 1110  
                                        l1697 11EA                                          l1689 118A  
                                        l1699 1234                                          STR_1 100B  
                                        STR_2 1082                                          STR_3 10AF  
                                        STR_4 10BE                                          STR_5 10BE  
                                        STR_6 10C0                                          _LATA 003FBA  
                                        _LATB 003FBB                                          _LATC 003FBC  
                                        _LATD 003FBD                                          _LATE 003FBE  
                                        _PMD0 0039C0                                          _PMD1 0039C1  
                                        _PMD2 0039C2                                          _PMD3 0039C3  
                                        _PMD4 0039C4                                          _PMD5 0039C5  
                                        _PMD6 0039C6                                          _PMD7 0039C7  
                                        _WPUA 003A41                                          _WPUB 003A51  
                                        _WPUC 003A61                                          _WPUD 003A71  
                                        _WPUE 003A81                                          _main 10C8  
                                        fsr2h 003FDA                                          indf2 003FDF  
                                        fsr2l 003FD9                                          prodh 003FF4  
                                        prodl 003FF3                                          start FFFC  
                                ___param_bank 000000                                   ?_UART2_Read 0001  
                     __end_of_TMR0_Initialize 189C                __size_of_OSCILLATOR_Initialize 0018  
               __end_of_OSCILLATOR_Initialize 185C                                         ?_main 0001  
                                       _U2P1L 003DD4                                         _U2P2L 003DD6  
                                       _U2P3L 003DD8                               __end_of___lwdiv 1718  
                                       _U2UIR 003DE0                               __end_of___lwmod 177C  
                                       _U2RXB 003DD0                                         _U2TXB 003DD2  
                                       _OSCEN 0039DD                                         _TMR0H 003FB7  
                                       _TMR0L 003FB6                                         _TRISA 003FC2  
                                       _TRISB 003FC3                                         _TRISC 003FC4  
                                       _TRISD 003FC5                                         _TRISE 003FC6  
                             __end_of_dpowers 100B                                         _putch 18A8  
                                       main@i 0020                                         pclath 003FFA  
                                       tablat 003FF5                                         status 003FD8  
              ??_UART2_SetOverrunErrorHandler 0003                               __initialization 189C  
                                __end_of_main 12E6                    __size_of_UART2_is_rx_ready 0016  
                                ?_UART2_Write 0001                                        ??_main 001E  
                               __activetblptr 000003                                        _ANSELA 003A40  
                                      ?_putch 0001                                        _ANSELB 003A50  
                                      _ANSELC 003A60                                        _ANSELD 003A70  
                                      _ANSELE 003A80                                        _T0CON0 003FB8  
                                      _T0CON1 003FB9                                        _RB1I2C 003A5A  
                                      _RB2I2C 003A5B                                        _RD0I2C 003A7A  
                                      _RC3I2C 003A6A                                        _RD1I2C 003A7B  
                                      _RC4I2C 003A6B                                        _U2CON0 003DDA  
                                      _U2CON1 003DDB                                        _U2CON2 003DDC  
                                      _U2BRGH 003DDE                                        _U2FIFO 003DDF  
                                      _U2BRGL 003DDD                           __size_of_UART2_Read 0096  
                                      _RB6PPS 003A0E                                        _ODCONA 003A42  
                                      _ODCONB 003A52                                        _ODCONC 003A62  
                                      _ODCOND 003A72                                        _ODCONE 003A82  
                                      _INLVLA 003A44                                        _INLVLB 003A54  
                                      _INLVLC 003A64                                        _INLVLD 003A74  
                                      _INLVLE 003A84                                        _OSCFRQ 0039DF  
                            _UART2_Initialize 177C                     _UART2_OverrunErrorHandler 0028  
          __size_of_UART2_DefaultErrorHandler 0002                    ?_UART2_DefaultErrorHandler 0001  
                                   ??___lwdiv 0005                                     ??___lwmod 000C  
                            ?_TMR0_Initialize 0001                                        _printf 12E6  
                              _PMD_Initialize 1806                                  __mediumconst 0000  
                                      tblptrh 003FF7                                        tblptrl 003FF6  
                                      tblptru 003FF8                             _SYSTEM_Initialize 1872  
                                  __accesstop 0060                       __end_of__initialization 18A2  
                          ?_SYSTEM_Initialize 0001                                 ___rparam_used 000001  
                              __pcstackCOMRAM 0001                         _UART2_SetErrorHandler 18C6  
                         ??_SYSTEM_Initialize 0003             __end_of_UART2_DefaultErrorHandler 18D6  
                               __end_of_putch 18B2                        __end_of_PMD_Initialize 182A  
                    ??_poll_switch1_for_edges 0003                     __end_of_SYSTEM_Initialize 1888  
                                     ??_putch 0002                            _DELAY_milliseconds 17D8  
                                  __pnvCOMRAM 0026                                    _clearPuTTY 15AC  
                         ?_DELAY_milliseconds 0001                                  ??_UART2_Read 0001  
        __end_of_UART2_SetFramingErrorHandler 18C6         __size_of_UART2_SetFramingErrorHandler 000A  
                _UART2_SetFramingErrorHandler 18BC                                       ?_printf 000D  
                             ?_PMD_Initialize 0001                                       _U2ERRIE 003DE2  
                                     _U2ERRIR 003DE1                          __size_of_UART2_Write 001A  
                                     _U2RXPPS 003AE8                          ??_DELAY_milliseconds 0003  
                                     _OSCCON1 0039D9                                       _OSCCON3 0039DB  
                                     _OSCTUNE 0039DE                                       _SLRCONA 003A43  
                                     _SLRCONB 003A53                                       _SLRCONC 003A63  
                                     _SLRCOND 003A73                                       _SLRCONE 003A83  
                          __end_of_UART2_Read 15AC                                       __Hparam 0000  
                      ?_UART2_SetErrorHandler 0001                                       __Lparam 0000  
                                     ___lwdiv 16A4                                       ___lwmod 1718  
                                __psmallconst 1000                 ?_UART2_SetFramingErrorHandler 0001  
                                     __pcinit 189C                                       __ramtop 1000  
                                     __ptext0 10C8                                       __ptext1 162A  
                                     __ptext2 15AC                                       __ptext3 12E6  
                                     __ptext4 18A8                                       __ptext5 182A  
                                     __ptext6 1718                                       __ptext7 16A4  
                                     __ptext8 185C                                       __ptext9 1516  
                             __size_of_printf 0196               __size_of_poll_switch1_for_edges 007A  
         fp__UART2_DefaultOverrunErrorHandler 0000      __end_of_UART2_DefaultOverrunErrorHandler 18D2  
   __size_of_UART2_DefaultOverrunErrorHandler 0002            ??_UART2_DefaultOverrunErrorHandler 0001  
           ?_UART2_DefaultOverrunErrorHandler 0001              _UART2_DefaultOverrunErrorHandler 18D0  
                                     _dpowers 1001                         _OSCILLATOR_Initialize 1844  
                    ??_PIN_MANAGER_Initialize 0001                      __end_of_UART2_Initialize 17D8  
                  __size_of_SYSTEM_Initialize 0016                          end_of_initialization 18A2  
                                 ?_clearPuTTY 0001                                       printf@c 001D  
                                     printf@f 000D                                       postdec2 003FDD  
                                     postinc2 003FDE                   ??_UART2_DefaultErrorHandler 0001  
                                   _PORTAbits 003FCA                        _poll_switch1_for_edges 162A  
                     main@has_switch1_changed 0022                        ?_OSCILLATOR_Initialize 0001  
                              __end_of_printf 147C                ??_UART2_SetFramingErrorHandler 0003  
                         start_initialization 189C                           __size_of_clearPuTTY 007E  
                    __size_of_TMR0_Initialize 0014               __size_of_PIN_MANAGER_Initialize 009A  
                   _UART2_DefaultErrorHandler 18D4                                   putch@txData 0002  
   poll_switch1_for_edges@has_switch1_changed 0003                              ??_PMD_Initialize 0001  
                           UART2_Write@txData 0001                                      ??_printf 0017  
                                 __pbssCOMRAM 002C                     _UART2_FramingErrorHandler 002A  
                     ??_UART2_SetErrorHandler 0003                              ___lwdiv@dividend 0001  
                      _PIN_MANAGER_Initialize 147C                                      ?___lwdiv 0001  
                                    ?___lwmod 0008                                 ??_UART2_Write 0001  
                                 __smallconst 1000                   __size_of_DELAY_milliseconds 002E  
                           ?_UART2_Initialize 0001                              ___lwdiv@quotient 0005  
                          ??_UART2_Initialize 0003                                __size_of_putch 000A  
                            _uart2RxLastError 002E                             ??_TMR0_Initialize 0001  
                                 _U2ERRIRbits 003DE1         UART2_SetErrorHandler@interruptHandler 0001  
                                    _LATDbits 003FBD                            _last_switch1_value 002C  
                                ??_clearPuTTY 001E                                      _PIR3bits 0039A3  
                                    _PIR6bits 0039A6                DELAY_milliseconds@milliseconds 0001  
                                  printf@flag 0017                                     main@digit 0024  
                                  printf@prec 001A                            _UART2_ErrorHandler 0026  
                         __end_of_UART2_Write 1844                            __end_of_clearPuTTY 162A  
                     ?_poll_switch1_for_edges 0001                                      __Hrparam 0000  
                                    __Lrparam 0000                       ??_OSCILLATOR_Initialize 0001  
                            __size_of___lwdiv 0074                              __size_of___lwmod 0064  
                                  _T0CON0bits 003FB8                               ___lwdiv@divisor 0003  
              __end_of_poll_switch1_for_edges 16A4                               ___lwdiv@counter 0007  
                                    __ptext10 18D0                                      __ptext11 18D2  
                                    __ptext20 147C                                      __ptext12 18D4  
                                    __ptext21 1844                                      __ptext13 1872  
                                    __ptext22 17D8                                      __ptext14 177C  
                                    __ptext23 0000                                      __ptext15 18B2  
                                    __ptext16 18BC                                      __ptext17 18C6  
                                    __ptext18 1888                                      __ptext19 1806  
                                  _U2CON0bits 003DDA                                 __size_of_main 021E  
         fp__UART2_DefaultFramingErrorHandler 0000      __end_of_UART2_DefaultFramingErrorHandler 18D4  
   __size_of_UART2_DefaultFramingErrorHandler 0002            ??_UART2_DefaultFramingErrorHandler 0001  
           ?_UART2_DefaultFramingErrorHandler 0001              _UART2_DefaultFramingErrorHandler 18D2  
UART2_SetOverrunErrorHandler@interruptHandler 0001                                     printf@val 0018  
                                 _UART2_Write 182A          __end_of_UART2_SetOverrunErrorHandler 18BC  
       __size_of_UART2_SetOverrunErrorHandler 000A                  _UART2_SetOverrunErrorHandler 18B2  
                            ___lwmod@dividend 0008                       ?_PIN_MANAGER_Initialize 0001  
              __size_of_UART2_SetErrorHandler 000A                 __end_of_UART2_SetErrorHandler 18D0  
                                    printf@ap 001B                                    _UART2_Read 1516  
UART2_SetFramingErrorHandler@interruptHandler 0001                             _UART2_is_rx_ready 185C  
                          ?_UART2_is_rx_ready 0001                               ___lwmod@divisor 000A  
                             _TMR0_Initialize 1888                               ___lwmod@counter 000C  
                         ??_UART2_is_rx_ready 0001                __end_of_PIN_MANAGER_Initialize 1516  
       poll_switch1_for_edges@digitalinputpin 0001                 ?_UART2_SetOverrunErrorHandler 0001  
                fp__UART2_DefaultErrorHandler 0000                     __size_of_UART2_Initialize 005C  
