

Microchip MPLAB XC8 Assembler V2.30 build 20200825195618 
                                                                                               Tue Dec 15 18:08:27 2020

Microchip MPLAB XC8 C Compiler v2.30 (Free license) build 20200825195618 Og1 
     1                           	processor	18F46K42
     2                           	fnconf	rparam,??,?,0
     3                           	pagewidth 120
     4                           	opt	flic
     5                           	psect	mediumconst,global,reloc=2,class=MEDIUMCONST,delta=1,noexec
     6                           	psect	cinit,global,reloc=2,class=CODE,delta=1
     7                           	psect	bssCOMRAM,global,class=COMRAM,space=1,delta=1,lowdata,noexec
     8                           	psect	bssBANK1,global,class=BANK1,space=1,delta=1,lowdata,noexec
     9                           	psect	cstackBANK1,global,class=BANK1,space=1,delta=1,lowdata,noexec
    10                           	psect	cstackBANK0,global,class=BANK0,space=1,delta=1,lowdata,noexec
    11                           	psect	cstackCOMRAM,global,class=COMRAM,space=1,delta=1,lowdata,noexec
    12                           	psect	text0,global,reloc=2,class=CODE,delta=1
    13                           	psect	text1,global,reloc=2,class=CODE,delta=1
    14                           	psect	text2,global,reloc=2,class=CODE,delta=1,group=1
    15                           	psect	text3,global,reloc=2,class=CODE,delta=1,group=1
    16                           	psect	text4,global,reloc=2,class=CODE,delta=1,group=2
    17                           	psect	text5,global,reloc=2,class=CODE,delta=1,group=2
    18                           	psect	text6,global,reloc=2,class=CODE,delta=1
    19                           	psect	text7,global,reloc=2,class=CODE,delta=1
    20                           	psect	text8,global,reloc=2,class=CODE,delta=1,group=1
    21                           	psect	text9,global,reloc=2,class=CODE,delta=1,group=2
    22                           	psect	text10,global,reloc=2,class=CODE,delta=1,group=2
    23                           	psect	text11,global,reloc=2,class=CODE,delta=1,group=2
    24                           	psect	text12,global,reloc=2,class=CODE,delta=1,group=2
    25                           	psect	text13,global,reloc=2,class=CODE,delta=1,group=2
    26                           	psect	text14,global,reloc=2,class=CODE,delta=1,group=2
    27                           	psect	text15,global,reloc=2,class=CODE,delta=1,group=2
    28                           	psect	text16,global,reloc=2,class=CODE,delta=1,group=2
    29                           	psect	text17,global,reloc=2,class=CODE,delta=1,group=2
    30                           	psect	text18,global,reloc=2,class=CODE,delta=1,group=3
    31                           	psect	text19,global,reloc=2,class=CODE,delta=1,group=2
    32                           	psect	text20,global,reloc=2,class=CODE,delta=1,group=3
    33                           	psect	text21,global,reloc=2,class=CODE,delta=1,group=3
    34                           	psect	text22,global,reloc=2,class=CODE,delta=1,group=3
    35                           	psect	text23,global,reloc=2,class=CODE,delta=1,group=3
    36                           	psect	text24,global,reloc=2,class=CODE,delta=1,group=2
    37                           	psect	text25,global,reloc=2,class=CODE,delta=1,group=2
    38                           	psect	text26,global,reloc=2,class=CODE,delta=1,group=2
    39                           	psect	text27,global,reloc=2,class=CODE,delta=1,group=2
    40                           	psect	text28,global,reloc=2,class=CODE,delta=1,group=2
    41                           	psect	text29,global,reloc=2,class=CODE,delta=1,group=2
    42                           	psect	text30,global,reloc=2,class=CODE,delta=1,group=2
    43                           	psect	text31,global,reloc=2,class=CODE,delta=1
    44                           	psect	text32,global,reloc=2,class=CODE,delta=1
    45                           	psect	text33,global,reloc=2,class=CODE,delta=1
    46                           	psect	text34,global,reloc=2,class=CODE,delta=1
    47                           	psect	text35,global,reloc=2,class=CODE,delta=1
    48                           	psect	text36,global,reloc=2,class=CODE,delta=1
    49                           	psect	text37,global,reloc=2,class=CODE,delta=1
    50                           	psect	text38,global,reloc=2,class=CODE,delta=1
    51                           	psect	text39,global,reloc=2,class=CODE,delta=1
    52                           	psect	text40,global,reloc=2,class=CODE,delta=1
    53                           	psect	text41,global,reloc=2,class=CODE,delta=1
    54                           	psect	text42,global,reloc=2,class=CODE,delta=1
    55                           	psect	text43,global,reloc=2,class=CODE,delta=1
    56                           	psect	text44,global,reloc=2,class=CODE,delta=1
    57                           	psect	text45,global,reloc=2,class=CODE,delta=1
    58                           	psect	text46,global,reloc=2,class=CODE,delta=1
    59                           	psect	text47,global,reloc=2,class=CODE,delta=1
    60                           	psect	text48,global,reloc=2,class=CODE,delta=1
    61                           	psect	text49,global,reloc=2,class=CODE,delta=1
    62                           	psect	text50,global,reloc=2,class=CODE,delta=1
    63                           	psect	text51,global,reloc=2,class=CODE,delta=1
    64                           	psect	intsave_regs,global,class=BIGRAM,space=1,delta=1,noexec
    65                           	psect	text52,global,reloc=2,class=CODE,delta=1
    66                           	psect	rparam,global,class=COMRAM,space=1,delta=1,noexec
    67                           	psect	idloc,global,abs,ovrld,class=IDLOC,space=5,delta=1,noexec
    68                           	psect	config,global,abs,ovrld,class=CONFIG,space=4,delta=1,noexec
    69  0000                     
    70                           ; Version 2.20
    71                           ; Generated 05/05/2020 GMT
    72                           ; 
    73                           ; Copyright © 2020, Microchip Technology Inc. and its subsidiaries ("Microchip")
    74                           ; All rights reserved.
    75                           ; 
    76                           ; This software is developed by Microchip Technology Inc. and its subsidiaries ("Microch
      +                          ip").
    77                           ; 
    78                           ; Redistribution and use in source and binary forms, with or without modification, are
    79                           ; permitted provided that the following conditions are met:
    80                           ; 
    81                           ;     1. Redistributions of source code must retain the above copyright notice, this lis
      +                          t of
    82                           ;        conditions and the following disclaimer.
    83                           ; 
    84                           ;     2. Redistributions in binary form must reproduce the above copyright notice, this 
      +                          list
    85                           ;        of conditions and the following disclaimer in the documentation and/or other
    86                           ;        materials provided with the distribution.
    87                           ; 
    88                           ;     3. Microchip's name may not be used to endorse or promote products derived from th
      +                          is
    89                           ;        software without specific prior written permission.
    90                           ; 
    91                           ; THIS SOFTWARE IS PROVIDED BY MICROCHIP "AS IS" AND ANY EXPRESS OR IMPLIED WARRANTIES,
    92                           ; INCLUDING, BUT NOT LIMITED TO, THE IMPLIED WARRANTIES OF MERCHANTABILITY AND FITNESS F
      +                          OR
    93                           ; PURPOSE ARE DISCLAIMED.  IN NO EVENT SHALL MICROCHIP BE LIABLE FOR ANY DIRECT, INDIREC
      +                          T,
    94                           ; INCIDENTAL, SPECIAL, EXEMPLARY, OR CONSEQUENTIAL DAMAGES (INCLUDING BUT NOT LIMITED TO
    95                           ; PROCUREMENT OF SUBSTITUTE GOODS OR SERVICES; LOSS OF USE, DATA OR PROFITS; OR BUSINESS
    96                           ; INTERRUPTION) HOWSOEVER CAUSED AND ON ANY THEORY OF LIABILITY, WHETHER IN CONTRACT, ST
      +                          RICT
    97                           ; LIABILITY, OR TORT (INCLUDING NEGLIGENCE OR OTHERWISE) ARISING IN ANY WAY OUT OF THE U
      +                          SE OF
    98                           ; THIS SOFTWARE, EVEN IF ADVISED OF THE POSSIBILITY OF SUCH DAMAGE.
    99                           ; 
   100                           ; 
   101                           ; Code-generator required, PIC18F46K42 Definitions
   102                           ; 
   103                           ; SFR Addresses
   104  0000                     
   105                           	psect	mediumconst
   106  00FD8C                     __pmediumconst:
   107                           	callstack 0
   108  00FD8C  00                 	db	0
   109  00FD8D                     __powers_:
   110                           	callstack 0
   111  00FD8D  0000               	dw	0
   112  00FD8F  3F80               	dw	16256
   113  00FD91  0000               	dw	0
   114  00FD93  4120               	dw	16672
   115  00FD95  0000               	dw	0
   116  00FD97  42C8               	dw	17096
   117  00FD99  0000               	dw	0
   118  00FD9B  447A               	dw	17530
   119  00FD9D  4000               	dw	16384
   120  00FD9F  461C               	dw	17948
   121  00FDA1  5000               	dw	20480
   122  00FDA3  47C3               	dw	18371
   123  00FDA5  2400               	dw	9216
   124  00FDA7  4974               	dw	18804
   125  00FDA9  9680               	dw	38528
   126  00FDAB  4B18               	dw	19224
   127  00FDAD  BC20               	dw	48160
   128  00FDAF  4CBE               	dw	19646
   129  00FDB1  6B28               	dw	27432
   130  00FDB3  4E6E               	dw	20078
   131  00FDB5  02F9               	dw	761
   132  00FDB7  5015               	dw	20501
   133  00FDB9  78EC               	dw	30956
   134  00FDBB  60AD               	dw	24749
   135  00FDBD  F2CA               	dw	62154
   136  00FDBF  7149               	dw	29001
   137  00FDC1                     __end_of__powers_:
   138                           	callstack 0
   139  00FDC1                     __npowers_:
   140                           	callstack 0
   141  00FDC1  0000               	dw	0
   142  00FDC3  3F80               	dw	16256
   143  00FDC5  CCCD               	dw	52429
   144  00FDC7  3DCC               	dw	15820
   145  00FDC9  D70A               	dw	55050
   146  00FDCB  3C23               	dw	15395
   147  00FDCD  126F               	dw	4719
   148  00FDCF  3A83               	dw	14979
   149  00FDD1  B717               	dw	46871
   150  00FDD3  38D1               	dw	14545
   151  00FDD5  C5AC               	dw	50604
   152  00FDD7  3727               	dw	14119
   153  00FDD9  37BD               	dw	14269
   154  00FDDB  3586               	dw	13702
   155  00FDDD  BF95               	dw	49045
   156  00FDDF  33D6               	dw	13270
   157  00FDE1  CC77               	dw	52343
   158  00FDE3  322B               	dw	12843
   159  00FDE5  705F               	dw	28767
   160  00FDE7  3089               	dw	12425
   161  00FDE9  E6FF               	dw	59135
   162  00FDEB  2EDB               	dw	11995
   163  00FDED  E508               	dw	58632
   164  00FDEF  1E3C               	dw	7740
   165  00FDF1  4260               	dw	16992
   166  00FDF3  0DA2               	dw	3490
   167  00FDF5                     __end_of__npowers_:
   168                           	callstack 0
   169  00FDF5                     _dpowers:
   170                           	callstack 0
   171  00FDF5  0001               	dw	1
   172  00FDF7  0000               	dw	0
   173  00FDF9  000A               	dw	10
   174  00FDFB  0000               	dw	0
   175  00FDFD  0064               	dw	100
   176  00FDFF  0000               	dw	0
   177  00FE01  03E8               	dw	1000
   178  00FE03  0000               	dw	0
   179  00FE05  2710               	dw	10000
   180  00FE07  0000               	dw	0
   181  00FE09  86A0               	dw	34464
   182  00FE0B  0001               	dw	1
   183  00FE0D  4240               	dw	16960
   184  00FE0F  000F               	dw	15
   185  00FE11  9680               	dw	38528
   186  00FE13  0098               	dw	152
   187  00FE15  E100               	dw	57600
   188  00FE17  05F5               	dw	1525
   189  00FE19  CA00               	dw	51712
   190  00FE1B  3B9A               	dw	15258
   191  00FE1D                     __end_of_dpowers:
   192                           	callstack 0
   193  0000                     _PIR1bits	set	14753
   194  0000                     _PIR4bits	set	14756
   195  0000                     _PIR6bits	set	14758
   196  0000                     _PMD7	set	14791
   197  0000                     _PMD6	set	14790
   198  0000                     _PMD5	set	14789
   199  0000                     _PMD4	set	14788
   200  0000                     _PMD3	set	14787
   201  0000                     _PMD2	set	14786
   202  0000                     _PMD1	set	14785
   203  0000                     _PMD0	set	14784
   204  0000                     _OSCTUNE	set	14814
   205  0000                     _OSCFRQ	set	14815
   206  0000                     _OSCEN	set	14813
   207  0000                     _OSCCON3	set	14811
   208  0000                     _OSCCON1	set	14809
   209  0000                     _PLLR	set	118496
   210  0000                     _RA1PPS	set	14849
   211  0000                     _SMT1SIGPPS	set	15058
   212  0000                     _SMT1WINPPS	set	15057
   213  0000                     _RB6PPS	set	14862
   214  0000                     _U2RXPPS	set	15080
   215  0000                     _INLVLE	set	14980
   216  0000                     _INLVLD	set	14964
   217  0000                     _INLVLC	set	14948
   218  0000                     _INLVLB	set	14932
   219  0000                     _INLVLA	set	14916
   220  0000                     _SLRCONE	set	14979
   221  0000                     _SLRCOND	set	14963
   222  0000                     _SLRCONC	set	14947
   223  0000                     _SLRCONB	set	14931
   224  0000                     _SLRCONA	set	14915
   225  0000                     _ODCOND	set	14962
   226  0000                     _ODCONC	set	14946
   227  0000                     _ODCONB	set	14930
   228  0000                     _ODCONA	set	14914
   229  0000                     _ODCONE	set	14978
   230  0000                     _RD1I2C	set	14971
   231  0000                     _RD0I2C	set	14970
   232  0000                     _RC4I2C	set	14955
   233  0000                     _RC3I2C	set	14954
   234  0000                     _RB2I2C	set	14939
   235  0000                     _RB1I2C	set	14938
   236  0000                     _WPUC	set	14945
   237  0000                     _WPUA	set	14913
   238  0000                     _WPUB	set	14929
   239  0000                     _WPUE	set	14977
   240  0000                     _WPUD	set	14961
   241  0000                     _ANSELA	set	14912
   242  0000                     _ANSELE	set	14976
   243  0000                     _ANSELB	set	14928
   244  0000                     _ANSELC	set	14944
   245  0000                     _ANSELD	set	14960
   246  0000                     _U2TXB	set	15826
   247  0000                     _U2RXB	set	15824
   248  0000                     _U2ERRIRbits	set	15841
   249  0000                     _U2CON0bits	set	15834
   250  0000                     _U2ERRIE	set	15842
   251  0000                     _U2ERRIR	set	15841
   252  0000                     _U2UIR	set	15840
   253  0000                     _U2FIFO	set	15839
   254  0000                     _U2BRGH	set	15838
   255  0000                     _U2BRGL	set	15837
   256  0000                     _U2CON2	set	15836
   257  0000                     _U2CON1	set	15835
   258  0000                     _U2CON0	set	15834
   259  0000                     _U2P3L	set	15832
   260  0000                     _U2P2L	set	15830
   261  0000                     _U2P1L	set	15828
   262  0000                     _SMT1TMR	set	16146
   263  0000                     _SMT1CPR	set	16149
   264  0000                     _SMT1CPW	set	16152
   265  0000                     _SMT1PR	set	16155
   266  0000                     _CCPTMRS1bits	set	16223
   267  0000                     _SMT1STATbits	set	16160
   268  0000                     _SMT1CON0bits	set	16158
   269  0000                     _SMT1CON1bits	set	16159
   270  0000                     _SMT1PRL	set	16155
   271  0000                     _SMT1PRH	set	16156
   272  0000                     _SMT1PRU	set	16157
   273  0000                     _SMT1SIG	set	16162
   274  0000                     _SMT1WIN	set	16163
   275  0000                     _SMT1CLK	set	16161
   276  0000                     _SMT1STAT	set	16160
   277  0000                     _SMT1CON1	set	16159
   278  0000                     _SMT1CON0	set	16158
   279  0000                     _LATDbits	set	16317
   280  0000                     _PWM5DCL	set	16236
   281  0000                     _PWM5DCH	set	16237
   282  0000                     _PWM5CON	set	16238
   283  0000                     _PR2	set	16299
   284  0000                     _TMR2	set	16298
   285  0000                     _T2CONbits	set	16300
   286  0000                     _T2RSTbits	set	16303
   287  0000                     _T2HLTbits	set	16301
   288  0000                     _T2CON	set	16300
   289  0000                     _T2TMR	set	16298
   290  0000                     _T2PR	set	16299
   291  0000                     _T2RST	set	16303
   292  0000                     _T2HLT	set	16301
   293  0000                     _T2CLKCON	set	16302
   294  0000                     _TRISD	set	16325
   295  0000                     _TRISC	set	16324
   296  0000                     _TRISB	set	16323
   297  0000                     _TRISA	set	16322
   298  0000                     _TRISE	set	16326
   299  0000                     _LATC	set	16316
   300  0000                     _LATB	set	16315
   301  0000                     _LATA	set	16314
   302  0000                     _LATD	set	16317
   303  0000                     _LATE	set	16318
   304  00FE1D                     STR_5:
   305  00FE1D  0A                 	db	10
   306  00FE1E  0D                 	db	13
   307  00FE1F  45                 	db	69	;'E'
   308  00FE20  6E                 	db	110	;'n'
   309  00FE21  74                 	db	116	;'t'
   310  00FE22  65                 	db	101	;'e'
   311  00FE23  72                 	db	114	;'r'
   312  00FE24  20                 	db	32
   313  00FE25  66                 	db	102	;'f'
   314  00FE26  6C                 	db	108	;'l'
   315  00FE27  6F                 	db	111	;'o'
   316  00FE28  61                 	db	97	;'a'
   317  00FE29  74                 	db	116	;'t'
   318  00FE2A  20                 	db	32
   319  00FE2B  6F                 	db	111	;'o'
   320  00FE2C  72                 	db	114	;'r'
   321  00FE2D  20                 	db	32
   322  00FE2E  69                 	db	105	;'i'
   323  00FE2F  6E                 	db	110	;'n'
   324  00FE30  74                 	db	116	;'t'
   325  00FE31  65                 	db	101	;'e'
   326  00FE32  67                 	db	103	;'g'
   327  00FE33  65                 	db	101	;'e'
   328  00FE34  72                 	db	114	;'r'
   329  00FE35  20                 	db	32
   330  00FE36  66                 	db	102	;'f'
   331  00FE37  6F                 	db	111	;'o'
   332  00FE38  72                 	db	114	;'r'
   333  00FE39  20                 	db	32
   334  00FE3A  6C                 	db	108	;'l'
   335  00FE3B  65                 	db	101	;'e'
   336  00FE3C  6E                 	db	110	;'n'
   337  00FE3D  67                 	db	103	;'g'
   338  00FE3E  74                 	db	116	;'t'
   339  00FE3F  68                 	db	104	;'h'
   340  00FE40  20                 	db	32
   341  00FE41  6F                 	db	111	;'o'
   342  00FE42  66                 	db	102	;'f'
   343  00FE43  20                 	db	32
   344  00FE44  65                 	db	101	;'e'
   345  00FE45  64                 	db	100	;'d'
   346  00FE46  67                 	db	103	;'g'
   347  00FE47  65                 	db	101	;'e'
   348  00FE48  20                 	db	32
   349  00FE49  74                 	db	116	;'t'
   350  00FE4A  6F                 	db	111	;'o'
   351  00FE4B  20                 	db	32
   352  00FE4C  65                 	db	101	;'e'
   353  00FE4D  64                 	db	100	;'d'
   354  00FE4E  67                 	db	103	;'g'
   355  00FE4F  65                 	db	101	;'e'
   356  00FE50  20                 	db	32
   357  00FE51  69                 	db	105	;'i'
   358  00FE52  6E                 	db	110	;'n'
   359  00FE53  20                 	db	32
   360  00FE54  6D                 	db	109	;'m'
   361  00FE55  6D                 	db	109	;'m'
   362  00FE56  0A                 	db	10
   363  00FE57  0D                 	db	13
   364  00FE58  3E                 	db	62	;'>'
   365  00FE59  00                 	db	0
   366  00FE5A                     STR_11:
   367  00FE5A  0A                 	db	10
   368  00FE5B  0D                 	db	13
   369  00FE5C  74                 	db	116	;'t'
   370  00FE5D  69                 	db	105	;'i'
   371  00FE5E  6D                 	db	109	;'m'
   372  00FE5F  65                 	db	101	;'e'
   373  00FE60  44                 	db	68	;'D'
   374  00FE61  61                 	db	97	;'a'
   375  00FE62  74                 	db	116	;'t'
   376  00FE63  61                 	db	97	;'a'
   377  00FE64  20                 	db	32
   378  00FE65  20                 	db	32
   379  00FE66  09                 	db	9
   380  00FE67  20                 	db	32
   381  00FE68  64                 	db	100	;'d'
   382  00FE69  74                 	db	116	;'t'
   383  00FE6A  20                 	db	32
   384  00FE6B  20                 	db	32
   385  00FE6C  09                 	db	9
   386  00FE6D  20                 	db	32
   387  00FE6E  4D                 	db	77	;'M'
   388  00FE6F  69                 	db	105	;'i'
   389  00FE70  64                 	db	100	;'d'
   390  00FE71  54                 	db	84	;'T'
   391  00FE72  20                 	db	32
   392  00FE73  20                 	db	32
   393  00FE74  09                 	db	9
   394  00FE75  20                 	db	32
   395  00FE76  20                 	db	32
   396  00FE77  56                 	db	86	;'V'
   397  00FE78  61                 	db	97	;'a'
   398  00FE79  76                 	db	118	;'v'
   399  00FE7A  67                 	db	103	;'g'
   400  00FE7B  20                 	db	32
   401  00FE7C  20                 	db	32
   402  00FE7D  09                 	db	9
   403  00FE7E  20                 	db	32
   404  00FE7F  64                 	db	100	;'d'
   405  00FE80  56                 	db	86	;'V'
   406  00FE81  20                 	db	32
   407  00FE82  20                 	db	32
   408  00FE83  09                 	db	9
   409  00FE84  20                 	db	32
   410  00FE85  64                 	db	100	;'d'
   411  00FE86  54                 	db	84	;'T'
   412  00FE87  20                 	db	32
   413  00FE88  20                 	db	32
   414  00FE89  09                 	db	9
   415  00FE8A  20                 	db	32
   416  00FE8B  61                 	db	97	;'a'
   417  00FE8C  00                 	db	0
   418  00FE8D                     STR_6:
   419  00FE8D  0A                 	db	10
   420  00FE8E  0D                 	db	13
   421  00FE8F  70                 	db	112	;'p'
   422  00FE90  6C                 	db	108	;'l'
   423  00FE91  65                 	db	101	;'e'
   424  00FE92  61                 	db	97	;'a'
   425  00FE93  73                 	db	115	;'s'
   426  00FE94  65                 	db	101	;'e'
   427  00FE95  20                 	db	32
   428  00FE96  65                 	db	101	;'e'
   429  00FE97  6E                 	db	110	;'n'
   430  00FE98  74                 	db	116	;'t'
   431  00FE99  65                 	db	101	;'e'
   432  00FE9A  72                 	db	114	;'r'
   433  00FE9B  20                 	db	32
   434  00FE9C  61                 	db	97	;'a'
   435  00FE9D  20                 	db	32
   436  00FE9E  69                 	db	105	;'i'
   437  00FE9F  6E                 	db	110	;'n'
   438  00FEA0  74                 	db	116	;'t'
   439  00FEA1  65                 	db	101	;'e'
   440  00FEA2  67                 	db	103	;'g'
   441  00FEA3  65                 	db	101	;'e'
   442  00FEA4  72                 	db	114	;'r'
   443  00FEA5  20                 	db	32
   444  00FEA6  6F                 	db	111	;'o'
   445  00FEA7  72                 	db	114	;'r'
   446  00FEA8  20                 	db	32
   447  00FEA9  66                 	db	102	;'f'
   448  00FEAA  6C                 	db	108	;'l'
   449  00FEAB  6F                 	db	111	;'o'
   450  00FEAC  61                 	db	97	;'a'
   451  00FEAD  74                 	db	116	;'t'
   452  00FEAE  20                 	db	32
   453  00FEAF  66                 	db	102	;'f'
   454  00FEB0  6F                 	db	111	;'o'
   455  00FEB1  72                 	db	114	;'r'
   456  00FEB2  20                 	db	32
   457  00FEB3  6C                 	db	108	;'l'
   458  00FEB4  65                 	db	101	;'e'
   459  00FEB5  6E                 	db	110	;'n'
   460  00FEB6  67                 	db	103	;'g'
   461  00FEB7  74                 	db	116	;'t'
   462  00FEB8  68                 	db	104	;'h'
   463  00FEB9  20                 	db	32
   464  00FEBA  69                 	db	105	;'i'
   465  00FEBB  6E                 	db	110	;'n'
   466  00FEBC  20                 	db	32
   467  00FEBD  6D                 	db	109	;'m'
   468  00FEBE  6D                 	db	109	;'m'
   469  00FEBF  00                 	db	0
   470  00FEC0                     STR_14:
   471  00FEC0  0A                 	db	10
   472  00FEC1  0D                 	db	13
   473  00FEC2  41                 	db	65	;'A'
   474  00FEC3  76                 	db	118	;'v'
   475  00FEC4  65                 	db	101	;'e'
   476  00FEC5  72                 	db	114	;'r'
   477  00FEC6  61                 	db	97	;'a'
   478  00FEC7  67                 	db	103	;'g'
   479  00FEC8  65                 	db	101	;'e'
   480  00FEC9  20                 	db	32
   481  00FECA  61                 	db	97	;'a'
   482  00FECB  63                 	db	99	;'c'
   483  00FECC  63                 	db	99	;'c'
   484  00FECD  65                 	db	101	;'e'
   485  00FECE  6C                 	db	108	;'l'
   486  00FECF  65                 	db	101	;'e'
   487  00FED0  72                 	db	114	;'r'
   488  00FED1  61                 	db	97	;'a'
   489  00FED2  74                 	db	116	;'t'
   490  00FED3  69                 	db	105	;'i'
   491  00FED4  6F                 	db	111	;'o'
   492  00FED5  6E                 	db	110	;'n'
   493  00FED6  20                 	db	32
   494  00FED7  64                 	db	100	;'d'
   495  00FED8  75                 	db	117	;'u'
   496  00FED9  65                 	db	101	;'e'
   497  00FEDA  20                 	db	32
   498  00FEDB  74                 	db	116	;'t'
   499  00FEDC  6F                 	db	111	;'o'
   500  00FEDD  20                 	db	32
   501  00FEDE  67                 	db	103	;'g'
   502  00FEDF  72                 	db	114	;'r'
   503  00FEE0  61                 	db	97	;'a'
   504  00FEE1  76                 	db	118	;'v'
   505  00FEE2  69                 	db	105	;'i'
   506  00FEE3  74                 	db	116	;'t'
   507  00FEE4  79                 	db	121	;'y'
   508  00FEE5  20                 	db	32
   509  00FEE6  69                 	db	105	;'i'
   510  00FEE7  73                 	db	115	;'s'
   511  00FEE8  20                 	db	32
   512  00FEE9  25                 	db	37
   513  00FEEA  66                 	db	102	;'f'
   514  00FEEB  00                 	db	0
   515  00FEEC                     STR_10:
   516  00FEEC  0A                 	db	10
   517  00FEED  0D                 	db	13
   518  00FEEE  53                 	db	83	;'S'
   519  00FEEF  74                 	db	116	;'t'
   520  00FEF0  61                 	db	97	;'a'
   521  00FEF1  72                 	db	114	;'r'
   522  00FEF2  74                 	db	116	;'t'
   523  00FEF3  20                 	db	32
   524  00FEF4  79                 	db	121	;'y'
   525  00FEF5  6F                 	db	111	;'o'
   526  00FEF6  75                 	db	117	;'u'
   527  00FEF7  72                 	db	114	;'r'
   528  00FEF8  20                 	db	32
   529  00FEF9  64                 	db	100	;'d'
   530  00FEFA  61                 	db	97	;'a'
   531  00FEFB  74                 	db	116	;'t'
   532  00FEFC  61                 	db	97	;'a'
   533  00FEFD  20                 	db	32
   534  00FEFE  63                 	db	99	;'c'
   535  00FEFF  6F                 	db	111	;'o'
   536  00FF00  6C                 	db	108	;'l'
   537  00FF01  6C                 	db	108	;'l'
   538  00FF02  65                 	db	101	;'e'
   539  00FF03  63                 	db	99	;'c'
   540  00FF04  74                 	db	116	;'t'
   541  00FF05  69                 	db	105	;'i'
   542  00FF06  6F                 	db	111	;'o'
   543  00FF07  6E                 	db	110	;'n'
   544  00FF08  20                 	db	32
   545  00FF09  6E                 	db	110	;'n'
   546  00FF0A  6F                 	db	111	;'o'
   547  00FF0B  77                 	db	119	;'w'
   548  00FF0C  0A                 	db	10
   549  00FF0D  0D                 	db	13
   550  00FF0E  3E                 	db	62	;'>'
   551  00FF0F  0A                 	db	10
   552  00FF10  0D                 	db	13
   553  00FF11  00                 	db	0
   554  00FF12                     STR_1:
   555  00FF12  53                 	db	83	;'S'
   556  00FF13  4D                 	db	77	;'M'
   557  00FF14  54                 	db	84	;'T'
   558  00FF15  31                 	db	49	;'1'
   559  00FF16  20                 	db	32
   560  00FF17  43                 	db	67	;'C'
   561  00FF18  61                 	db	97	;'a'
   562  00FF19  70                 	db	112	;'p'
   563  00FF1A  74                 	db	116	;'t'
   564  00FF1B  75                 	db	117	;'u'
   565  00FF1C  72                 	db	114	;'r'
   566  00FF1D  65                 	db	101	;'e'
   567  00FF1E  20                 	db	32
   568  00FF1F  54                 	db	84	;'T'
   569  00FF20  65                 	db	101	;'e'
   570  00FF21  73                 	db	115	;'s'
   571  00FF22  74                 	db	116	;'t'
   572  00FF23  20                 	db	32
   573  00FF24  2D                 	db	45
   574  00FF25  20                 	db	32
   575  00FF26  53                 	db	83	;'S'
   576  00FF27  4D                 	db	77	;'M'
   577  00FF28  54                 	db	84	;'T'
   578  00FF29  31                 	db	49	;'1'
   579  00FF2A  57                 	db	87	;'W'
   580  00FF2B  49                 	db	73	;'I'
   581  00FF2C  4E                 	db	78	;'N'
   582  00FF2D  20                 	db	32
   583  00FF2E  6F                 	db	111	;'o'
   584  00FF2F  6E                 	db	110	;'n'
   585  00FF30  20                 	db	32
   586  00FF31  52                 	db	82	;'R'
   587  00FF32  43                 	db	67	;'C'
   588  00FF33  30                 	db	48	;'0'
   589  00FF34  0A                 	db	10
   590  00FF35  0D                 	db	13
   591  00FF36  00                 	db	0
   592  00FF37                     STR_7:
   593  00FF37  0A                 	db	10
   594  00FF38  0A                 	db	10
   595  00FF39  0D                 	db	13
   596  00FF3A  59                 	db	89	;'Y'
   597  00FF3B  6F                 	db	111	;'o'
   598  00FF3C  75                 	db	117	;'u'
   599  00FF3D  20                 	db	32
   600  00FF3E  68                 	db	104	;'h'
   601  00FF3F  61                 	db	97	;'a'
   602  00FF40  76                 	db	118	;'v'
   603  00FF41  65                 	db	101	;'e'
   604  00FF42  20                 	db	32
   605  00FF43  65                 	db	101	;'e'
   606  00FF44  6E                 	db	110	;'n'
   607  00FF45  74                 	db	116	;'t'
   608  00FF46  65                 	db	101	;'e'
   609  00FF47  72                 	db	114	;'r'
   610  00FF48  65                 	db	101	;'e'
   611  00FF49  64                 	db	100	;'d'
   612  00FF4A  20                 	db	32
   613  00FF4B  74                 	db	116	;'t'
   614  00FF4C  68                 	db	104	;'h'
   615  00FF4D  65                 	db	101	;'e'
   616  00FF4E  20                 	db	32
   617  00FF4F  66                 	db	102	;'f'
   618  00FF50  6F                 	db	111	;'o'
   619  00FF51  6C                 	db	108	;'l'
   620  00FF52  6C                 	db	108	;'l'
   621  00FF53  6F                 	db	111	;'o'
   622  00FF54  77                 	db	119	;'w'
   623  00FF55  69                 	db	105	;'i'
   624  00FF56  6E                 	db	110	;'n'
   625  00FF57  67                 	db	103	;'g'
   626  00FF58  3A                 	db	58	;':'
   627  00FF59  00                 	db	0
   628  00FF5A                     STR_12:
   629  00FF5A  0A                 	db	10
   630  00FF5B  0D                 	db	13
   631  00FF5C  25                 	db	37
   632  00FF5D  6C                 	db	108	;'l'
   633  00FF5E  75                 	db	117	;'u'
   634  00FF5F  09                 	db	9
   635  00FF60  25                 	db	37
   636  00FF61  6C                 	db	108	;'l'
   637  00FF62  75                 	db	117	;'u'
   638  00FF63  09                 	db	9
   639  00FF64  25                 	db	37
   640  00FF65  6C                 	db	108	;'l'
   641  00FF66  75                 	db	117	;'u'
   642  00FF67  09                 	db	9
   643  00FF68  25                 	db	37
   644  00FF69  66                 	db	102	;'f'
   645  00FF6A  09                 	db	9
   646  00FF6B  25                 	db	37
   647  00FF6C  66                 	db	102	;'f'
   648  00FF6D  09                 	db	9
   649  00FF6E  25                 	db	37
   650  00FF6F  6C                 	db	108	;'l'
   651  00FF70  75                 	db	117	;'u'
   652  00FF71  09                 	db	9
   653  00FF72  25                 	db	37
   654  00FF73  66                 	db	102	;'f'
   655  00FF74  00                 	db	0
   656  00FF75                     STR_3:
   657  00FF75  0A                 	db	10
   658  00FF76  0D                 	db	13
   659  00FF77  45                 	db	69	;'E'
   660  00FF78  6E                 	db	110	;'n'
   661  00FF79  74                 	db	116	;'t'
   662  00FF7A  65                 	db	101	;'e'
   663  00FF7B  72                 	db	114	;'r'
   664  00FF7C  20                 	db	32
   665  00FF7D  6E                 	db	110	;'n'
   666  00FF7E  75                 	db	117	;'u'
   667  00FF7F  6D                 	db	109	;'m'
   668  00FF80  62                 	db	98	;'b'
   669  00FF81  65                 	db	101	;'e'
   670  00FF82  72                 	db	114	;'r'
   671  00FF83  20                 	db	32
   672  00FF84  6F                 	db	111	;'o'
   673  00FF85  66                 	db	102	;'f'
   674  00FF86  20                 	db	32
   675  00FF87  67                 	db	103	;'g'
   676  00FF88  61                 	db	97	;'a'
   677  00FF89  70                 	db	112	;'p'
   678  00FF8A  73                 	db	115	;'s'
   679  00FF8B  0A                 	db	10
   680  00FF8C  0D                 	db	13
   681  00FF8D  3E                 	db	62	;'>'
   682  00FF8E  00                 	db	0
   683  00FF8F                     STR_9:
   684  00FF8F  0A                 	db	10
   685  00FF90  0D                 	db	13
   686  00FF91  4C                 	db	76	;'L'
   687  00FF92  65                 	db	101	;'e'
   688  00FF93  6E                 	db	110	;'n'
   689  00FF94  67                 	db	103	;'g'
   690  00FF95  74                 	db	116	;'t'
   691  00FF96  68                 	db	104	;'h'
   692  00FF97  20                 	db	32
   693  00FF98  6F                 	db	111	;'o'
   694  00FF99  66                 	db	102	;'f'
   695  00FF9A  20                 	db	32
   696  00FF9B  70                 	db	112	;'p'
   697  00FF9C  69                 	db	105	;'i'
   698  00FF9D  63                 	db	99	;'c'
   699  00FF9E  6B                 	db	107	;'k'
   700  00FF9F  65                 	db	101	;'e'
   701  00FFA0  74                 	db	116	;'t'
   702  00FFA1  20                 	db	32
   703  00FFA2  69                 	db	105	;'i'
   704  00FFA3  73                 	db	115	;'s'
   705  00FFA4  20                 	db	32
   706  00FFA5  25                 	db	37
   707  00FFA6  66                 	db	102	;'f'
   708  00FFA7  00                 	db	0
   709  00FFA8                     STR_4:
   710  00FFA8  0A                 	db	10
   711  00FFA9  0D                 	db	13
   712  00FFAA  70                 	db	112	;'p'
   713  00FFAB  6C                 	db	108	;'l'
   714  00FFAC  65                 	db	101	;'e'
   715  00FFAD  61                 	db	97	;'a'
   716  00FFAE  73                 	db	115	;'s'
   717  00FFAF  65                 	db	101	;'e'
   718  00FFB0  20                 	db	32
   719  00FFB1  65                 	db	101	;'e'
   720  00FFB2  6E                 	db	110	;'n'
   721  00FFB3  74                 	db	116	;'t'
   722  00FFB4  65                 	db	101	;'e'
   723  00FFB5  72                 	db	114	;'r'
   724  00FFB6  20                 	db	32
   725  00FFB7  61                 	db	97	;'a'
   726  00FFB8  20                 	db	32
   727  00FFB9  6E                 	db	110	;'n'
   728  00FFBA  75                 	db	117	;'u'
   729  00FFBB  6D                 	db	109	;'m'
   730  00FFBC  62                 	db	98	;'b'
   731  00FFBD  65                 	db	101	;'e'
   732  00FFBE  72                 	db	114	;'r'
   733  00FFBF  00                 	db	0
   734  00FFC0                     STR_8:
   735  00FFC0  0A                 	db	10
   736  00FFC1  0D                 	db	13
   737  00FFC2  4E                 	db	78	;'N'
   738  00FFC3  75                 	db	117	;'u'
   739  00FFC4  6D                 	db	109	;'m'
   740  00FFC5  62                 	db	98	;'b'
   741  00FFC6  65                 	db	101	;'e'
   742  00FFC7  72                 	db	114	;'r'
   743  00FFC8  20                 	db	32
   744  00FFC9  6F                 	db	111	;'o'
   745  00FFCA  66                 	db	102	;'f'
   746  00FFCB  20                 	db	32
   747  00FFCC  67                 	db	103	;'g'
   748  00FFCD  61                 	db	97	;'a'
   749  00FFCE  70                 	db	112	;'p'
   750  00FFCF  73                 	db	115	;'s'
   751  00FFD0  20                 	db	32
   752  00FFD1  69                 	db	105	;'i'
   753  00FFD2  73                 	db	115	;'s'
   754  00FFD3  20                 	db	32
   755  00FFD4  25                 	db	37
   756  00FFD5  75                 	db	117	;'u'
   757  00FFD6  00                 	db	0
   758  00FFD7                     STR_2:
   759  00FFD7  53                 	db	83	;'S'
   760  00FFD8  4D                 	db	77	;'M'
   761  00FFD9  54                 	db	84	;'T'
   762  00FFDA  20                 	db	32
   763  00FFDB  4D                 	db	77	;'M'
   764  00FFDC  6F                 	db	111	;'o'
   765  00FFDD  64                 	db	100	;'d'
   766  00FFDE  65                 	db	101	;'e'
   767  00FFDF  20                 	db	32
   768  00FFE0  3D                 	db	61	;'='
   769  00FFE1  20                 	db	32
   770  00FFE2  25                 	db	37
   771  00FFE3  75                 	db	117	;'u'
   772  00FFE4  20                 	db	32
   773  00FFE5  0A                 	db	10
   774  00FFE6  0A                 	db	10
   775  00FFE7  0D                 	db	13
   776  00FFE8  00                 	db	0
   777  00FFE9                     STR_15:
   778  00FFE9  25                 	db	37
   779  00FFEA  63                 	db	99	;'c'
   780  00FFEB  25                 	db	37
   781  00FFEC  63                 	db	99	;'c'
   782  00FFED  25                 	db	37
   783  00FFEE  63                 	db	99	;'c'
   784  00FFEF  25                 	db	37
   785  00FFF0  63                 	db	99	;'c'
   786  00FFF1  00                 	db	0
   787  00FFF2                     STR_13:
   788  00FFF2  0A                 	db	10
   789  00FFF3  0D                 	db	13
   790  00FFF4  73                 	db	115	;'s'
   791  00FFF5  75                 	db	117	;'u'
   792  00FFF6  6D                 	db	109	;'m'
   793  00FFF7  20                 	db	32
   794  00FFF8  25                 	db	37
   795  00FFF9  66                 	db	102	;'f'
   796  00FFFA  00                 	db	0
   797  00FFFB  00                 	db	0	; dummy byte at the end
   798  0000                     
   799                           ; #config settings
   800                           
   801                           	psect	cinit
   802  00BCB0                     __pcinit:
   803                           	callstack 0
   804  00BCB0                     start_initialization:
   805                           	callstack 0
   806  00BCB0                     __initialization:
   807                           	callstack 0
   808                           
   809                           ; Clear objects allocated to BANK1 (8 bytes)
   810  00BCB0  EE00  F1D3         	lfsr	0,__pbssBANK1
   811  00BCB4  0E08               	movlw	8
   812  00BCB6                     clear_0:
   813  00BCB6  6AEE               	clrf	postinc0,c
   814  00BCB8  06E8               	decf	wreg,f,c
   815  00BCBA  E1FD               	bnz	clear_0
   816                           
   817                           ; Clear objects allocated to COMRAM (1 bytes)
   818  00BCBC  6A4F               	clrf	__pbssCOMRAM& (0+255),c
   819  00BCBE                     end_of_initialization:
   820                           	callstack 0
   821  00BCBE                     __end_of__initialization:
   822                           	callstack 0
   823  00BCBE  0100               	movlb	0
   824  00BCC0  EFF3  F078         	goto	_main	;jump to C main() function
   825                           
   826                           	psect	bssCOMRAM
   827  00004F                     __pbssCOMRAM:
   828                           	callstack 0
   829  00004F                     _uart2RxLastError:
   830                           	callstack 0
   831  00004F                     	ds	1
   832                           
   833                           	psect	bssBANK1
   834  0001D3                     __pbssBANK1:
   835                           	callstack 0
   836  0001D3                     _last_switch1_value:
   837                           	callstack 0
   838  0001D3                     	ds	2
   839  0001D5                     _UART2_ErrorHandler:
   840                           	callstack 0
   841  0001D5                     	ds	2
   842  0001D7                     _UART2_OverrunErrorHandler:
   843                           	callstack 0
   844  0001D7                     	ds	2
   845  0001D9                     _UART2_FramingErrorHandler:
   846                           	callstack 0
   847  0001D9                     	ds	2
   848                           
   849                           	psect	cstackBANK1
   850  000100                     __pcstackBANK1:
   851                           	callstack 0
   852  000100                     main@dV:
   853                           	callstack 0
   854                           
   855                           ; 36 bytes @ 0x0
   856  000100                     	ds	36
   857  000124                     main@dt:
   858                           	callstack 0
   859                           
   860                           ; 36 bytes @ 0x24
   861  000124                     	ds	36
   862  000148                     main@MidT:
   863                           	callstack 0
   864                           
   865                           ; 36 bytes @ 0x48
   866  000148                     	ds	36
   867  00016C                     main@Vavg:
   868                           	callstack 0
   869                           
   870                           ; 36 bytes @ 0x6C
   871  00016C                     	ds	36
   872  000190                     main@timeData:
   873                           	callstack 0
   874                           
   875                           ; 36 bytes @ 0x90
   876  000190                     	ds	36
   877  0001B4                     main@accavg:
   878                           	callstack 0
   879                           
   880                           ; 4 bytes @ 0xB4
   881  0001B4                     	ds	4
   882  0001B8                     main@accavg1:
   883                           	callstack 0
   884                           
   885                           ; 4 bytes @ 0xB8
   886  0001B8                     	ds	4
   887  0001BC                     main@length1:
   888                           	callstack 0
   889                           
   890                           ; 5 bytes @ 0xBC
   891  0001BC                     	ds	5
   892  0001C1                     main@i:
   893                           	callstack 0
   894                           
   895                           ; 2 bytes @ 0xC1
   896  0001C1                     	ds	2
   897  0001C3                     main@length:
   898                           	callstack 0
   899                           
   900                           ; 4 bytes @ 0xC3
   901  0001C3                     	ds	4
   902  0001C7                     main@sum:
   903                           	callstack 0
   904                           
   905                           ; 4 bytes @ 0xC7
   906  0001C7                     	ds	4
   907  0001CB                     main@gaps:
   908                           	callstack 0
   909                           
   910                           ; 2 bytes @ 0xCB
   911  0001CB                     	ds	2
   912  0001CD                     main@j:
   913                           	callstack 0
   914                           
   915                           ; 2 bytes @ 0xCD
   916  0001CD                     	ds	2
   917  0001CF                     main@h:
   918                           	callstack 0
   919                           
   920                           ; 2 bytes @ 0xCF
   921  0001CF                     	ds	2
   922  0001D1                     main@k:
   923                           	callstack 0
   924                           
   925                           ; 2 bytes @ 0xD1
   926  0001D1                     	ds	2
   927                           
   928                           	psect	cstackBANK0
   929  000060                     __pcstackBANK0:
   930                           	callstack 0
   931  000060                     ?_printf:
   932                           	callstack 0
   933  000060                     printf@f:
   934                           	callstack 0
   935                           
   936                           ; 2 bytes @ 0x0
   937  000060                     	ds	30
   938  00007E                     _printf$1940:
   939                           	callstack 0
   940                           
   941                           ; 4 bytes @ 0x1E
   942  00007E                     	ds	4
   943  000082                     printf@ap:
   944                           	callstack 0
   945                           
   946                           ; 2 bytes @ 0x22
   947  000082                     	ds	2
   948  000084                     printf@flag:
   949                           	callstack 0
   950                           
   951                           ; 2 bytes @ 0x24
   952  000084                     	ds	2
   953  000086                     printf@prec:
   954                           	callstack 0
   955                           
   956                           ; 2 bytes @ 0x26
   957  000086                     	ds	2
   958  000088                     printf@val:
   959                           	callstack 0
   960                           
   961                           ; 4 bytes @ 0x28
   962  000088                     	ds	4
   963  00008C                     printf@eexp:
   964                           	callstack 0
   965                           
   966                           ; 2 bytes @ 0x2C
   967  00008C                     	ds	2
   968  00008E                     printf@tmpval:
   969                           	callstack 0
   970                           
   971                           ; 4 bytes @ 0x2E
   972  00008E                     	ds	4
   973  000092                     printf@fval:
   974                           	callstack 0
   975                           
   976                           ; 4 bytes @ 0x32
   977  000092                     	ds	4
   978  000096                     printf@c:
   979                           	callstack 0
   980                           
   981                           ; 1 bytes @ 0x36
   982  000096                     	ds	1
   983  000097                     ??_main:
   984                           
   985                           ; 1 bytes @ 0x37
   986  000097                     	ds	30
   987  0000B5                     main@dT:
   988                           	callstack 0
   989                           
   990                           ; 36 bytes @ 0x55
   991  0000B5                     	ds	36
   992  0000D9                     main@a:
   993                           	callstack 0
   994                           
   995                           ; 36 bytes @ 0x79
   996  0000D9                     	ds	36
   997  0000FD                     main@gap1:
   998                           	callstack 0
   999                           
  1000                           ; 3 bytes @ 0x9D
  1001  0000FD                     	ds	3
  1002                           
  1003                           	psect	cstackCOMRAM
  1004  000001                     __pcstackCOMRAM:
  1005                           	callstack 0
  1006  000001                     ??_isspace:
  1007  000001                     ??_isdigit:
  1008  000001                     ?___wmul:
  1009                           	callstack 0
  1010  000001                     ?___awmod:
  1011                           	callstack 0
  1012  000001                     ?___lwmod:
  1013                           	callstack 0
  1014  000001                     ?__tdiv_to_l_:
  1015                           	callstack 0
  1016  000001                     ?__div_to_l_:
  1017                           	callstack 0
  1018  000001                     ?_SMT1_GetCapturedPeriod:
  1019                           	callstack 0
  1020  000001                     ?___lmul:
  1021                           	callstack 0
  1022  000001                     ?___lldiv:
  1023                           	callstack 0
  1024  000001                     ?___flneg:
  1025                           	callstack 0
  1026  000001                     ?___xxtofl:
  1027                           	callstack 0
  1028  000001                     UART2_Write@txData:
  1029                           	callstack 0
  1030  000001                     UART2_SetFramingErrorHandler@interruptHandler:
  1031                           	callstack 0
  1032  000001                     UART2_SetOverrunErrorHandler@interruptHandler:
  1033                           	callstack 0
  1034  000001                     UART2_SetErrorHandler@interruptHandler:
  1035                           	callstack 0
  1036  000001                     ReadNUART2@holds_string:
  1037                           	callstack 0
  1038  000001                     ___wmul@multiplier:
  1039                           	callstack 0
  1040  000001                     ___awmod@dividend:
  1041                           	callstack 0
  1042  000001                     ___lwmod@dividend:
  1043                           	callstack 0
  1044  000001                     ___lmul@multiplier:
  1045                           	callstack 0
  1046  000001                     ___lldiv@dividend:
  1047                           	callstack 0
  1048  000001                     __div_to_l_@f1:
  1049                           	callstack 0
  1050  000001                     ___fleq@ff1:
  1051                           	callstack 0
  1052  000001                     ___flge@ff1:
  1053                           	callstack 0
  1054  000001                     ___flneg@f1:
  1055                           	callstack 0
  1056  000001                     __tdiv_to_l_@f1:
  1057                           	callstack 0
  1058  000001                     ___xxtofl@val:
  1059                           	callstack 0
  1060                           
  1061                           ; 4 bytes @ 0x0
  1062  000001                     	ds	1
  1063  000002                     putch@txData:
  1064                           	callstack 0
  1065  000002                     _isdigit$1634:
  1066                           	callstack 0
  1067  000002                     _isspace$1637:
  1068                           	callstack 0
  1069                           
  1070                           ; 1 bytes @ 0x1
  1071  000002                     	ds	1
  1072  000003                     isdigit@c:
  1073                           	callstack 0
  1074  000003                     isspace@c:
  1075                           	callstack 0
  1076  000003                     ReadNUART2@length_N:
  1077                           	callstack 0
  1078  000003                     ___wmul@multiplicand:
  1079                           	callstack 0
  1080  000003                     ___awmod@divisor:
  1081                           	callstack 0
  1082  000003                     ___lwmod@divisor:
  1083                           	callstack 0
  1084                           
  1085                           ; 2 bytes @ 0x2
  1086  000003                     	ds	2
  1087  000005                     ??_ReadNUART2:
  1088  000005                     ??___xxtofl:
  1089  000005                     ___awmod@counter:
  1090                           	callstack 0
  1091  000005                     ___lwmod@counter:
  1092                           	callstack 0
  1093  000005                     ___wmul@product:
  1094                           	callstack 0
  1095  000005                     ___lmul@multiplicand:
  1096                           	callstack 0
  1097  000005                     ___lldiv@divisor:
  1098                           	callstack 0
  1099  000005                     __div_to_l_@f2:
  1100                           	callstack 0
  1101  000005                     ___fleq@ff2:
  1102                           	callstack 0
  1103  000005                     ___flge@ff2:
  1104                           	callstack 0
  1105  000005                     __tdiv_to_l_@f2:
  1106                           	callstack 0
  1107                           
  1108                           ; 4 bytes @ 0x4
  1109  000005                     	ds	1
  1110  000006                     ?___lwdiv:
  1111                           	callstack 0
  1112  000006                     ___awmod@sign:
  1113                           	callstack 0
  1114  000006                     ___lwdiv@dividend:
  1115                           	callstack 0
  1116                           
  1117                           ; 2 bytes @ 0x5
  1118  000006                     	ds	1
  1119  000007                     ?_atoi:
  1120                           	callstack 0
  1121  000007                     ?___awdiv:
  1122                           	callstack 0
  1123  000007                     ReadNUART2@letter:
  1124                           	callstack 0
  1125  000007                     ___awdiv@dividend:
  1126                           	callstack 0
  1127  000007                     atoi@s:
  1128                           	callstack 0
  1129                           
  1130                           ; 2 bytes @ 0x6
  1131  000007                     	ds	1
  1132  000008                     ___lwdiv@divisor:
  1133                           	callstack 0
  1134                           
  1135                           ; 2 bytes @ 0x7
  1136  000008                     	ds	1
  1137  000009                     ??_atoi:
  1138  000009                     ??__tdiv_to_l_:
  1139  000009                     ??___fleq:
  1140  000009                     ??___flge:
  1141  000009                     ___xxtofl@sign:
  1142                           	callstack 0
  1143  000009                     ReadNUART2@i:
  1144                           	callstack 0
  1145  000009                     ___awdiv@divisor:
  1146                           	callstack 0
  1147  000009                     ___lmul@product:
  1148                           	callstack 0
  1149  000009                     ___lldiv@quotient:
  1150                           	callstack 0
  1151  000009                     __div_to_l_@quot:
  1152                           	callstack 0
  1153                           
  1154                           ; 4 bytes @ 0x8
  1155  000009                     	ds	1
  1156  00000A                     ___xxtofl@exp:
  1157                           	callstack 0
  1158  00000A                     ___lwdiv@quotient:
  1159                           	callstack 0
  1160                           
  1161                           ; 2 bytes @ 0x9
  1162  00000A                     	ds	1
  1163  00000B                     ___awdiv@counter:
  1164                           	callstack 0
  1165  00000B                     atoi@sign:
  1166                           	callstack 0
  1167  00000B                     ___xxtofl@arg:
  1168                           	callstack 0
  1169                           
  1170                           ; 4 bytes @ 0xA
  1171  00000B                     	ds	1
  1172  00000C                     ___awdiv@sign:
  1173                           	callstack 0
  1174  00000C                     ___lwdiv@counter:
  1175                           	callstack 0
  1176  00000C                     atoi@a:
  1177                           	callstack 0
  1178  00000C                     __tdiv_to_l_@quot:
  1179                           	callstack 0
  1180                           
  1181                           ; 4 bytes @ 0xB
  1182  00000C                     	ds	1
  1183  00000D                     ___lldiv@counter:
  1184                           	callstack 0
  1185  00000D                     __div_to_l_@cntr:
  1186                           	callstack 0
  1187  00000D                     ___awdiv@quotient:
  1188                           	callstack 0
  1189                           
  1190                           ; 2 bytes @ 0xC
  1191  00000D                     	ds	1
  1192  00000E                     ?___llmod:
  1193                           	callstack 0
  1194  00000E                     __div_to_l_@exp1:
  1195                           	callstack 0
  1196  00000E                     ___llmod@dividend:
  1197                           	callstack 0
  1198                           
  1199                           ; 4 bytes @ 0xD
  1200  00000E                     	ds	1
  1201  00000F                     ?___fldiv:
  1202                           	callstack 0
  1203  00000F                     ?___flmul:
  1204                           	callstack 0
  1205  00000F                     ___fldiv@b:
  1206                           	callstack 0
  1207  00000F                     ___flmul@b:
  1208                           	callstack 0
  1209                           
  1210                           ; 4 bytes @ 0xE
  1211  00000F                     	ds	1
  1212  000010                     __tdiv_to_l_@cntr:
  1213                           	callstack 0
  1214                           
  1215                           ; 1 bytes @ 0xF
  1216  000010                     	ds	1
  1217  000011                     __tdiv_to_l_@exp1:
  1218                           	callstack 0
  1219                           
  1220                           ; 1 bytes @ 0x10
  1221  000011                     	ds	1
  1222  000012                     ___llmod@divisor:
  1223                           	callstack 0
  1224                           
  1225                           ; 4 bytes @ 0x11
  1226  000012                     	ds	1
  1227  000013                     ___fldiv@a:
  1228                           	callstack 0
  1229  000013                     ___flmul@a:
  1230                           	callstack 0
  1231                           
  1232                           ; 4 bytes @ 0x12
  1233  000013                     	ds	3
  1234  000016                     ___llmod@counter:
  1235                           	callstack 0
  1236                           
  1237                           ; 1 bytes @ 0x15
  1238  000016                     	ds	1
  1239  000017                     ??___fldiv:
  1240  000017                     ??___flmul:
  1241                           
  1242                           ; 1 bytes @ 0x16
  1243  000017                     	ds	4
  1244  00001B                     ___flmul@sign:
  1245                           	callstack 0
  1246  00001B                     ___fldiv@rem:
  1247                           	callstack 0
  1248                           
  1249                           ; 4 bytes @ 0x1A
  1250  00001B                     	ds	1
  1251  00001C                     ___flmul@grs:
  1252                           	callstack 0
  1253                           
  1254                           ; 4 bytes @ 0x1B
  1255  00001C                     	ds	3
  1256  00001F                     ___fldiv@sign:
  1257                           	callstack 0
  1258                           
  1259                           ; 1 bytes @ 0x1E
  1260  00001F                     	ds	1
  1261  000020                     ___flmul@aexp:
  1262                           	callstack 0
  1263  000020                     ___fldiv@new_exp:
  1264                           	callstack 0
  1265                           
  1266                           ; 2 bytes @ 0x1F
  1267  000020                     	ds	1
  1268  000021                     ___flmul@bexp:
  1269                           	callstack 0
  1270                           
  1271                           ; 1 bytes @ 0x20
  1272  000021                     	ds	1
  1273  000022                     ___fldiv@grs:
  1274                           	callstack 0
  1275  000022                     ___flmul@prod:
  1276                           	callstack 0
  1277                           
  1278                           ; 4 bytes @ 0x21
  1279  000022                     	ds	4
  1280  000026                     ___fldiv@bexp:
  1281                           	callstack 0
  1282  000026                     ___flmul@temp:
  1283                           	callstack 0
  1284                           
  1285                           ; 2 bytes @ 0x25
  1286  000026                     	ds	1
  1287  000027                     ___fldiv@aexp:
  1288                           	callstack 0
  1289                           
  1290                           ; 1 bytes @ 0x26
  1291  000027                     	ds	1
  1292  000028                     ?_fround:
  1293                           	callstack 0
  1294  000028                     ?_scale:
  1295                           	callstack 0
  1296  000028                     ?_strtod:
  1297                           	callstack 0
  1298  000028                     strtod@s:
  1299                           	callstack 0
  1300                           
  1301                           ; 2 bytes @ 0x27
  1302  000028                     	ds	2
  1303  00002A                     strtod@res:
  1304                           	callstack 0
  1305                           
  1306                           ; 2 bytes @ 0x29
  1307  00002A                     	ds	2
  1308  00002C                     ??_strtod:
  1309  00002C                     _fround$1938:
  1310                           	callstack 0
  1311  00002C                     _scale$1939:
  1312                           	callstack 0
  1313                           
  1314                           ; 4 bytes @ 0x2B
  1315  00002C                     	ds	1
  1316  00002D                     strtod@eexp:
  1317                           	callstack 0
  1318                           
  1319                           ; 1 bytes @ 0x2C
  1320  00002D                     	ds	1
  1321  00002E                     strtod@flags:
  1322                           	callstack 0
  1323                           
  1324                           ; 1 bytes @ 0x2D
  1325  00002E                     	ds	1
  1326  00002F                     strtod@expon:
  1327                           	callstack 0
  1328                           
  1329                           ; 1 bytes @ 0x2E
  1330  00002F                     	ds	1
  1331  000030                     scale@scl:
  1332                           	callstack 0
  1333  000030                     strtod@_u:
  1334                           	callstack 0
  1335  000030                     _fround$1937:
  1336                           	callstack 0
  1337                           
  1338                           ; 4 bytes @ 0x2F
  1339  000030                     	ds	1
  1340  000031                     ?___fltol:
  1341                           	callstack 0
  1342  000031                     ___fltol@f1:
  1343                           	callstack 0
  1344                           
  1345                           ; 4 bytes @ 0x30
  1346  000031                     	ds	3
  1347  000034                     ?_atof:
  1348                           	callstack 0
  1349  000034                     fround@prec:
  1350                           	callstack 0
  1351  000034                     atof@s:
  1352                           	callstack 0
  1353                           
  1354                           ; 2 bytes @ 0x33
  1355  000034                     	ds	1
  1356  000035                     ??___fltol:
  1357  000035                     ?___fladd:
  1358                           	callstack 0
  1359  000035                     ___fladd@b:
  1360                           	callstack 0
  1361                           
  1362                           ; 4 bytes @ 0x34
  1363  000035                     	ds	3
  1364  000038                     
  1365                           ; 1 bytes @ 0x37
  1366  000038                     	ds	1
  1367  000039                     ___fltol@sign1:
  1368                           	callstack 0
  1369  000039                     ___fladd@a:
  1370                           	callstack 0
  1371                           
  1372                           ; 4 bytes @ 0x38
  1373  000039                     	ds	1
  1374  00003A                     ___fltol@exp1:
  1375                           	callstack 0
  1376                           
  1377                           ; 1 bytes @ 0x39
  1378  00003A                     	ds	3
  1379  00003D                     ??___fladd:
  1380                           
  1381                           ; 1 bytes @ 0x3C
  1382  00003D                     	ds	4
  1383  000041                     ___fladd@signs:
  1384                           	callstack 0
  1385                           
  1386                           ; 1 bytes @ 0x40
  1387  000041                     	ds	1
  1388  000042                     ___fladd@aexp:
  1389                           	callstack 0
  1390                           
  1391                           ; 1 bytes @ 0x41
  1392  000042                     	ds	1
  1393  000043                     ___fladd@bexp:
  1394                           	callstack 0
  1395                           
  1396                           ; 1 bytes @ 0x42
  1397  000043                     	ds	1
  1398  000044                     ___fladd@grs:
  1399                           	callstack 0
  1400                           
  1401                           ; 1 bytes @ 0x43
  1402  000044                     	ds	1
  1403  000045                     ?___flsub:
  1404                           	callstack 0
  1405  000045                     ___flsub@b:
  1406                           	callstack 0
  1407                           
  1408                           ; 4 bytes @ 0x44
  1409  000045                     	ds	4
  1410  000049                     ___flsub@a:
  1411                           	callstack 0
  1412                           
  1413                           ; 4 bytes @ 0x48
  1414  000049                     	ds	4
  1415  00004D                     ??_printf:
  1416  00004D                     
  1417                           ; 1 bytes @ 0x4C
  1418  00004D                     	ds	2
  1419  00004F                     
  1420                           ; 1 bytes @ 0x4E
  1421 ;;
  1422 ;;Main: autosize = 0, tempsize = 18, incstack = 0, save=0
  1423 ;;
  1424 ;; *************** function _main *****************
  1425 ;; Defined at:
  1426 ;;		line 21 in file "main.c"
  1427 ;; Parameters:    Size  Location     Type
  1428 ;;		None
  1429 ;; Auto vars:     Size  Location     Type
  1430 ;;  timeData       36  144[BANK1 ] unsigned long [9]
  1431 ;;  Vavg           36  108[BANK1 ] float [9]
  1432 ;;  MidT           36   72[BANK1 ] unsigned long [9]
  1433 ;;  dt             36   36[BANK1 ] unsigned long [9]
  1434 ;;  dV             36    0[BANK1 ] float [9]
  1435 ;;  a              36  121[BANK0 ] float [9]
  1436 ;;  dT             36   85[BANK0 ] unsigned long [9]
  1437 ;;  length1         5  188[BANK1 ] unsigned char [5]
  1438 ;;  sum             4  199[BANK1 ] float 
  1439 ;;  length          4  195[BANK1 ] float 
  1440 ;;  accavg1         4  184[BANK1 ] float 
  1441 ;;  accavg          4  180[BANK1 ] float 
  1442 ;;  time6           4    0        unsigned long 
  1443 ;;  time5           4    0        unsigned long 
  1444 ;;  time4           4    0        unsigned long 
  1445 ;;  time3           4    0        unsigned long 
  1446 ;;  time2           4    0        unsigned long 
  1447 ;;  time1           4    0        unsigned long 
  1448 ;;  micro2second    4    0        unsigned long 
  1449 ;;  gap1            3  157[BANK0 ] unsigned char [3]
  1450 ;;  k               2  209[BANK1 ] int 
  1451 ;;  h               2  207[BANK1 ] int 
  1452 ;;  j               2  205[BANK1 ] int 
  1453 ;;  gaps            2  203[BANK1 ] int 
  1454 ;;  i               2  193[BANK1 ] int 
  1455 ;; Return value:  Size  Location     Type
  1456 ;;                  1    wreg      void 
  1457 ;; Registers used:
  1458 ;;		wreg, fsr2l, fsr2h, status,2, status,0, pclath, tosl, tblptrl, tblptrh, tblptru, prodl, prodh, cstack
  1459 ;; Tracked objects:
  1460 ;;		On entry : 0/0
  1461 ;;		On exit  : 0/0
  1462 ;;		Unchanged: 0/0
  1463 ;; Data sizes:     COMRAM   BANK0   BANK1   BANK2   BANK3   BANK4   BANK5   BANK6   BANK7   BANK8   BANK9  BANK10  BANK1
      +1  BANK12  BANK13  BANK14  BANK15
  1464 ;;      Params:         0       0       0       0       0       0       0       0       0       0       0       0       
      +0       0       0       0       0
  1465 ;;      Locals:        16      87     211       0       0       0       0       0       0       0       0       0       
      +0       0       0       0       0
  1466 ;;      Temps:          0      18       0       0       0       0       0       0       0       0       0       0       
      +0       0       0       0       0
  1467 ;;      Totals:        16     105     211       0       0       0       0       0       0       0       0       0       
      +0       0       0       0       0
  1468 ;;Total ram usage:      332 bytes
  1469 ;; Hardware stack levels required when called:    4
  1470 ;; This function calls:
  1471 ;;		_ReadNUART2
  1472 ;;		_SMT1_DataAcquisitionEnable
  1473 ;;		_SMT1_GetCapturedPeriod
  1474 ;;		_SMT1_ManualTimerReset
  1475 ;;		_SMT1_RepeatDataAcquisition
  1476 ;;		_SYSTEM_Initialize
  1477 ;;		___fladd
  1478 ;;		___fldiv
  1479 ;;		___fleq
  1480 ;;		___flmul
  1481 ;;		___flsub
  1482 ;;		___lldiv
  1483 ;;		___xxtofl
  1484 ;;		_atof
  1485 ;;		_atoi
  1486 ;;		_clearPuTTY
  1487 ;;		_printf
  1488 ;; This function is called by:
  1489 ;;		Startup code after reset
  1490 ;; This function uses a non-reentrant model
  1491 ;;
  1492                           
  1493                           	psect	text0
  1494  00F1E6                     __ptext0:
  1495                           	callstack 0
  1496  00F1E6                     _main:
  1497                           	callstack 27
  1498  00F1E6                     
  1499                           ;main.c: 24: SYSTEM_Initialize();
  1500  00F1E6  EC95  F05E         	call	_SYSTEM_Initialize	;wreg free
  1501  00F1EA                     
  1502                           ;main.c: 31: clearPuTTY();
  1503  00F1EA  EC4F  F060         	call	_clearPuTTY	;wreg free
  1504  00F1EE                     
  1505                           ;main.c: 33: printf("SMT1 Capture Test - SMT1WIN on RC0\n\r");
  1506  00F1EE  0E12               	movlw	low STR_1
  1507  00F1F0  0100               	movlb	0	; () banked
  1508  00F1F2  6F60               	movwf	printf@f& (0+255),b
  1509  00F1F4  0EFF               	movlw	high STR_1
  1510  00F1F6  6F61               	movwf	(printf@f+1)& (0+255),b
  1511  00F1F8  EC33  F074         	call	_printf	;wreg free
  1512  00F1FC                     
  1513                           ;main.c: 35: printf("SMT Mode = %u \n\n\r",SMT1CON1bits.MODE);
  1514  00F1FC  0ED7               	movlw	low STR_2
  1515  00F1FE  0100               	movlb	0	; () banked
  1516  00F200  6F60               	movwf	printf@f& (0+255),b
  1517  00F202  0EFF               	movlw	high STR_2
  1518  00F204  6F61               	movwf	(printf@f+1)& (0+255),b
  1519  00F206  013F               	movlb	63	; () banked
  1520  00F208  511F               	movf	31,w,b	;volatile
  1521  00F20A  0B0F               	andlw	15
  1522  00F20C  0100               	movlb	0	; () banked
  1523  00F20E  6F97               	movwf	??_main& (0+255),b
  1524  00F210  5197               	movf	??_main& (0+255),w,b
  1525  00F212  6F62               	movwf	(?_printf+2)& (0+255),b
  1526  00F214  6B63               	clrf	(?_printf+3)& (0+255),b
  1527  00F216  EC33  F074         	call	_printf	;wreg free
  1528  00F21A                     
  1529                           ;main.c: 38: SMT1CON0bits.EN = 1;
  1530  00F21A  013F               	movlb	63	; () banked
  1531  00F21C  8F1E               	bsf	30,7,b	;volatile
  1532  00F21E                     
  1533                           ; BSR set to: 63
  1534                           ;main.c: 39: SMT1_DataAcquisitionEnable();
  1535  00F21E  EC32  F05E         	call	_SMT1_DataAcquisitionEnable	;wreg free
  1536  00F222                     
  1537                           ;main.c: 41: SMT1_RepeatDataAcquisition();
  1538  00F222  EC38  F05E         	call	_SMT1_RepeatDataAcquisition	;wreg free
  1539  00F226                     
  1540                           ;main.c: 42: SMT1_ManualTimerReset();
  1541  00F226  EC35  F05E         	call	_SMT1_ManualTimerReset	;wreg free
  1542  00F22A                     l4877:
  1543  00F22A  86BD               	bsf	189,3,c	;volatile
  1544  00F22C  94BD               	bcf	189,2,c	;volatile
  1545  00F22E                     
  1546                           ;main.c: 75: sum=0;
  1547  00F22E  0E00               	movlw	0
  1548  00F230  0101               	movlb	1	; () banked
  1549  00F232  6FC7               	movwf	main@sum& (0+255),b
  1550  00F234  0E00               	movlw	0
  1551  00F236  6FC8               	movwf	(main@sum+1)& (0+255),b
  1552  00F238  0E00               	movlw	0
  1553  00F23A  6FC9               	movwf	(main@sum+2)& (0+255),b
  1554  00F23C  0E00               	movlw	0
  1555  00F23E  6FCA               	movwf	(main@sum+3)& (0+255),b
  1556  00F240                     
  1557                           ; BSR set to: 1
  1558                           ;main.c: 76: printf("\n\rEnter number of gaps\n\r>");
  1559  00F240  0E75               	movlw	low STR_3
  1560  00F242  0100               	movlb	0	; () banked
  1561  00F244  6F60               	movwf	printf@f& (0+255),b
  1562  00F246  0EFF               	movlw	high STR_3
  1563  00F248  6F61               	movwf	(printf@f+1)& (0+255),b
  1564  00F24A  EC33  F074         	call	_printf	;wreg free
  1565  00F24E                     
  1566                           ;main.c: 77: ReadNUART2(gap1,3);
  1567  00F24E  0EFD               	movlw	low main@gap1
  1568  00F250  6E01               	movwf	ReadNUART2@holds_string^0,c
  1569  00F252  0E00               	movlw	high main@gap1
  1570  00F254  6E02               	movwf	(ReadNUART2@holds_string+1)^0,c
  1571  00F256  0E00               	movlw	0
  1572  00F258  6E04               	movwf	(ReadNUART2@length_N+1)^0,c
  1573  00F25A  0E03               	movlw	3
  1574  00F25C  6E03               	movwf	ReadNUART2@length_N^0,c
  1575  00F25E  EC76  F062         	call	_ReadNUART2	;wreg free
  1576  00F262                     
  1577                           ;main.c: 78: gaps=atoi(gap1);
  1578  00F262  0EFD               	movlw	low main@gap1
  1579  00F264  6E07               	movwf	atoi@s^0,c
  1580  00F266  0E00               	movlw	high main@gap1
  1581  00F268  6E08               	movwf	(atoi@s+1)^0,c
  1582  00F26A  EC3D  F064         	call	_atoi	;wreg free
  1583  00F26E  C007  F1CB         	movff	?_atoi,main@gaps
  1584  00F272  C008  F1CC         	movff	?_atoi+1,main@gaps+1
  1585  00F276                     
  1586                           ;main.c: 79: if(gaps == 0)
  1587  00F276  0101               	movlb	1	; () banked
  1588  00F278  51CB               	movf	main@gaps& (0+255),w,b
  1589  00F27A  11CC               	iorwf	(main@gaps+1)& (0+255),w,b
  1590  00F27C  A4D8               	btfss	status,2,c
  1591  00F27E  EF43  F079         	goto	u5081
  1592  00F282  EF45  F079         	goto	u5080
  1593  00F286                     u5081:
  1594  00F286  EF4E  F079         	goto	l4893
  1595  00F28A                     u5080:
  1596  00F28A                     
  1597                           ; BSR set to: 1
  1598                           ;main.c: 80: {;main.c: 81: printf("\n\rplease enter a number");
  1599  00F28A  0EA8               	movlw	low STR_4
  1600  00F28C  0100               	movlb	0	; () banked
  1601  00F28E  6F60               	movwf	printf@f& (0+255),b
  1602  00F290  0EFF               	movlw	high STR_4
  1603  00F292  6F61               	movwf	(printf@f+1)& (0+255),b
  1604  00F294  EC33  F074         	call	_printf	;wreg free
  1605                           
  1606                           ;main.c: 82: }
  1607  00F298  EF15  F079         	goto	l4877
  1608  00F29C                     l4893:
  1609                           
  1610                           ; BSR set to: 1
  1611                           ;main.c: 83: else;main.c: 84: {;main.c: 85: printf("\n\rEnter float or integer for lengt
      +                          h of edge to edge in mm\n\r>");
  1612  00F29C  0E1D               	movlw	low STR_5
  1613  00F29E  0100               	movlb	0	; () banked
  1614  00F2A0  6F60               	movwf	printf@f& (0+255),b
  1615  00F2A2  0EFE               	movlw	high STR_5
  1616  00F2A4  6F61               	movwf	(printf@f+1)& (0+255),b
  1617  00F2A6  EC33  F074         	call	_printf	;wreg free
  1618  00F2AA                     
  1619                           ;main.c: 86: ReadNUART2(length1,5);
  1620  00F2AA  0EBC               	movlw	low main@length1
  1621  00F2AC  6E01               	movwf	ReadNUART2@holds_string^0,c
  1622  00F2AE  0E01               	movlw	high main@length1
  1623  00F2B0  6E02               	movwf	(ReadNUART2@holds_string+1)^0,c
  1624  00F2B2  0E00               	movlw	0
  1625  00F2B4  6E04               	movwf	(ReadNUART2@length_N+1)^0,c
  1626  00F2B6  0E05               	movlw	5
  1627  00F2B8  6E03               	movwf	ReadNUART2@length_N^0,c
  1628  00F2BA  EC76  F062         	call	_ReadNUART2	;wreg free
  1629  00F2BE                     
  1630                           ;main.c: 87: length=atof(length1);
  1631  00F2BE  0EBC               	movlw	low main@length1
  1632  00F2C0  6E34               	movwf	atof@s^0,c
  1633  00F2C2  0E01               	movlw	high main@length1
  1634  00F2C4  6E35               	movwf	(atof@s+1)^0,c
  1635  00F2C6  ECC9  F05E         	call	_atof	;wreg free
  1636  00F2CA  C034  F1C3         	movff	?_atof,main@length
  1637  00F2CE  C035  F1C4         	movff	?_atof+1,main@length+1
  1638  00F2D2  C036  F1C5         	movff	?_atof+2,main@length+2
  1639  00F2D6  C037  F1C6         	movff	?_atof+3,main@length+3
  1640  00F2DA                     
  1641                           ;main.c: 88: if(length == 0)
  1642  00F2DA  C1C3  F001         	movff	main@length,___fleq@ff1
  1643  00F2DE  C1C4  F002         	movff	main@length+1,___fleq@ff1+1
  1644  00F2E2  C1C5  F003         	movff	main@length+2,___fleq@ff1+2
  1645  00F2E6  C1C6  F004         	movff	main@length+3,___fleq@ff1+3
  1646  00F2EA  0E00               	movlw	0
  1647  00F2EC  6E05               	movwf	___fleq@ff2^0,c
  1648  00F2EE  0E00               	movlw	0
  1649  00F2F0  6E06               	movwf	(___fleq@ff2+1)^0,c
  1650  00F2F2  0E00               	movlw	0
  1651  00F2F4  6E07               	movwf	(___fleq@ff2+2)^0,c
  1652  00F2F6  0E00               	movlw	0
  1653  00F2F8  6E08               	movwf	(___fleq@ff2+3)^0,c
  1654  00F2FA  ECC9  F061         	call	___fleq	;wreg free
  1655  00F2FE  A0D8               	btfss	status,0,c
  1656  00F300  EF84  F079         	goto	u5091
  1657  00F304  EF86  F079         	goto	u5090
  1658  00F308                     u5091:
  1659  00F308  EF8F  F079         	goto	l4903
  1660  00F30C                     u5090:
  1661  00F30C                     
  1662                           ;main.c: 89: {;main.c: 90: printf("\n\rplease enter a integer or float for length in mm"
      +                          );
  1663  00F30C  0E8D               	movlw	low STR_6
  1664  00F30E  0100               	movlb	0	; () banked
  1665  00F310  6F60               	movwf	printf@f& (0+255),b
  1666  00F312  0EFE               	movlw	high STR_6
  1667  00F314  6F61               	movwf	(printf@f+1)& (0+255),b
  1668  00F316  EC33  F074         	call	_printf	;wreg free
  1669                           
  1670                           ;main.c: 91: }
  1671  00F31A  EF15  F079         	goto	l4877
  1672  00F31E                     l4903:
  1673                           
  1674                           ;main.c: 92: else;main.c: 93: {;main.c: 94: printf("\n\n\rYou have entered the following
      +                          :");
  1675  00F31E  0E37               	movlw	low STR_7
  1676  00F320  0100               	movlb	0	; () banked
  1677  00F322  6F60               	movwf	printf@f& (0+255),b
  1678  00F324  0EFF               	movlw	high STR_7
  1679  00F326  6F61               	movwf	(printf@f+1)& (0+255),b
  1680  00F328  EC33  F074         	call	_printf	;wreg free
  1681                           
  1682                           ;main.c: 95: printf("\n\rNumber of gaps is %u",gaps);
  1683  00F32C  0EC0               	movlw	low STR_8
  1684  00F32E  0100               	movlb	0	; () banked
  1685  00F330  6F60               	movwf	printf@f& (0+255),b
  1686  00F332  0EFF               	movlw	high STR_8
  1687  00F334  6F61               	movwf	(printf@f+1)& (0+255),b
  1688  00F336  C1CB  F062         	movff	main@gaps,?_printf+2
  1689  00F33A  C1CC  F063         	movff	main@gaps+1,?_printf+3
  1690  00F33E  EC33  F074         	call	_printf	;wreg free
  1691                           
  1692                           ;main.c: 96: printf("\n\rLength of picket is %f",length);
  1693  00F342  0E8F               	movlw	low STR_9
  1694  00F344  0100               	movlb	0	; () banked
  1695  00F346  6F60               	movwf	printf@f& (0+255),b
  1696  00F348  0EFF               	movlw	high STR_9
  1697  00F34A  6F61               	movwf	(printf@f+1)& (0+255),b
  1698  00F34C  C1C3  F062         	movff	main@length,?_printf+2
  1699  00F350  C1C4  F063         	movff	main@length+1,?_printf+3
  1700  00F354  C1C5  F064         	movff	main@length+2,?_printf+4
  1701  00F358  C1C6  F065         	movff	main@length+3,?_printf+5
  1702  00F35C  EC33  F074         	call	_printf	;wreg free
  1703                           
  1704                           ;main.c: 97: printf("\n\rStart your data collection now\n\r>\n\r");
  1705  00F360  0EEC               	movlw	low STR_10
  1706  00F362  0100               	movlb	0	; () banked
  1707  00F364  6F60               	movwf	printf@f& (0+255),b
  1708  00F366  0EFE               	movlw	high STR_10
  1709  00F368  6F61               	movwf	(printf@f+1)& (0+255),b
  1710  00F36A  EC33  F074         	call	_printf	;wreg free
  1711  00F36E  96BD               	bcf	189,3,c	;volatile
  1712  00F370  84BD               	bsf	189,2,c	;volatile
  1713  00F372                     
  1714                           ;main.c: 100: for(i=0;i<gaps;i++)
  1715  00F372  0E00               	movlw	0
  1716  00F374  0101               	movlb	1	; () banked
  1717  00F376  6FC2               	movwf	(main@i+1)& (0+255),b
  1718  00F378  0E00               	movlw	0
  1719  00F37A  6FC1               	movwf	main@i& (0+255),b
  1720  00F37C  EFED  F079         	goto	l4915
  1721  00F380                     l490:
  1722                           
  1723                           ; BSR set to: 0
  1724                           ;main.c: 101: {;main.c: 104: PIR1bits.SMT1PRAIF = 0;
  1725  00F380  0139               	movlb	57	; () banked
  1726  00F382  9DA1               	bcf	161,6,b	;volatile
  1727  00F384                     l491:
  1728                           
  1729                           ; BSR set to: 57
  1730  00F384  ADA1               	btfss	161,6,b	;volatile
  1731  00F386  EFC7  F079         	goto	u5101
  1732  00F38A  EFC9  F079         	goto	u5100
  1733  00F38E                     u5101:
  1734  00F38E  EFC2  F079         	goto	l491
  1735  00F392                     u5100:
  1736  00F392                     
  1737                           ; BSR set to: 57
  1738                           ;main.c: 106: timeData[i] = SMT1_GetCapturedPeriod();
  1739  00F392  EC4F  F05E         	call	_SMT1_GetCapturedPeriod	;wreg free
  1740  00F396  0E90               	movlw	low main@timeData
  1741  00F398  0100               	movlb	0	; () banked
  1742  00F39A  6F97               	movwf	??_main& (0+255),b
  1743  00F39C  0E01               	movlw	high main@timeData
  1744  00F39E  6F98               	movwf	(??_main+1)& (0+255),b
  1745  00F3A0  90D8               	bcf	status,0,c
  1746  00F3A2  0101               	movlb	1	; () banked
  1747  00F3A4  35C1               	rlcf	main@i& (0+255),w,b
  1748  00F3A6  6ED9               	movwf	fsr2l,c
  1749  00F3A8  35C2               	rlcf	(main@i+1)& (0+255),w,b
  1750  00F3AA  6EDA               	movwf	fsr2h,c
  1751  00F3AC  90D8               	bcf	status,0,c
  1752  00F3AE  36D9               	rlcf	fsr2l,f,c
  1753  00F3B0  36DA               	rlcf	fsr2h,f,c
  1754  00F3B2  0100               	movlb	0	; () banked
  1755  00F3B4  5197               	movf	??_main& (0+255),w,b
  1756  00F3B6  26D9               	addwf	fsr2l,f,c
  1757  00F3B8  5198               	movf	(??_main+1)& (0+255),w,b
  1758  00F3BA  22DA               	addwfc	fsr2h,f,c
  1759  00F3BC  0060  F007  FFDE   	movff	?_SMT1_GetCapturedPeriod,postinc2
  1760  00F3C2  0060  F00B  FFDE   	movff	?_SMT1_GetCapturedPeriod+1,postinc2
  1761  00F3C8  0060  F00F  FFDE   	movff	?_SMT1_GetCapturedPeriod+2,postinc2
  1762  00F3CE  0060  F013  FFDE   	movff	?_SMT1_GetCapturedPeriod+3,postinc2
  1763  00F3D4                     
  1764                           ; BSR set to: 0
  1765  00F3D4  0101               	movlb	1	; () banked
  1766  00F3D6  4BC1               	infsnz	main@i& (0+255),f,b
  1767  00F3D8  2BC2               	incf	(main@i+1)& (0+255),f,b
  1768  00F3DA                     l4915:
  1769                           
  1770                           ; BSR set to: 1
  1771  00F3DA  51CB               	movf	main@gaps& (0+255),w,b
  1772  00F3DC  5DC1               	subwf	main@i& (0+255),w,b
  1773  00F3DE  51C2               	movf	(main@i+1)& (0+255),w,b
  1774  00F3E0  0A80               	xorlw	128
  1775  00F3E2  0100               	movlb	0	; () banked
  1776  00F3E4  6F97               	movwf	??_main& (0+255),b
  1777  00F3E6  0101               	movlb	1	; () banked
  1778  00F3E8  51CC               	movf	(main@gaps+1)& (0+255),w,b
  1779  00F3EA  0A80               	xorlw	128
  1780  00F3EC  0100               	movlb	0	; () banked
  1781  00F3EE  5997               	subwfb	??_main& (0+255),w,b
  1782  00F3F0  A0D8               	btfss	status,0,c
  1783  00F3F2  EFFD  F079         	goto	u5111
  1784  00F3F6  EFFF  F079         	goto	u5110
  1785  00F3FA                     u5111:
  1786  00F3FA  EFC0  F079         	goto	l490
  1787  00F3FE                     u5110:
  1788  00F3FE                     
  1789                           ; BSR set to: 0
  1790                           ;main.c: 112: };main.c: 115: for(h=0;h<gaps;h++)
  1791  00F3FE  0E00               	movlw	0
  1792  00F400  0101               	movlb	1	; () banked
  1793  00F402  6FD0               	movwf	(main@h+1)& (0+255),b
  1794  00F404  0E00               	movlw	0
  1795  00F406  6FCF               	movwf	main@h& (0+255),b
  1796  00F408  EF50  F07A         	goto	l4923
  1797  00F40C                     l4919:
  1798                           
  1799                           ; BSR set to: 0
  1800                           ;main.c: 116: {;main.c: 117: timeData[h]=timeData[h]/1000;
  1801  00F40C  0E90               	movlw	low main@timeData
  1802  00F40E  6F97               	movwf	??_main& (0+255),b
  1803  00F410  0E01               	movlw	high main@timeData
  1804  00F412  6F98               	movwf	(??_main+1)& (0+255),b
  1805  00F414  90D8               	bcf	status,0,c
  1806  00F416  0101               	movlb	1	; () banked
  1807  00F418  35CF               	rlcf	main@h& (0+255),w,b
  1808  00F41A  6ED9               	movwf	fsr2l,c
  1809  00F41C  35D0               	rlcf	(main@h+1)& (0+255),w,b
  1810  00F41E  6EDA               	movwf	fsr2h,c
  1811  00F420  90D8               	bcf	status,0,c
  1812  00F422  36D9               	rlcf	fsr2l,f,c
  1813  00F424  36DA               	rlcf	fsr2h,f,c
  1814  00F426  0100               	movlb	0	; () banked
  1815  00F428  5197               	movf	??_main& (0+255),w,b
  1816  00F42A  26D9               	addwf	fsr2l,f,c
  1817  00F42C  5198               	movf	(??_main+1)& (0+255),w,b
  1818  00F42E  22DA               	addwfc	fsr2h,f,c
  1819  00F430  006F FF78  F001    	movff	postinc2,___lldiv@dividend
  1820  00F436  006F FF78  F002    	movff	postinc2,___lldiv@dividend+1
  1821  00F43C  006F FF78  F003    	movff	postinc2,___lldiv@dividend+2
  1822  00F442  006F FF78  F004    	movff	postinc2,___lldiv@dividend+3
  1823  00F448  0EE8               	movlw	232
  1824  00F44A  6E05               	movwf	___lldiv@divisor^0,c
  1825  00F44C  0E03               	movlw	3
  1826  00F44E  6E06               	movwf	(___lldiv@divisor+1)^0,c
  1827  00F450  0E00               	movlw	0
  1828  00F452  6E07               	movwf	(___lldiv@divisor+2)^0,c
  1829  00F454  0E00               	movlw	0
  1830  00F456  6E08               	movwf	(___lldiv@divisor+3)^0,c
  1831  00F458  EC23  F061         	call	___lldiv	;wreg free
  1832  00F45C  0E90               	movlw	low main@timeData
  1833  00F45E  0100               	movlb	0	; () banked
  1834  00F460  6F99               	movwf	(??_main+2)& (0+255),b
  1835  00F462  0E01               	movlw	high main@timeData
  1836  00F464  6F9A               	movwf	(??_main+3)& (0+255),b
  1837  00F466  90D8               	bcf	status,0,c
  1838  00F468  0101               	movlb	1	; () banked
  1839  00F46A  35CF               	rlcf	main@h& (0+255),w,b
  1840  00F46C  6ED9               	movwf	fsr2l,c
  1841  00F46E  35D0               	rlcf	(main@h+1)& (0+255),w,b
  1842  00F470  6EDA               	movwf	fsr2h,c
  1843  00F472  90D8               	bcf	status,0,c
  1844  00F474  36D9               	rlcf	fsr2l,f,c
  1845  00F476  36DA               	rlcf	fsr2h,f,c
  1846  00F478  0100               	movlb	0	; () banked
  1847  00F47A  5199               	movf	(??_main+2)& (0+255),w,b
  1848  00F47C  26D9               	addwf	fsr2l,f,c
  1849  00F47E  519A               	movf	(??_main+3)& (0+255),w,b
  1850  00F480  22DA               	addwfc	fsr2h,f,c
  1851  00F482  0060  F007  FFDE   	movff	?___lldiv,postinc2
  1852  00F488  0060  F00B  FFDE   	movff	?___lldiv+1,postinc2
  1853  00F48E  0060  F00F  FFDE   	movff	?___lldiv+2,postinc2
  1854  00F494  0060  F013  FFDE   	movff	?___lldiv+3,postinc2
  1855  00F49A                     
  1856                           ; BSR set to: 0
  1857  00F49A  0101               	movlb	1	; () banked
  1858  00F49C  4BCF               	infsnz	main@h& (0+255),f,b
  1859  00F49E  2BD0               	incf	(main@h+1)& (0+255),f,b
  1860  00F4A0                     l4923:
  1861                           
  1862                           ; BSR set to: 1
  1863  00F4A0  51CB               	movf	main@gaps& (0+255),w,b
  1864  00F4A2  5DCF               	subwf	main@h& (0+255),w,b
  1865  00F4A4  51D0               	movf	(main@h+1)& (0+255),w,b
  1866  00F4A6  0A80               	xorlw	128
  1867  00F4A8  0100               	movlb	0	; () banked
  1868  00F4AA  6F97               	movwf	??_main& (0+255),b
  1869  00F4AC  0101               	movlb	1	; () banked
  1870  00F4AE  51CC               	movf	(main@gaps+1)& (0+255),w,b
  1871  00F4B0  0A80               	xorlw	128
  1872  00F4B2  0100               	movlb	0	; () banked
  1873  00F4B4  5997               	subwfb	??_main& (0+255),w,b
  1874  00F4B6  A0D8               	btfss	status,0,c
  1875  00F4B8  EF60  F07A         	goto	u5121
  1876  00F4BC  EF62  F07A         	goto	u5120
  1877  00F4C0                     u5121:
  1878  00F4C0  EF06  F07A         	goto	l4919
  1879  00F4C4                     u5120:
  1880  00F4C4                     
  1881                           ; BSR set to: 0
  1882                           ;main.c: 118: };main.c: 120: for(j=0;j<(gaps-1);j++)
  1883  00F4C4  0E00               	movlw	0
  1884  00F4C6  0101               	movlb	1	; () banked
  1885  00F4C8  6FCE               	movwf	(main@j+1)& (0+255),b
  1886  00F4CA  0E00               	movlw	0
  1887  00F4CC  6FCD               	movwf	main@j& (0+255),b
  1888  00F4CE  EF91  F07B         	goto	l4933
  1889  00F4D2                     l4927:
  1890                           
  1891                           ; BSR set to: 0
  1892                           ;main.c: 121: {;main.c: 122: dt[j]= timeData[j+1]-timeData[j];
  1893  00F4D2  0E90               	movlw	low main@timeData
  1894  00F4D4  6F97               	movwf	??_main& (0+255),b
  1895  00F4D6  0E01               	movlw	high main@timeData
  1896  00F4D8  6F98               	movwf	(??_main+1)& (0+255),b
  1897  00F4DA  90D8               	bcf	status,0,c
  1898  00F4DC  0101               	movlb	1	; () banked
  1899  00F4DE  35CD               	rlcf	main@j& (0+255),w,b
  1900  00F4E0  6ED9               	movwf	fsr2l,c
  1901  00F4E2  35CE               	rlcf	(main@j+1)& (0+255),w,b
  1902  00F4E4  6EDA               	movwf	fsr2h,c
  1903  00F4E6  90D8               	bcf	status,0,c
  1904  00F4E8  36D9               	rlcf	fsr2l,f,c
  1905  00F4EA  36DA               	rlcf	fsr2h,f,c
  1906  00F4EC  0100               	movlb	0	; () banked
  1907  00F4EE  5197               	movf	??_main& (0+255),w,b
  1908  00F4F0  26D9               	addwf	fsr2l,f,c
  1909  00F4F2  5198               	movf	(??_main+1)& (0+255),w,b
  1910  00F4F4  22DA               	addwfc	fsr2h,f,c
  1911  00F4F6  006F FF78  F099    	movff	postinc2,??_main+2
  1912  00F4FC  006F FF78  F09A    	movff	postinc2,??_main+3
  1913  00F502  006F FF78  F09B    	movff	postinc2,??_main+4
  1914  00F508  006F FF78  F09C    	movff	postinc2,??_main+5
  1915  00F50E  C1CD  F09D         	movff	main@j,??_main+6
  1916  00F512  C1CE  F09E         	movff	main@j+1,??_main+7
  1917  00F516  90D8               	bcf	status,0,c
  1918  00F518  379D               	rlcf	(??_main+6)& (0+255),f,b
  1919  00F51A  379E               	rlcf	(??_main+7)& (0+255),f,b
  1920  00F51C  90D8               	bcf	status,0,c
  1921  00F51E  379D               	rlcf	(??_main+6)& (0+255),f,b
  1922  00F520  379E               	rlcf	(??_main+7)& (0+255),f,b
  1923  00F522  0E04               	movlw	4
  1924  00F524  279D               	addwf	(??_main+6)& (0+255),f,b
  1925  00F526  0E00               	movlw	0
  1926  00F528  239E               	addwfc	(??_main+7)& (0+255),f,b
  1927  00F52A  0E90               	movlw	low main@timeData
  1928  00F52C  259D               	addwf	(??_main+6)& (0+255),w,b
  1929  00F52E  6ED9               	movwf	fsr2l,c
  1930  00F530  0E01               	movlw	high main@timeData
  1931  00F532  219E               	addwfc	(??_main+7)& (0+255),w,b
  1932  00F534  6EDA               	movwf	fsr2h,c
  1933  00F536  006F FF78  F09F    	movff	postinc2,??_main+8
  1934  00F53C  006F FF78  F0A0    	movff	postinc2,??_main+9
  1935  00F542  006F FF78  F0A1    	movff	postinc2,??_main+10
  1936  00F548  006F FF78  F0A2    	movff	postinc2,??_main+11
  1937  00F54E  5199               	movf	(??_main+2)& (0+255),w,b
  1938  00F550  5D9F               	subwf	(??_main+8)& (0+255),w,b
  1939  00F552  6FA3               	movwf	(??_main+12)& (0+255),b
  1940  00F554  519A               	movf	(??_main+3)& (0+255),w,b
  1941  00F556  59A0               	subwfb	(??_main+9)& (0+255),w,b
  1942  00F558  6FA4               	movwf	(??_main+13)& (0+255),b
  1943  00F55A  519B               	movf	(??_main+4)& (0+255),w,b
  1944  00F55C  59A1               	subwfb	(??_main+10)& (0+255),w,b
  1945  00F55E  6FA5               	movwf	(??_main+14)& (0+255),b
  1946  00F560  519C               	movf	(??_main+5)& (0+255),w,b
  1947  00F562  59A2               	subwfb	(??_main+11)& (0+255),w,b
  1948  00F564  6FA6               	movwf	(??_main+15)& (0+255),b
  1949  00F566  0E24               	movlw	low main@dt
  1950  00F568  6FA7               	movwf	(??_main+16)& (0+255),b
  1951  00F56A  0E01               	movlw	high main@dt
  1952  00F56C  6FA8               	movwf	(??_main+17)& (0+255),b
  1953  00F56E  90D8               	bcf	status,0,c
  1954  00F570  0101               	movlb	1	; () banked
  1955  00F572  35CD               	rlcf	main@j& (0+255),w,b
  1956  00F574  6ED9               	movwf	fsr2l,c
  1957  00F576  35CE               	rlcf	(main@j+1)& (0+255),w,b
  1958  00F578  6EDA               	movwf	fsr2h,c
  1959  00F57A  90D8               	bcf	status,0,c
  1960  00F57C  36D9               	rlcf	fsr2l,f,c
  1961  00F57E  36DA               	rlcf	fsr2h,f,c
  1962  00F580  0100               	movlb	0	; () banked
  1963  00F582  51A7               	movf	(??_main+16)& (0+255),w,b
  1964  00F584  26D9               	addwf	fsr2l,f,c
  1965  00F586  51A8               	movf	(??_main+17)& (0+255),w,b
  1966  00F588  22DA               	addwfc	fsr2h,f,c
  1967  00F58A  0060  F28F  FFDE   	movff	??_main+12,postinc2
  1968  00F590  0060  F293  FFDE   	movff	??_main+13,postinc2
  1969  00F596  0060  F297  FFDE   	movff	??_main+14,postinc2
  1970  00F59C  0060  F29B  FFDE   	movff	??_main+15,postinc2
  1971                           
  1972                           ;main.c: 123: MidT[j]= timeData[j]+(dt[j]/2);
  1973  00F5A2  0E90               	movlw	low main@timeData
  1974  00F5A4  6F97               	movwf	??_main& (0+255),b
  1975  00F5A6  0E01               	movlw	high main@timeData
  1976  00F5A8  6F98               	movwf	(??_main+1)& (0+255),b
  1977  00F5AA  90D8               	bcf	status,0,c
  1978  00F5AC  0101               	movlb	1	; () banked
  1979  00F5AE  35CD               	rlcf	main@j& (0+255),w,b
  1980  00F5B0  6ED9               	movwf	fsr2l,c
  1981  00F5B2  35CE               	rlcf	(main@j+1)& (0+255),w,b
  1982  00F5B4  6EDA               	movwf	fsr2h,c
  1983  00F5B6  90D8               	bcf	status,0,c
  1984  00F5B8  36D9               	rlcf	fsr2l,f,c
  1985  00F5BA  36DA               	rlcf	fsr2h,f,c
  1986  00F5BC  0100               	movlb	0	; () banked
  1987  00F5BE  5197               	movf	??_main& (0+255),w,b
  1988  00F5C0  26D9               	addwf	fsr2l,f,c
  1989  00F5C2  5198               	movf	(??_main+1)& (0+255),w,b
  1990  00F5C4  22DA               	addwfc	fsr2h,f,c
  1991  00F5C6  006F FF78  F099    	movff	postinc2,??_main+2
  1992  00F5CC  006F FF78  F09A    	movff	postinc2,??_main+3
  1993  00F5D2  006F FF78  F09B    	movff	postinc2,??_main+4
  1994  00F5D8  006F FF78  F09C    	movff	postinc2,??_main+5
  1995  00F5DE  0E24               	movlw	low main@dt
  1996  00F5E0  6F9D               	movwf	(??_main+6)& (0+255),b
  1997  00F5E2  0E01               	movlw	high main@dt
  1998  00F5E4  6F9E               	movwf	(??_main+7)& (0+255),b
  1999  00F5E6  90D8               	bcf	status,0,c
  2000  00F5E8  0101               	movlb	1	; () banked
  2001  00F5EA  35CD               	rlcf	main@j& (0+255),w,b
  2002  00F5EC  6ED9               	movwf	fsr2l,c
  2003  00F5EE  35CE               	rlcf	(main@j+1)& (0+255),w,b
  2004  00F5F0  6EDA               	movwf	fsr2h,c
  2005  00F5F2  90D8               	bcf	status,0,c
  2006  00F5F4  36D9               	rlcf	fsr2l,f,c
  2007  00F5F6  36DA               	rlcf	fsr2h,f,c
  2008  00F5F8  0100               	movlb	0	; () banked
  2009  00F5FA  519D               	movf	(??_main+6)& (0+255),w,b
  2010  00F5FC  26D9               	addwf	fsr2l,f,c
  2011  00F5FE  519E               	movf	(??_main+7)& (0+255),w,b
  2012  00F600  22DA               	addwfc	fsr2h,f,c
  2013  00F602  006F FF78  F09F    	movff	postinc2,??_main+8
  2014  00F608  006F FF78  F0A0    	movff	postinc2,??_main+9
  2015  00F60E  006F FF78  F0A1    	movff	postinc2,??_main+10
  2016  00F614  006F FF78  F0A2    	movff	postinc2,??_main+11
  2017  00F61A  90D8               	bcf	status,0,c
  2018  00F61C  33A2               	rrcf	(??_main+11)& (0+255),f,b
  2019  00F61E  33A1               	rrcf	(??_main+10)& (0+255),f,b
  2020  00F620  33A0               	rrcf	(??_main+9)& (0+255),f,b
  2021  00F622  339F               	rrcf	(??_main+8)& (0+255),f,b
  2022  00F624  5199               	movf	(??_main+2)& (0+255),w,b
  2023  00F626  259F               	addwf	(??_main+8)& (0+255),w,b
  2024  00F628  6FA3               	movwf	(??_main+12)& (0+255),b
  2025  00F62A  519A               	movf	(??_main+3)& (0+255),w,b
  2026  00F62C  21A0               	addwfc	(??_main+9)& (0+255),w,b
  2027  00F62E  6FA4               	movwf	(??_main+13)& (0+255),b
  2028  00F630  519B               	movf	(??_main+4)& (0+255),w,b
  2029  00F632  21A1               	addwfc	(??_main+10)& (0+255),w,b
  2030  00F634  6FA5               	movwf	(??_main+14)& (0+255),b
  2031  00F636  519C               	movf	(??_main+5)& (0+255),w,b
  2032  00F638  21A2               	addwfc	(??_main+11)& (0+255),w,b
  2033  00F63A  6FA6               	movwf	(??_main+15)& (0+255),b
  2034  00F63C  0E48               	movlw	low main@MidT
  2035  00F63E  6FA7               	movwf	(??_main+16)& (0+255),b
  2036  00F640  0E01               	movlw	high main@MidT
  2037  00F642  6FA8               	movwf	(??_main+17)& (0+255),b
  2038  00F644  90D8               	bcf	status,0,c
  2039  00F646  0101               	movlb	1	; () banked
  2040  00F648  35CD               	rlcf	main@j& (0+255),w,b
  2041  00F64A  6ED9               	movwf	fsr2l,c
  2042  00F64C  35CE               	rlcf	(main@j+1)& (0+255),w,b
  2043  00F64E  6EDA               	movwf	fsr2h,c
  2044  00F650  90D8               	bcf	status,0,c
  2045  00F652  36D9               	rlcf	fsr2l,f,c
  2046  00F654  36DA               	rlcf	fsr2h,f,c
  2047  00F656  0100               	movlb	0	; () banked
  2048  00F658  51A7               	movf	(??_main+16)& (0+255),w,b
  2049  00F65A  26D9               	addwf	fsr2l,f,c
  2050  00F65C  51A8               	movf	(??_main+17)& (0+255),w,b
  2051  00F65E  22DA               	addwfc	fsr2h,f,c
  2052  00F660  0060  F28F  FFDE   	movff	??_main+12,postinc2
  2053  00F666  0060  F293  FFDE   	movff	??_main+13,postinc2
  2054  00F66C  0060  F297  FFDE   	movff	??_main+14,postinc2
  2055  00F672  0060  F29B  FFDE   	movff	??_main+15,postinc2
  2056  00F678                     
  2057                           ; BSR set to: 0
  2058                           ;main.c: 124: Vavg[j]= length/dt[j];
  2059  00F678  C1C3  F00F         	movff	main@length,___fldiv@b
  2060  00F67C  C1C4  F010         	movff	main@length+1,___fldiv@b+1
  2061  00F680  C1C5  F011         	movff	main@length+2,___fldiv@b+2
  2062  00F684  C1C6  F012         	movff	main@length+3,___fldiv@b+3
  2063  00F688  0E24               	movlw	low main@dt
  2064  00F68A  6F97               	movwf	??_main& (0+255),b
  2065  00F68C  0E01               	movlw	high main@dt
  2066  00F68E  6F98               	movwf	(??_main+1)& (0+255),b
  2067  00F690  90D8               	bcf	status,0,c
  2068  00F692  0101               	movlb	1	; () banked
  2069  00F694  35CD               	rlcf	main@j& (0+255),w,b
  2070  00F696  6ED9               	movwf	fsr2l,c
  2071  00F698  35CE               	rlcf	(main@j+1)& (0+255),w,b
  2072  00F69A  6EDA               	movwf	fsr2h,c
  2073  00F69C  90D8               	bcf	status,0,c
  2074  00F69E  36D9               	rlcf	fsr2l,f,c
  2075  00F6A0  36DA               	rlcf	fsr2h,f,c
  2076  00F6A2  0100               	movlb	0	; () banked
  2077  00F6A4  5197               	movf	??_main& (0+255),w,b
  2078  00F6A6  26D9               	addwf	fsr2l,f,c
  2079  00F6A8  5198               	movf	(??_main+1)& (0+255),w,b
  2080  00F6AA  22DA               	addwfc	fsr2h,f,c
  2081  00F6AC  006F FF78  F001    	movff	postinc2,___xxtofl@val
  2082  00F6B2  006F FF78  F002    	movff	postinc2,___xxtofl@val+1
  2083  00F6B8  006F FF78  F003    	movff	postinc2,___xxtofl@val+2
  2084  00F6BE  006F FF78  F004    	movff	postinc2,___xxtofl@val+3
  2085  00F6C4  0E00               	movlw	0
  2086  00F6C6  EC26  F066         	call	___xxtofl
  2087  00F6CA  C001  F013         	movff	?___xxtofl,___fldiv@a
  2088  00F6CE  C002  F014         	movff	?___xxtofl+1,___fldiv@a+1
  2089  00F6D2  C003  F015         	movff	?___xxtofl+2,___fldiv@a+2
  2090  00F6D6  C004  F016         	movff	?___xxtofl+3,___fldiv@a+3
  2091  00F6DA  EC7B  F068         	call	___fldiv	;wreg free
  2092  00F6DE  0E6C               	movlw	low main@Vavg
  2093  00F6E0  0100               	movlb	0	; () banked
  2094  00F6E2  6F99               	movwf	(??_main+2)& (0+255),b
  2095  00F6E4  0E01               	movlw	high main@Vavg
  2096  00F6E6  6F9A               	movwf	(??_main+3)& (0+255),b
  2097  00F6E8  90D8               	bcf	status,0,c
  2098  00F6EA  0101               	movlb	1	; () banked
  2099  00F6EC  35CD               	rlcf	main@j& (0+255),w,b
  2100  00F6EE  6ED9               	movwf	fsr2l,c
  2101  00F6F0  35CE               	rlcf	(main@j+1)& (0+255),w,b
  2102  00F6F2  6EDA               	movwf	fsr2h,c
  2103  00F6F4  90D8               	bcf	status,0,c
  2104  00F6F6  36D9               	rlcf	fsr2l,f,c
  2105  00F6F8  36DA               	rlcf	fsr2h,f,c
  2106  00F6FA  0100               	movlb	0	; () banked
  2107  00F6FC  5199               	movf	(??_main+2)& (0+255),w,b
  2108  00F6FE  26D9               	addwf	fsr2l,f,c
  2109  00F700  519A               	movf	(??_main+3)& (0+255),w,b
  2110  00F702  22DA               	addwfc	fsr2h,f,c
  2111  00F704  0060  F03F  FFDE   	movff	?___fldiv,postinc2
  2112  00F70A  0060  F043  FFDE   	movff	?___fldiv+1,postinc2
  2113  00F710  0060  F047  FFDE   	movff	?___fldiv+2,postinc2
  2114  00F716  0060  F04B  FFDE   	movff	?___fldiv+3,postinc2
  2115  00F71C                     
  2116                           ; BSR set to: 0
  2117  00F71C  0101               	movlb	1	; () banked
  2118  00F71E  4BCD               	infsnz	main@j& (0+255),f,b
  2119  00F720  2BCE               	incf	(main@j+1)& (0+255),f,b
  2120  00F722                     l4933:
  2121                           
  2122                           ; BSR set to: 1
  2123  00F722  0EFF               	movlw	255
  2124  00F724  0100               	movlb	0	; () banked
  2125  00F726  6F97               	movwf	??_main& (0+255),b
  2126  00F728  0EFF               	movlw	255
  2127  00F72A  6F98               	movwf	(??_main+1)& (0+255),b
  2128  00F72C  C1CB  F099         	movff	main@gaps,??_main+2
  2129  00F730  C1CC  F09A         	movff	main@gaps+1,??_main+3
  2130  00F734  5197               	movf	??_main& (0+255),w,b
  2131  00F736  2799               	addwf	(??_main+2)& (0+255),f,b
  2132  00F738  5198               	movf	(??_main+1)& (0+255),w,b
  2133  00F73A  239A               	addwfc	(??_main+3)& (0+255),f,b
  2134  00F73C  5199               	movf	(??_main+2)& (0+255),w,b
  2135  00F73E  0101               	movlb	1	; () banked
  2136  00F740  5DCD               	subwf	main@j& (0+255),w,b
  2137  00F742  51CE               	movf	(main@j+1)& (0+255),w,b
  2138  00F744  0A80               	xorlw	128
  2139  00F746  0100               	movlb	0	; () banked
  2140  00F748  6F9B               	movwf	(??_main+4)& (0+255),b
  2141  00F74A  519A               	movf	(??_main+3)& (0+255),w,b
  2142  00F74C  0A80               	xorlw	128
  2143  00F74E  599B               	subwfb	(??_main+4)& (0+255),w,b
  2144  00F750  A0D8               	btfss	status,0,c
  2145  00F752  EFAD  F07B         	goto	u5131
  2146  00F756  EFAF  F07B         	goto	u5130
  2147  00F75A                     u5131:
  2148  00F75A  EF69  F07A         	goto	l4927
  2149  00F75E                     u5130:
  2150  00F75E                     
  2151                           ; BSR set to: 0
  2152                           ;main.c: 126: };main.c: 127: for(k=0;k<(gaps-2);k++)
  2153  00F75E  0E00               	movlw	0
  2154  00F760  0101               	movlb	1	; () banked
  2155  00F762  6FD2               	movwf	(main@k+1)& (0+255),b
  2156  00F764  0E00               	movlw	0
  2157  00F766  6FD1               	movwf	main@k& (0+255),b
  2158  00F768  EFE8  F07C         	goto	l4945
  2159  00F76C                     l4937:
  2160                           
  2161                           ; BSR set to: 0
  2162                           ;main.c: 128: {;main.c: 129: dV[k]=Vavg[k+1]-Vavg[k];
  2163  00F76C  C1D1  F097         	movff	main@k,??_main
  2164  00F770  C1D2  F098         	movff	main@k+1,??_main+1
  2165  00F774  90D8               	bcf	status,0,c
  2166  00F776  3797               	rlcf	??_main& (0+255),f,b
  2167  00F778  3798               	rlcf	(??_main+1)& (0+255),f,b
  2168  00F77A  90D8               	bcf	status,0,c
  2169  00F77C  3797               	rlcf	??_main& (0+255),f,b
  2170  00F77E  3798               	rlcf	(??_main+1)& (0+255),f,b
  2171  00F780  0E04               	movlw	4
  2172  00F782  2797               	addwf	??_main& (0+255),f,b
  2173  00F784  0E00               	movlw	0
  2174  00F786  2398               	addwfc	(??_main+1)& (0+255),f,b
  2175  00F788  0E6C               	movlw	low main@Vavg
  2176  00F78A  2597               	addwf	??_main& (0+255),w,b
  2177  00F78C  6ED9               	movwf	fsr2l,c
  2178  00F78E  0E01               	movlw	high main@Vavg
  2179  00F790  2198               	addwfc	(??_main+1)& (0+255),w,b
  2180  00F792  6EDA               	movwf	fsr2h,c
  2181  00F794  006F FF78  F045    	movff	postinc2,___flsub@b
  2182  00F79A  006F FF78  F046    	movff	postinc2,___flsub@b+1
  2183  00F7A0  006F FF78  F047    	movff	postinc2,___flsub@b+2
  2184  00F7A6  006F FF78  F048    	movff	postinc2,___flsub@b+3
  2185  00F7AC  0E6C               	movlw	low main@Vavg
  2186  00F7AE  6F99               	movwf	(??_main+2)& (0+255),b
  2187  00F7B0  0E01               	movlw	high main@Vavg
  2188  00F7B2  6F9A               	movwf	(??_main+3)& (0+255),b
  2189  00F7B4  90D8               	bcf	status,0,c
  2190  00F7B6  0101               	movlb	1	; () banked
  2191  00F7B8  35D1               	rlcf	main@k& (0+255),w,b
  2192  00F7BA  6ED9               	movwf	fsr2l,c
  2193  00F7BC  35D2               	rlcf	(main@k+1)& (0+255),w,b
  2194  00F7BE  6EDA               	movwf	fsr2h,c
  2195  00F7C0  90D8               	bcf	status,0,c
  2196  00F7C2  36D9               	rlcf	fsr2l,f,c
  2197  00F7C4  36DA               	rlcf	fsr2h,f,c
  2198  00F7C6  0100               	movlb	0	; () banked
  2199  00F7C8  5199               	movf	(??_main+2)& (0+255),w,b
  2200  00F7CA  26D9               	addwf	fsr2l,f,c
  2201  00F7CC  519A               	movf	(??_main+3)& (0+255),w,b
  2202  00F7CE  22DA               	addwfc	fsr2h,f,c
  2203  00F7D0  006F FF78  F049    	movff	postinc2,___flsub@a
  2204  00F7D6  006F FF78  F04A    	movff	postinc2,___flsub@a+1
  2205  00F7DC  006F FF78  F04B    	movff	postinc2,___flsub@a+2
  2206  00F7E2  006F FF78  F04C    	movff	postinc2,___flsub@a+3
  2207  00F7E8  EC5D  F05F         	call	___flsub	;wreg free
  2208  00F7EC  0E00               	movlw	low main@dV
  2209  00F7EE  0100               	movlb	0	; () banked
  2210  00F7F0  6F9B               	movwf	(??_main+4)& (0+255),b
  2211  00F7F2  0E01               	movlw	high main@dV
  2212  00F7F4  6F9C               	movwf	(??_main+5)& (0+255),b
  2213  00F7F6  90D8               	bcf	status,0,c
  2214  00F7F8  0101               	movlb	1	; () banked
  2215  00F7FA  35D1               	rlcf	main@k& (0+255),w,b
  2216  00F7FC  6ED9               	movwf	fsr2l,c
  2217  00F7FE  35D2               	rlcf	(main@k+1)& (0+255),w,b
  2218  00F800  6EDA               	movwf	fsr2h,c
  2219  00F802  90D8               	bcf	status,0,c
  2220  00F804  36D9               	rlcf	fsr2l,f,c
  2221  00F806  36DA               	rlcf	fsr2h,f,c
  2222  00F808  0100               	movlb	0	; () banked
  2223  00F80A  519B               	movf	(??_main+4)& (0+255),w,b
  2224  00F80C  26D9               	addwf	fsr2l,f,c
  2225  00F80E  519C               	movf	(??_main+5)& (0+255),w,b
  2226  00F810  22DA               	addwfc	fsr2h,f,c
  2227  00F812  0060  F117  FFDE   	movff	?___flsub,postinc2
  2228  00F818  0060  F11B  FFDE   	movff	?___flsub+1,postinc2
  2229  00F81E  0060  F11F  FFDE   	movff	?___flsub+2,postinc2
  2230  00F824  0060  F123  FFDE   	movff	?___flsub+3,postinc2
  2231  00F82A                     
  2232                           ; BSR set to: 0
  2233                           ;main.c: 130: dT[k]=MidT[k+1]-MidT[k];
  2234  00F82A  0E48               	movlw	low main@MidT
  2235  00F82C  6F97               	movwf	??_main& (0+255),b
  2236  00F82E  0E01               	movlw	high main@MidT
  2237  00F830  6F98               	movwf	(??_main+1)& (0+255),b
  2238  00F832  90D8               	bcf	status,0,c
  2239  00F834  0101               	movlb	1	; () banked
  2240  00F836  35D1               	rlcf	main@k& (0+255),w,b
  2241  00F838  6ED9               	movwf	fsr2l,c
  2242  00F83A  35D2               	rlcf	(main@k+1)& (0+255),w,b
  2243  00F83C  6EDA               	movwf	fsr2h,c
  2244  00F83E  90D8               	bcf	status,0,c
  2245  00F840  36D9               	rlcf	fsr2l,f,c
  2246  00F842  36DA               	rlcf	fsr2h,f,c
  2247  00F844  0100               	movlb	0	; () banked
  2248  00F846  5197               	movf	??_main& (0+255),w,b
  2249  00F848  26D9               	addwf	fsr2l,f,c
  2250  00F84A  5198               	movf	(??_main+1)& (0+255),w,b
  2251  00F84C  22DA               	addwfc	fsr2h,f,c
  2252  00F84E  006F FF78  F099    	movff	postinc2,??_main+2
  2253  00F854  006F FF78  F09A    	movff	postinc2,??_main+3
  2254  00F85A  006F FF78  F09B    	movff	postinc2,??_main+4
  2255  00F860  006F FF78  F09C    	movff	postinc2,??_main+5
  2256  00F866  C1D1  F09D         	movff	main@k,??_main+6
  2257  00F86A  C1D2  F09E         	movff	main@k+1,??_main+7
  2258  00F86E  90D8               	bcf	status,0,c
  2259  00F870  379D               	rlcf	(??_main+6)& (0+255),f,b
  2260  00F872  379E               	rlcf	(??_main+7)& (0+255),f,b
  2261  00F874  90D8               	bcf	status,0,c
  2262  00F876  379D               	rlcf	(??_main+6)& (0+255),f,b
  2263  00F878  379E               	rlcf	(??_main+7)& (0+255),f,b
  2264  00F87A  0E04               	movlw	4
  2265  00F87C  279D               	addwf	(??_main+6)& (0+255),f,b
  2266  00F87E  0E00               	movlw	0
  2267  00F880  239E               	addwfc	(??_main+7)& (0+255),f,b
  2268  00F882  0E48               	movlw	low main@MidT
  2269  00F884  259D               	addwf	(??_main+6)& (0+255),w,b
  2270  00F886  6ED9               	movwf	fsr2l,c
  2271  00F888  0E01               	movlw	high main@MidT
  2272  00F88A  219E               	addwfc	(??_main+7)& (0+255),w,b
  2273  00F88C  6EDA               	movwf	fsr2h,c
  2274  00F88E  006F FF78  F09F    	movff	postinc2,??_main+8
  2275  00F894  006F FF78  F0A0    	movff	postinc2,??_main+9
  2276  00F89A  006F FF78  F0A1    	movff	postinc2,??_main+10
  2277  00F8A0  006F FF78  F0A2    	movff	postinc2,??_main+11
  2278  00F8A6  5199               	movf	(??_main+2)& (0+255),w,b
  2279  00F8A8  5D9F               	subwf	(??_main+8)& (0+255),w,b
  2280  00F8AA  6FA3               	movwf	(??_main+12)& (0+255),b
  2281  00F8AC  519A               	movf	(??_main+3)& (0+255),w,b
  2282  00F8AE  59A0               	subwfb	(??_main+9)& (0+255),w,b
  2283  00F8B0  6FA4               	movwf	(??_main+13)& (0+255),b
  2284  00F8B2  519B               	movf	(??_main+4)& (0+255),w,b
  2285  00F8B4  59A1               	subwfb	(??_main+10)& (0+255),w,b
  2286  00F8B6  6FA5               	movwf	(??_main+14)& (0+255),b
  2287  00F8B8  519C               	movf	(??_main+5)& (0+255),w,b
  2288  00F8BA  59A2               	subwfb	(??_main+11)& (0+255),w,b
  2289  00F8BC  6FA6               	movwf	(??_main+15)& (0+255),b
  2290  00F8BE  0EB5               	movlw	low main@dT
  2291  00F8C0  6FA7               	movwf	(??_main+16)& (0+255),b
  2292  00F8C2  0E00               	movlw	high main@dT
  2293  00F8C4  6FA8               	movwf	(??_main+17)& (0+255),b
  2294  00F8C6  90D8               	bcf	status,0,c
  2295  00F8C8  0101               	movlb	1	; () banked
  2296  00F8CA  35D1               	rlcf	main@k& (0+255),w,b
  2297  00F8CC  6ED9               	movwf	fsr2l,c
  2298  00F8CE  35D2               	rlcf	(main@k+1)& (0+255),w,b
  2299  00F8D0  6EDA               	movwf	fsr2h,c
  2300  00F8D2  90D8               	bcf	status,0,c
  2301  00F8D4  36D9               	rlcf	fsr2l,f,c
  2302  00F8D6  36DA               	rlcf	fsr2h,f,c
  2303  00F8D8  0100               	movlb	0	; () banked
  2304  00F8DA  51A7               	movf	(??_main+16)& (0+255),w,b
  2305  00F8DC  26D9               	addwf	fsr2l,f,c
  2306  00F8DE  51A8               	movf	(??_main+17)& (0+255),w,b
  2307  00F8E0  22DA               	addwfc	fsr2h,f,c
  2308  00F8E2  0060  F28F  FFDE   	movff	??_main+12,postinc2
  2309  00F8E8  0060  F293  FFDE   	movff	??_main+13,postinc2
  2310  00F8EE  0060  F297  FFDE   	movff	??_main+14,postinc2
  2311  00F8F4  0060  F29B  FFDE   	movff	??_main+15,postinc2
  2312  00F8FA                     
  2313                           ; BSR set to: 0
  2314                           ;main.c: 131: a[k]=dV[k]/dT[k];
  2315  00F8FA  0E00               	movlw	low main@dV
  2316  00F8FC  6F97               	movwf	??_main& (0+255),b
  2317  00F8FE  0E01               	movlw	high main@dV
  2318  00F900  6F98               	movwf	(??_main+1)& (0+255),b
  2319  00F902  90D8               	bcf	status,0,c
  2320  00F904  0101               	movlb	1	; () banked
  2321  00F906  35D1               	rlcf	main@k& (0+255),w,b
  2322  00F908  6ED9               	movwf	fsr2l,c
  2323  00F90A  35D2               	rlcf	(main@k+1)& (0+255),w,b
  2324  00F90C  6EDA               	movwf	fsr2h,c
  2325  00F90E  90D8               	bcf	status,0,c
  2326  00F910  36D9               	rlcf	fsr2l,f,c
  2327  00F912  36DA               	rlcf	fsr2h,f,c
  2328  00F914  0100               	movlb	0	; () banked
  2329  00F916  5197               	movf	??_main& (0+255),w,b
  2330  00F918  26D9               	addwf	fsr2l,f,c
  2331  00F91A  5198               	movf	(??_main+1)& (0+255),w,b
  2332  00F91C  22DA               	addwfc	fsr2h,f,c
  2333  00F91E  006F FF78  F00F    	movff	postinc2,___fldiv@b
  2334  00F924  006F FF78  F010    	movff	postinc2,___fldiv@b+1
  2335  00F92A  006F FF78  F011    	movff	postinc2,___fldiv@b+2
  2336  00F930  006F FF78  F012    	movff	postinc2,___fldiv@b+3
  2337  00F936  0EB5               	movlw	low main@dT
  2338  00F938  6F99               	movwf	(??_main+2)& (0+255),b
  2339  00F93A  0E00               	movlw	high main@dT
  2340  00F93C  6F9A               	movwf	(??_main+3)& (0+255),b
  2341  00F93E  90D8               	bcf	status,0,c
  2342  00F940  0101               	movlb	1	; () banked
  2343  00F942  35D1               	rlcf	main@k& (0+255),w,b
  2344  00F944  6ED9               	movwf	fsr2l,c
  2345  00F946  35D2               	rlcf	(main@k+1)& (0+255),w,b
  2346  00F948  6EDA               	movwf	fsr2h,c
  2347  00F94A  90D8               	bcf	status,0,c
  2348  00F94C  36D9               	rlcf	fsr2l,f,c
  2349  00F94E  36DA               	rlcf	fsr2h,f,c
  2350  00F950  0100               	movlb	0	; () banked
  2351  00F952  5199               	movf	(??_main+2)& (0+255),w,b
  2352  00F954  26D9               	addwf	fsr2l,f,c
  2353  00F956  519A               	movf	(??_main+3)& (0+255),w,b
  2354  00F958  22DA               	addwfc	fsr2h,f,c
  2355  00F95A  006F FF78  F001    	movff	postinc2,___xxtofl@val
  2356  00F960  006F FF78  F002    	movff	postinc2,___xxtofl@val+1
  2357  00F966  006F FF78  F003    	movff	postinc2,___xxtofl@val+2
  2358  00F96C  006F FF78  F004    	movff	postinc2,___xxtofl@val+3
  2359  00F972  0E00               	movlw	0
  2360  00F974  EC26  F066         	call	___xxtofl
  2361  00F978  C001  F013         	movff	?___xxtofl,___fldiv@a
  2362  00F97C  C002  F014         	movff	?___xxtofl+1,___fldiv@a+1
  2363  00F980  C003  F015         	movff	?___xxtofl+2,___fldiv@a+2
  2364  00F984  C004  F016         	movff	?___xxtofl+3,___fldiv@a+3
  2365  00F988  EC7B  F068         	call	___fldiv	;wreg free
  2366  00F98C  0ED9               	movlw	low main@a
  2367  00F98E  0100               	movlb	0	; () banked
  2368  00F990  6F9B               	movwf	(??_main+4)& (0+255),b
  2369  00F992  0E00               	movlw	high main@a
  2370  00F994  6F9C               	movwf	(??_main+5)& (0+255),b
  2371  00F996  90D8               	bcf	status,0,c
  2372  00F998  0101               	movlb	1	; () banked
  2373  00F99A  35D1               	rlcf	main@k& (0+255),w,b
  2374  00F99C  6ED9               	movwf	fsr2l,c
  2375  00F99E  35D2               	rlcf	(main@k+1)& (0+255),w,b
  2376  00F9A0  6EDA               	movwf	fsr2h,c
  2377  00F9A2  90D8               	bcf	status,0,c
  2378  00F9A4  36D9               	rlcf	fsr2l,f,c
  2379  00F9A6  36DA               	rlcf	fsr2h,f,c
  2380  00F9A8  0100               	movlb	0	; () banked
  2381  00F9AA  519B               	movf	(??_main+4)& (0+255),w,b
  2382  00F9AC  26D9               	addwf	fsr2l,f,c
  2383  00F9AE  519C               	movf	(??_main+5)& (0+255),w,b
  2384  00F9B0  22DA               	addwfc	fsr2h,f,c
  2385  00F9B2  0060  F03F  FFDE   	movff	?___fldiv,postinc2
  2386  00F9B8  0060  F043  FFDE   	movff	?___fldiv+1,postinc2
  2387  00F9BE  0060  F047  FFDE   	movff	?___fldiv+2,postinc2
  2388  00F9C4  0060  F04B  FFDE   	movff	?___fldiv+3,postinc2
  2389  00F9CA                     
  2390                           ; BSR set to: 0
  2391  00F9CA  0101               	movlb	1	; () banked
  2392  00F9CC  4BD1               	infsnz	main@k& (0+255),f,b
  2393  00F9CE  2BD2               	incf	(main@k+1)& (0+255),f,b
  2394  00F9D0                     l4945:
  2395                           
  2396                           ; BSR set to: 1
  2397  00F9D0  0EFE               	movlw	254
  2398  00F9D2  0100               	movlb	0	; () banked
  2399  00F9D4  6F97               	movwf	??_main& (0+255),b
  2400  00F9D6  0EFF               	movlw	255
  2401  00F9D8  6F98               	movwf	(??_main+1)& (0+255),b
  2402  00F9DA  C1CB  F099         	movff	main@gaps,??_main+2
  2403  00F9DE  C1CC  F09A         	movff	main@gaps+1,??_main+3
  2404  00F9E2  5197               	movf	??_main& (0+255),w,b
  2405  00F9E4  2799               	addwf	(??_main+2)& (0+255),f,b
  2406  00F9E6  5198               	movf	(??_main+1)& (0+255),w,b
  2407  00F9E8  239A               	addwfc	(??_main+3)& (0+255),f,b
  2408  00F9EA  5199               	movf	(??_main+2)& (0+255),w,b
  2409  00F9EC  0101               	movlb	1	; () banked
  2410  00F9EE  5DD1               	subwf	main@k& (0+255),w,b
  2411  00F9F0  51D2               	movf	(main@k+1)& (0+255),w,b
  2412  00F9F2  0A80               	xorlw	128
  2413  00F9F4  0100               	movlb	0	; () banked
  2414  00F9F6  6F9B               	movwf	(??_main+4)& (0+255),b
  2415  00F9F8  519A               	movf	(??_main+3)& (0+255),w,b
  2416  00F9FA  0A80               	xorlw	128
  2417  00F9FC  599B               	subwfb	(??_main+4)& (0+255),w,b
  2418  00F9FE  A0D8               	btfss	status,0,c
  2419  00FA00  EF04  F07D         	goto	u5141
  2420  00FA04  EF06  F07D         	goto	u5140
  2421  00FA08                     u5141:
  2422  00FA08  EFB6  F07B         	goto	l4937
  2423  00FA0C                     u5140:
  2424  00FA0C                     
  2425                           ; BSR set to: 0
  2426                           ;main.c: 133: };main.c: 134: printf("\n\rtimeData  \t dt  \t MidT  \t  Vavg  \t dV  \t d
      +                          T  \t a");
  2427  00FA0C  0E5A               	movlw	low STR_11
  2428  00FA0E  6F60               	movwf	printf@f& (0+255),b
  2429  00FA10  0EFE               	movlw	high STR_11
  2430  00FA12  6F61               	movwf	(printf@f+1)& (0+255),b
  2431  00FA14  EC33  F074         	call	_printf	;wreg free
  2432  00FA18                     
  2433                           ;main.c: 135: for(h=0;h<gaps;h++)
  2434  00FA18  0E00               	movlw	0
  2435  00FA1A  0101               	movlb	1	; () banked
  2436  00FA1C  6FD0               	movwf	(main@h+1)& (0+255),b
  2437  00FA1E  0E00               	movlw	0
  2438  00FA20  6FCF               	movwf	main@h& (0+255),b
  2439  00FA22  EFEE  F07D         	goto	l4955
  2440  00FA26                     l4951:
  2441                           
  2442                           ; BSR set to: 0
  2443                           ;main.c: 136: {;main.c: 139: printf("\n\r%lu\t%lu\t%lu\t%f\t%f\t%lu\t%f";main.c: 140: ,t
      +                          imeData[h],dt[h],MidT[h],Vavg[h],dV[h],dT[h],a[h]);
  2444  00FA26  0E5A               	movlw	low STR_12
  2445  00FA28  6F60               	movwf	printf@f& (0+255),b
  2446  00FA2A  0EFF               	movlw	high STR_12
  2447  00FA2C  6F61               	movwf	(printf@f+1)& (0+255),b
  2448  00FA2E  0E90               	movlw	low main@timeData
  2449  00FA30  6F97               	movwf	??_main& (0+255),b
  2450  00FA32  0E01               	movlw	high main@timeData
  2451  00FA34  6F98               	movwf	(??_main+1)& (0+255),b
  2452  00FA36  90D8               	bcf	status,0,c
  2453  00FA38  0101               	movlb	1	; () banked
  2454  00FA3A  35CF               	rlcf	main@h& (0+255),w,b
  2455  00FA3C  6ED9               	movwf	fsr2l,c
  2456  00FA3E  35D0               	rlcf	(main@h+1)& (0+255),w,b
  2457  00FA40  6EDA               	movwf	fsr2h,c
  2458  00FA42  90D8               	bcf	status,0,c
  2459  00FA44  36D9               	rlcf	fsr2l,f,c
  2460  00FA46  36DA               	rlcf	fsr2h,f,c
  2461  00FA48  0100               	movlb	0	; () banked
  2462  00FA4A  5197               	movf	??_main& (0+255),w,b
  2463  00FA4C  26D9               	addwf	fsr2l,f,c
  2464  00FA4E  5198               	movf	(??_main+1)& (0+255),w,b
  2465  00FA50  22DA               	addwfc	fsr2h,f,c
  2466  00FA52  006F FF78  F062    	movff	postinc2,?_printf+2
  2467  00FA58  006F FF78  F063    	movff	postinc2,?_printf+3
  2468  00FA5E  006F FF78  F064    	movff	postinc2,?_printf+4
  2469  00FA64  006F FF78  F065    	movff	postinc2,?_printf+5
  2470  00FA6A  0E24               	movlw	low main@dt
  2471  00FA6C  6F99               	movwf	(??_main+2)& (0+255),b
  2472  00FA6E  0E01               	movlw	high main@dt
  2473  00FA70  6F9A               	movwf	(??_main+3)& (0+255),b
  2474  00FA72  90D8               	bcf	status,0,c
  2475  00FA74  0101               	movlb	1	; () banked
  2476  00FA76  35CF               	rlcf	main@h& (0+255),w,b
  2477  00FA78  6ED9               	movwf	fsr2l,c
  2478  00FA7A  35D0               	rlcf	(main@h+1)& (0+255),w,b
  2479  00FA7C  6EDA               	movwf	fsr2h,c
  2480  00FA7E  90D8               	bcf	status,0,c
  2481  00FA80  36D9               	rlcf	fsr2l,f,c
  2482  00FA82  36DA               	rlcf	fsr2h,f,c
  2483  00FA84  0100               	movlb	0	; () banked
  2484  00FA86  5199               	movf	(??_main+2)& (0+255),w,b
  2485  00FA88  26D9               	addwf	fsr2l,f,c
  2486  00FA8A  519A               	movf	(??_main+3)& (0+255),w,b
  2487  00FA8C  22DA               	addwfc	fsr2h,f,c
  2488  00FA8E  006F FF78  F066    	movff	postinc2,?_printf+6
  2489  00FA94  006F FF78  F067    	movff	postinc2,?_printf+7
  2490  00FA9A  006F FF78  F068    	movff	postinc2,?_printf+8
  2491  00FAA0  006F FF78  F069    	movff	postinc2,?_printf+9
  2492  00FAA6  0E48               	movlw	low main@MidT
  2493  00FAA8  6F9B               	movwf	(??_main+4)& (0+255),b
  2494  00FAAA  0E01               	movlw	high main@MidT
  2495  00FAAC  6F9C               	movwf	(??_main+5)& (0+255),b
  2496  00FAAE  90D8               	bcf	status,0,c
  2497  00FAB0  0101               	movlb	1	; () banked
  2498  00FAB2  35CF               	rlcf	main@h& (0+255),w,b
  2499  00FAB4  6ED9               	movwf	fsr2l,c
  2500  00FAB6  35D0               	rlcf	(main@h+1)& (0+255),w,b
  2501  00FAB8  6EDA               	movwf	fsr2h,c
  2502  00FABA  90D8               	bcf	status,0,c
  2503  00FABC  36D9               	rlcf	fsr2l,f,c
  2504  00FABE  36DA               	rlcf	fsr2h,f,c
  2505  00FAC0  0100               	movlb	0	; () banked
  2506  00FAC2  519B               	movf	(??_main+4)& (0+255),w,b
  2507  00FAC4  26D9               	addwf	fsr2l,f,c
  2508  00FAC6  519C               	movf	(??_main+5)& (0+255),w,b
  2509  00FAC8  22DA               	addwfc	fsr2h,f,c
  2510  00FACA  006F FF78  F06A    	movff	postinc2,?_printf+10
  2511  00FAD0  006F FF78  F06B    	movff	postinc2,?_printf+11
  2512  00FAD6  006F FF78  F06C    	movff	postinc2,?_printf+12
  2513  00FADC  006F FF78  F06D    	movff	postinc2,?_printf+13
  2514  00FAE2  0E6C               	movlw	low main@Vavg
  2515  00FAE4  6F9D               	movwf	(??_main+6)& (0+255),b
  2516  00FAE6  0E01               	movlw	high main@Vavg
  2517  00FAE8  6F9E               	movwf	(??_main+7)& (0+255),b
  2518  00FAEA  90D8               	bcf	status,0,c
  2519  00FAEC  0101               	movlb	1	; () banked
  2520  00FAEE  35CF               	rlcf	main@h& (0+255),w,b
  2521  00FAF0  6ED9               	movwf	fsr2l,c
  2522  00FAF2  35D0               	rlcf	(main@h+1)& (0+255),w,b
  2523  00FAF4  6EDA               	movwf	fsr2h,c
  2524  00FAF6  90D8               	bcf	status,0,c
  2525  00FAF8  36D9               	rlcf	fsr2l,f,c
  2526  00FAFA  36DA               	rlcf	fsr2h,f,c
  2527  00FAFC  0100               	movlb	0	; () banked
  2528  00FAFE  519D               	movf	(??_main+6)& (0+255),w,b
  2529  00FB00  26D9               	addwf	fsr2l,f,c
  2530  00FB02  519E               	movf	(??_main+7)& (0+255),w,b
  2531  00FB04  22DA               	addwfc	fsr2h,f,c
  2532  00FB06  006F FF78  F06E    	movff	postinc2,?_printf+14
  2533  00FB0C  006F FF78  F06F    	movff	postinc2,?_printf+15
  2534  00FB12  006F FF78  F070    	movff	postinc2,?_printf+16
  2535  00FB18  006F FF78  F071    	movff	postinc2,?_printf+17
  2536  00FB1E  0E00               	movlw	low main@dV
  2537  00FB20  6F9F               	movwf	(??_main+8)& (0+255),b
  2538  00FB22  0E01               	movlw	high main@dV
  2539  00FB24  6FA0               	movwf	(??_main+9)& (0+255),b
  2540  00FB26  90D8               	bcf	status,0,c
  2541  00FB28  0101               	movlb	1	; () banked
  2542  00FB2A  35CF               	rlcf	main@h& (0+255),w,b
  2543  00FB2C  6ED9               	movwf	fsr2l,c
  2544  00FB2E  35D0               	rlcf	(main@h+1)& (0+255),w,b
  2545  00FB30  6EDA               	movwf	fsr2h,c
  2546  00FB32  90D8               	bcf	status,0,c
  2547  00FB34  36D9               	rlcf	fsr2l,f,c
  2548  00FB36  36DA               	rlcf	fsr2h,f,c
  2549  00FB38  0100               	movlb	0	; () banked
  2550  00FB3A  519F               	movf	(??_main+8)& (0+255),w,b
  2551  00FB3C  26D9               	addwf	fsr2l,f,c
  2552  00FB3E  51A0               	movf	(??_main+9)& (0+255),w,b
  2553  00FB40  22DA               	addwfc	fsr2h,f,c
  2554  00FB42  006F FF78  F072    	movff	postinc2,?_printf+18
  2555  00FB48  006F FF78  F073    	movff	postinc2,?_printf+19
  2556  00FB4E  006F FF78  F074    	movff	postinc2,?_printf+20
  2557  00FB54  006F FF78  F075    	movff	postinc2,?_printf+21
  2558  00FB5A  0EB5               	movlw	low main@dT
  2559  00FB5C  6FA1               	movwf	(??_main+10)& (0+255),b
  2560  00FB5E  0E00               	movlw	high main@dT
  2561  00FB60  6FA2               	movwf	(??_main+11)& (0+255),b
  2562  00FB62  90D8               	bcf	status,0,c
  2563  00FB64  0101               	movlb	1	; () banked
  2564  00FB66  35CF               	rlcf	main@h& (0+255),w,b
  2565  00FB68  6ED9               	movwf	fsr2l,c
  2566  00FB6A  35D0               	rlcf	(main@h+1)& (0+255),w,b
  2567  00FB6C  6EDA               	movwf	fsr2h,c
  2568  00FB6E  90D8               	bcf	status,0,c
  2569  00FB70  36D9               	rlcf	fsr2l,f,c
  2570  00FB72  36DA               	rlcf	fsr2h,f,c
  2571  00FB74  0100               	movlb	0	; () banked
  2572  00FB76  51A1               	movf	(??_main+10)& (0+255),w,b
  2573  00FB78  26D9               	addwf	fsr2l,f,c
  2574  00FB7A  51A2               	movf	(??_main+11)& (0+255),w,b
  2575  00FB7C  22DA               	addwfc	fsr2h,f,c
  2576  00FB7E  006F FF78  F076    	movff	postinc2,?_printf+22
  2577  00FB84  006F FF78  F077    	movff	postinc2,?_printf+23
  2578  00FB8A  006F FF78  F078    	movff	postinc2,?_printf+24
  2579  00FB90  006F FF78  F079    	movff	postinc2,?_printf+25
  2580  00FB96  0ED9               	movlw	low main@a
  2581  00FB98  6FA3               	movwf	(??_main+12)& (0+255),b
  2582  00FB9A  0E00               	movlw	high main@a
  2583  00FB9C  6FA4               	movwf	(??_main+13)& (0+255),b
  2584  00FB9E  90D8               	bcf	status,0,c
  2585  00FBA0  0101               	movlb	1	; () banked
  2586  00FBA2  35CF               	rlcf	main@h& (0+255),w,b
  2587  00FBA4  6ED9               	movwf	fsr2l,c
  2588  00FBA6  35D0               	rlcf	(main@h+1)& (0+255),w,b
  2589  00FBA8  6EDA               	movwf	fsr2h,c
  2590  00FBAA  90D8               	bcf	status,0,c
  2591  00FBAC  36D9               	rlcf	fsr2l,f,c
  2592  00FBAE  36DA               	rlcf	fsr2h,f,c
  2593  00FBB0  0100               	movlb	0	; () banked
  2594  00FBB2  51A3               	movf	(??_main+12)& (0+255),w,b
  2595  00FBB4  26D9               	addwf	fsr2l,f,c
  2596  00FBB6  51A4               	movf	(??_main+13)& (0+255),w,b
  2597  00FBB8  22DA               	addwfc	fsr2h,f,c
  2598  00FBBA  006F FF78  F07A    	movff	postinc2,?_printf+26
  2599  00FBC0  006F FF78  F07B    	movff	postinc2,?_printf+27
  2600  00FBC6  006F FF78  F07C    	movff	postinc2,?_printf+28
  2601  00FBCC  006F FF78  F07D    	movff	postinc2,?_printf+29
  2602  00FBD2  EC33  F074         	call	_printf	;wreg free
  2603  00FBD6  0101               	movlb	1	; () banked
  2604  00FBD8  4BCF               	infsnz	main@h& (0+255),f,b
  2605  00FBDA  2BD0               	incf	(main@h+1)& (0+255),f,b
  2606  00FBDC                     l4955:
  2607                           
  2608                           ; BSR set to: 1
  2609  00FBDC  51CB               	movf	main@gaps& (0+255),w,b
  2610  00FBDE  5DCF               	subwf	main@h& (0+255),w,b
  2611  00FBE0  51D0               	movf	(main@h+1)& (0+255),w,b
  2612  00FBE2  0A80               	xorlw	128
  2613  00FBE4  0100               	movlb	0	; () banked
  2614  00FBE6  6F97               	movwf	??_main& (0+255),b
  2615  00FBE8  0101               	movlb	1	; () banked
  2616  00FBEA  51CC               	movf	(main@gaps+1)& (0+255),w,b
  2617  00FBEC  0A80               	xorlw	128
  2618  00FBEE  0100               	movlb	0	; () banked
  2619  00FBF0  5997               	subwfb	??_main& (0+255),w,b
  2620  00FBF2  A0D8               	btfss	status,0,c
  2621  00FBF4  EFFE  F07D         	goto	u5151
  2622  00FBF8  EF00  F07E         	goto	u5150
  2623  00FBFC                     u5151:
  2624  00FBFC  EF13  F07D         	goto	l4951
  2625  00FC00                     u5150:
  2626  00FC00                     
  2627                           ; BSR set to: 0
  2628                           ;main.c: 141: };main.c: 142: for(k=0;k<(gaps-2);k++)
  2629  00FC00  0E00               	movlw	0
  2630  00FC02  0101               	movlb	1	; () banked
  2631  00FC04  6FD2               	movwf	(main@k+1)& (0+255),b
  2632  00FC06  0E00               	movlw	0
  2633  00FC08  6FD1               	movwf	main@k& (0+255),b
  2634  00FC0A  EF3A  F07E         	goto	l4963
  2635  00FC0E                     l4959:
  2636                           
  2637                           ; BSR set to: 0
  2638                           ;main.c: 143: {;main.c: 144: sum += a[k];
  2639  00FC0E  C1C7  F035         	movff	main@sum,___fladd@b
  2640  00FC12  C1C8  F036         	movff	main@sum+1,___fladd@b+1
  2641  00FC16  C1C9  F037         	movff	main@sum+2,___fladd@b+2
  2642  00FC1A  C1CA  F038         	movff	main@sum+3,___fladd@b+3
  2643  00FC1E  0ED9               	movlw	low main@a
  2644  00FC20  6F97               	movwf	??_main& (0+255),b
  2645  00FC22  0E00               	movlw	high main@a
  2646  00FC24  6F98               	movwf	(??_main+1)& (0+255),b
  2647  00FC26  90D8               	bcf	status,0,c
  2648  00FC28  0101               	movlb	1	; () banked
  2649  00FC2A  35D1               	rlcf	main@k& (0+255),w,b
  2650  00FC2C  6ED9               	movwf	fsr2l,c
  2651  00FC2E  35D2               	rlcf	(main@k+1)& (0+255),w,b
  2652  00FC30  6EDA               	movwf	fsr2h,c
  2653  00FC32  90D8               	bcf	status,0,c
  2654  00FC34  36D9               	rlcf	fsr2l,f,c
  2655  00FC36  36DA               	rlcf	fsr2h,f,c
  2656  00FC38  0100               	movlb	0	; () banked
  2657  00FC3A  5197               	movf	??_main& (0+255),w,b
  2658  00FC3C  26D9               	addwf	fsr2l,f,c
  2659  00FC3E  5198               	movf	(??_main+1)& (0+255),w,b
  2660  00FC40  22DA               	addwfc	fsr2h,f,c
  2661  00FC42  006F FF78  F039    	movff	postinc2,___fladd@a
  2662  00FC48  006F FF78  F03A    	movff	postinc2,___fladd@a+1
  2663  00FC4E  006F FF78  F03B    	movff	postinc2,___fladd@a+2
  2664  00FC54  006F FF78  F03C    	movff	postinc2,___fladd@a+3
  2665  00FC5A  ECC9  F06E         	call	___fladd	;wreg free
  2666  00FC5E  C035  F1C7         	movff	?___fladd,main@sum
  2667  00FC62  C036  F1C8         	movff	?___fladd+1,main@sum+1
  2668  00FC66  C037  F1C9         	movff	?___fladd+2,main@sum+2
  2669  00FC6A  C038  F1CA         	movff	?___fladd+3,main@sum+3
  2670  00FC6E  0101               	movlb	1	; () banked
  2671  00FC70  4BD1               	infsnz	main@k& (0+255),f,b
  2672  00FC72  2BD2               	incf	(main@k+1)& (0+255),f,b
  2673  00FC74                     l4963:
  2674                           
  2675                           ; BSR set to: 1
  2676  00FC74  0EFE               	movlw	254
  2677  00FC76  0100               	movlb	0	; () banked
  2678  00FC78  6F97               	movwf	??_main& (0+255),b
  2679  00FC7A  0EFF               	movlw	255
  2680  00FC7C  6F98               	movwf	(??_main+1)& (0+255),b
  2681  00FC7E  C1CB  F099         	movff	main@gaps,??_main+2
  2682  00FC82  C1CC  F09A         	movff	main@gaps+1,??_main+3
  2683  00FC86  5197               	movf	??_main& (0+255),w,b
  2684  00FC88  2799               	addwf	(??_main+2)& (0+255),f,b
  2685  00FC8A  5198               	movf	(??_main+1)& (0+255),w,b
  2686  00FC8C  239A               	addwfc	(??_main+3)& (0+255),f,b
  2687  00FC8E  5199               	movf	(??_main+2)& (0+255),w,b
  2688  00FC90  0101               	movlb	1	; () banked
  2689  00FC92  5DD1               	subwf	main@k& (0+255),w,b
  2690  00FC94  51D2               	movf	(main@k+1)& (0+255),w,b
  2691  00FC96  0A80               	xorlw	128
  2692  00FC98  0100               	movlb	0	; () banked
  2693  00FC9A  6F9B               	movwf	(??_main+4)& (0+255),b
  2694  00FC9C  519A               	movf	(??_main+3)& (0+255),w,b
  2695  00FC9E  0A80               	xorlw	128
  2696  00FCA0  599B               	subwfb	(??_main+4)& (0+255),w,b
  2697  00FCA2  A0D8               	btfss	status,0,c
  2698  00FCA4  EF56  F07E         	goto	u5161
  2699  00FCA8  EF58  F07E         	goto	u5160
  2700  00FCAC                     u5161:
  2701  00FCAC  EF07  F07E         	goto	l4959
  2702  00FCB0                     u5160:
  2703  00FCB0                     
  2704                           ; BSR set to: 0
  2705                           ;main.c: 145: };main.c: 146: accavg=sum/(gaps-3);
  2706  00FCB0  C1C7  F00F         	movff	main@sum,___fldiv@b
  2707  00FCB4  C1C8  F010         	movff	main@sum+1,___fldiv@b+1
  2708  00FCB8  C1C9  F011         	movff	main@sum+2,___fldiv@b+2
  2709  00FCBC  C1CA  F012         	movff	main@sum+3,___fldiv@b+3
  2710  00FCC0  0EFD               	movlw	253
  2711  00FCC2  6F97               	movwf	??_main& (0+255),b
  2712  00FCC4  0EFF               	movlw	255
  2713  00FCC6  6F98               	movwf	(??_main+1)& (0+255),b
  2714  00FCC8  C1CB  F099         	movff	main@gaps,??_main+2
  2715  00FCCC  C1CC  F09A         	movff	main@gaps+1,??_main+3
  2716  00FCD0  5197               	movf	??_main& (0+255),w,b
  2717  00FCD2  2799               	addwf	(??_main+2)& (0+255),f,b
  2718  00FCD4  5198               	movf	(??_main+1)& (0+255),w,b
  2719  00FCD6  239A               	addwfc	(??_main+3)& (0+255),f,b
  2720  00FCD8  C099  F001         	movff	??_main+2,___xxtofl@val
  2721  00FCDC  C09A  F002         	movff	??_main+3,___xxtofl@val+1
  2722  00FCE0  0E00               	movlw	0
  2723  00FCE2  BE02               	btfsc	(___xxtofl@val+1)^0,7,c
  2724  00FCE4  0EFF               	movlw	-1
  2725  00FCE6  6E03               	movwf	(___xxtofl@val+2)^0,c
  2726  00FCE8  6E04               	movwf	(___xxtofl@val+3)^0,c
  2727  00FCEA  0E01               	movlw	1
  2728  00FCEC  EC26  F066         	call	___xxtofl
  2729  00FCF0  C001  F013         	movff	?___xxtofl,___fldiv@a
  2730  00FCF4  C002  F014         	movff	?___xxtofl+1,___fldiv@a+1
  2731  00FCF8  C003  F015         	movff	?___xxtofl+2,___fldiv@a+2
  2732  00FCFC  C004  F016         	movff	?___xxtofl+3,___fldiv@a+3
  2733  00FD00  EC7B  F068         	call	___fldiv	;wreg free
  2734  00FD04  C00F  F1B4         	movff	?___fldiv,main@accavg
  2735  00FD08  C010  F1B5         	movff	?___fldiv+1,main@accavg+1
  2736  00FD0C  C011  F1B6         	movff	?___fldiv+2,main@accavg+2
  2737  00FD10  C012  F1B7         	movff	?___fldiv+3,main@accavg+3
  2738  00FD14                     
  2739                           ;main.c: 147: printf("\n\rsum %f",sum);
  2740  00FD14  0EF2               	movlw	low STR_13
  2741  00FD16  0100               	movlb	0	; () banked
  2742  00FD18  6F60               	movwf	printf@f& (0+255),b
  2743  00FD1A  0EFF               	movlw	high STR_13
  2744  00FD1C  6F61               	movwf	(printf@f+1)& (0+255),b
  2745  00FD1E  C1C7  F062         	movff	main@sum,?_printf+2
  2746  00FD22  C1C8  F063         	movff	main@sum+1,?_printf+3
  2747  00FD26  C1C9  F064         	movff	main@sum+2,?_printf+4
  2748  00FD2A  C1CA  F065         	movff	main@sum+3,?_printf+5
  2749  00FD2E  EC33  F074         	call	_printf	;wreg free
  2750  00FD32                     
  2751                           ;main.c: 148: accavg1=1000*accavg;
  2752  00FD32  C1B4  F00F         	movff	main@accavg,___flmul@b
  2753  00FD36  C1B5  F010         	movff	main@accavg+1,___flmul@b+1
  2754  00FD3A  C1B6  F011         	movff	main@accavg+2,___flmul@b+2
  2755  00FD3E  C1B7  F012         	movff	main@accavg+3,___flmul@b+3
  2756  00FD42  0E00               	movlw	0
  2757  00FD44  6E13               	movwf	___flmul@a^0,c
  2758  00FD46  0E00               	movlw	0
  2759  00FD48  6E14               	movwf	(___flmul@a+1)^0,c
  2760  00FD4A  0E7A               	movlw	122
  2761  00FD4C  6E15               	movwf	(___flmul@a+2)^0,c
  2762  00FD4E  0E44               	movlw	68
  2763  00FD50  6E16               	movwf	(___flmul@a+3)^0,c
  2764  00FD52  EC48  F06A         	call	___flmul	;wreg free
  2765  00FD56  C00F  F1B8         	movff	?___flmul,main@accavg1
  2766  00FD5A  C010  F1B9         	movff	?___flmul+1,main@accavg1+1
  2767  00FD5E  C011  F1BA         	movff	?___flmul+2,main@accavg1+2
  2768  00FD62  C012  F1BB         	movff	?___flmul+3,main@accavg1+3
  2769  00FD66                     
  2770                           ;main.c: 149: printf("\n\rAverage acceleration due to gravity is %f",accavg1);
  2771  00FD66  0EC0               	movlw	low STR_14
  2772  00FD68  0100               	movlb	0	; () banked
  2773  00FD6A  6F60               	movwf	printf@f& (0+255),b
  2774  00FD6C  0EFE               	movlw	high STR_14
  2775  00FD6E  6F61               	movwf	(printf@f+1)& (0+255),b
  2776  00FD70  C1B8  F062         	movff	main@accavg1,?_printf+2
  2777  00FD74  C1B9  F063         	movff	main@accavg1+1,?_printf+3
  2778  00FD78  C1BA  F064         	movff	main@accavg1+2,?_printf+4
  2779  00FD7C  C1BB  F065         	movff	main@accavg1+3,?_printf+5
  2780  00FD80  EC33  F074         	call	_printf	;wreg free
  2781  00FD84  EF15  F079         	goto	l4877
  2782  00FD88  EFFE  F07F         	goto	start
  2783  00FD8C                     __end_of_main:
  2784                           	callstack 0
  2785                           
  2786 ;; *************** function _clearPuTTY *****************
  2787 ;; Defined at:
  2788 ;;		line 4 in file "../testrun.X/putty.c"
  2789 ;; Parameters:    Size  Location     Type
  2790 ;;		None
  2791 ;; Auto vars:     Size  Location     Type
  2792 ;;		None
  2793 ;; Return value:  Size  Location     Type
  2794 ;;                  1    wreg      void 
  2795 ;; Registers used:
  2796 ;;		wreg, fsr2l, fsr2h, status,2, status,0, tblptrl, tblptrh, tblptru, prodl, prodh, cstack
  2797 ;; Tracked objects:
  2798 ;;		On entry : 0/0
  2799 ;;		On exit  : 0/0
  2800 ;;		Unchanged: 0/0
  2801 ;; Data sizes:     COMRAM   BANK0   BANK1   BANK2   BANK3   BANK4   BANK5   BANK6   BANK7   BANK8   BANK9  BANK10  BANK1
      +1  BANK12  BANK13  BANK14  BANK15
  2802 ;;      Params:         0       0       0       0       0       0       0       0       0       0       0       0       
      +0       0       0       0       0
  2803 ;;      Locals:         0       0       0       0       0       0       0       0       0       0       0       0       
      +0       0       0       0       0
  2804 ;;      Temps:          0       0       0       0       0       0       0       0       0       0       0       0       
      +0       0       0       0       0
  2805 ;;      Totals:         0       0       0       0       0       0       0       0       0       0       0       0       
      +0       0       0       0       0
  2806 ;;Total ram usage:        0 bytes
  2807 ;; Hardware stack levels used:    1
  2808 ;; Hardware stack levels required when called:    3
  2809 ;; This function calls:
  2810 ;;		_printf
  2811 ;; This function is called by:
  2812 ;;		_main
  2813 ;; This function uses a non-reentrant model
  2814 ;;
  2815                           
  2816                           	psect	text1
  2817  00C09E                     __ptext1:
  2818                           	callstack 0
  2819  00C09E                     _clearPuTTY:
  2820                           	callstack 27
  2821  00C09E                     
  2822                           ;putty.c: 6: printf("%c%c%c%c",27,'[','2','J');
  2823  00C09E  0EE9               	movlw	low STR_15
  2824  00C0A0  0100               	movlb	0	; () banked
  2825  00C0A2  6F60               	movwf	printf@f& (0+255),b
  2826  00C0A4  0EFF               	movlw	high STR_15
  2827  00C0A6  6F61               	movwf	(printf@f+1)& (0+255),b
  2828  00C0A8  0E00               	movlw	0
  2829  00C0AA  6F63               	movwf	(?_printf+3)& (0+255),b
  2830  00C0AC  0E1B               	movlw	27
  2831  00C0AE  6F62               	movwf	(?_printf+2)& (0+255),b
  2832  00C0B0  0E00               	movlw	0
  2833  00C0B2  6F65               	movwf	(?_printf+5)& (0+255),b
  2834  00C0B4  0E5B               	movlw	91
  2835  00C0B6  6F64               	movwf	(?_printf+4)& (0+255),b
  2836  00C0B8  0E00               	movlw	0
  2837  00C0BA  6F67               	movwf	(?_printf+7)& (0+255),b
  2838  00C0BC  0E32               	movlw	50
  2839  00C0BE  6F66               	movwf	(?_printf+6)& (0+255),b
  2840  00C0C0  0E00               	movlw	0
  2841  00C0C2  6F69               	movwf	(?_printf+9)& (0+255),b
  2842  00C0C4  0E4A               	movlw	74
  2843  00C0C6  6F68               	movwf	(?_printf+8)& (0+255),b
  2844  00C0C8  EC33  F074         	call	_printf	;wreg free
  2845                           
  2846                           ;putty.c: 7: printf("%c%c%c%c",27,'[','3','J');
  2847  00C0CC  0EE9               	movlw	low STR_15
  2848  00C0CE  0100               	movlb	0	; () banked
  2849  00C0D0  6F60               	movwf	printf@f& (0+255),b
  2850  00C0D2  0EFF               	movlw	high STR_15
  2851  00C0D4  6F61               	movwf	(printf@f+1)& (0+255),b
  2852  00C0D6  0E00               	movlw	0
  2853  00C0D8  6F63               	movwf	(?_printf+3)& (0+255),b
  2854  00C0DA  0E1B               	movlw	27
  2855  00C0DC  6F62               	movwf	(?_printf+2)& (0+255),b
  2856  00C0DE  0E00               	movlw	0
  2857  00C0E0  6F65               	movwf	(?_printf+5)& (0+255),b
  2858  00C0E2  0E5B               	movlw	91
  2859  00C0E4  6F64               	movwf	(?_printf+4)& (0+255),b
  2860  00C0E6  0E00               	movlw	0
  2861  00C0E8  6F67               	movwf	(?_printf+7)& (0+255),b
  2862  00C0EA  0E33               	movlw	51
  2863  00C0EC  6F66               	movwf	(?_printf+6)& (0+255),b
  2864  00C0EE  0E00               	movlw	0
  2865  00C0F0  6F69               	movwf	(?_printf+9)& (0+255),b
  2866  00C0F2  0E4A               	movlw	74
  2867  00C0F4  6F68               	movwf	(?_printf+8)& (0+255),b
  2868  00C0F6  EC33  F074         	call	_printf	;wreg free
  2869                           
  2870                           ;putty.c: 8: printf("%c%c%c",27,'[','H');
  2871  00C0FA  0EEB               	movlw	low (STR_15+2)
  2872  00C0FC  0100               	movlb	0	; () banked
  2873  00C0FE  6F60               	movwf	printf@f& (0+255),b
  2874  00C100  0EFF               	movlw	high (STR_15+2)
  2875  00C102  6F61               	movwf	(printf@f+1)& (0+255),b
  2876  00C104  0E00               	movlw	0
  2877  00C106  6F63               	movwf	(?_printf+3)& (0+255),b
  2878  00C108  0E1B               	movlw	27
  2879  00C10A  6F62               	movwf	(?_printf+2)& (0+255),b
  2880  00C10C  0E00               	movlw	0
  2881  00C10E  6F65               	movwf	(?_printf+5)& (0+255),b
  2882  00C110  0E5B               	movlw	91
  2883  00C112  6F64               	movwf	(?_printf+4)& (0+255),b
  2884  00C114  0E00               	movlw	0
  2885  00C116  6F67               	movwf	(?_printf+7)& (0+255),b
  2886  00C118  0E48               	movlw	72
  2887  00C11A  6F66               	movwf	(?_printf+6)& (0+255),b
  2888  00C11C  EC33  F074         	call	_printf	;wreg free
  2889  00C120  0012               	return		;funcret
  2890  00C122                     __end_of_clearPuTTY:
  2891                           	callstack 0
  2892                           
  2893 ;; *************** function _printf *****************
  2894 ;; Defined at:
  2895 ;;		line 477 in file "C:\Program Files\Microchip\xc8\v2.30\pic\sources\c90\common\doprnt.c"
  2896 ;; Parameters:    Size  Location     Type
  2897 ;;  f               2    0[BANK0 ] PTR const unsigned char 
  2898 ;;		 -> STR_17(7), STR_16(9), STR_15(9), STR_14(44), 
  2899 ;;		 -> STR_13(9), STR_12(27), STR_11(51), STR_10(38), 
  2900 ;;		 -> STR_9(25), STR_8(23), STR_7(35), STR_6(51), 
  2901 ;;		 -> STR_5(61), STR_4(24), STR_3(26), STR_2(18), 
  2902 ;;		 -> STR_1(37), 
  2903 ;; Auto vars:     Size  Location     Type
  2904 ;;  fval            4   50[BANK0 ] PTR const unsigned char 
  2905 ;;  tmpval          4   46[BANK0 ] struct .
  2906 ;;  val             4   40[BANK0 ] unsigned long 
  2907 ;;  cp              3    0        PTR const unsigned char 
  2908 ;;  eexp            2   44[BANK0 ] int 
  2909 ;;  prec            2   38[BANK0 ] int 
  2910 ;;  flag            2   36[BANK0 ] unsigned short 
  2911 ;;  ap              2   34[BANK0 ] PTR void [1]
  2912 ;;		 -> ?_printf(2), 
  2913 ;;  len             2    0        unsigned int 
  2914 ;;  width           2    0        int 
  2915 ;;  c               1   54[BANK0 ] unsigned char 
  2916 ;;  d               1    0        unsigned char 
  2917 ;; Return value:  Size  Location     Type
  2918 ;;                  2    0[BANK0 ] int 
  2919 ;; Registers used:
  2920 ;;		wreg, fsr2l, fsr2h, status,2, status,0, tblptrl, tblptrh, tblptru, prodl, prodh, cstack
  2921 ;; Tracked objects:
  2922 ;;		On entry : 0/0
  2923 ;;		On exit  : 0/0
  2924 ;;		Unchanged: 0/0
  2925 ;; Data sizes:     COMRAM   BANK0   BANK1   BANK2   BANK3   BANK4   BANK5   BANK6   BANK7   BANK8   BANK9  BANK10  BANK1
      +1  BANK12  BANK13  BANK14  BANK15
  2926 ;;      Params:         0      30       0       0       0       0       0       0       0       0       0       0       
      +0       0       0       0       0
  2927 ;;      Locals:         0      25       0       0       0       0       0       0       0       0       0       0       
      +0       0       0       0       0
  2928 ;;      Temps:          2       0       0       0       0       0       0       0       0       0       0       0       
      +0       0       0       0       0
  2929 ;;      Totals:         2      55       0       0       0       0       0       0       0       0       0       0       
      +0       0       0       0       0
  2930 ;;Total ram usage:       57 bytes
  2931 ;; Hardware stack levels used:    1
  2932 ;; Hardware stack levels required when called:    2
  2933 ;; This function calls:
  2934 ;;		___awdiv
  2935 ;;		___fladd
  2936 ;;		___fleq
  2937 ;;		___flge
  2938 ;;		___flmul
  2939 ;;		___flneg
  2940 ;;		___flsub
  2941 ;;		___fltol
  2942 ;;		___lldiv
  2943 ;;		___llmod
  2944 ;;		___wmul
  2945 ;;		___xxtofl
  2946 ;;		__div_to_l_
  2947 ;;		__tdiv_to_l_
  2948 ;;		_fround
  2949 ;;		_putch
  2950 ;;		_scale
  2951 ;; This function is called by:
  2952 ;;		_main
  2953 ;;		_clearPuTTY
  2954 ;; This function uses a non-reentrant model
  2955 ;;
  2956                           
  2957                           	psect	text2
  2958  00E866                     __ptext2:
  2959                           	callstack 0
  2960  00E866                     _printf:
  2961                           	callstack 28
  2962  00E866                     
  2963                           ;doprnt.c: 479: va_list ap;;doprnt.c: 512: char c;;doprnt.c: 514: int width;;doprnt.c: 5
      +                          17: int prec;;doprnt.c: 525: unsigned short flag;;doprnt.c: 532: char d;;doprnt.c: 533: 
      +                          double fval;;doprnt.c: 534: int eexp;;doprnt.c: 540: union {;doprnt.c: 541: unsigned lon
      +                          g vd;;doprnt.c: 542: double integ;;doprnt.c: 543: } tmpval;;doprnt.c: 545: unsigned long
      +                           val;;doprnt.c: 546: unsigned len;;doprnt.c: 547: const char * cp;;doprnt.c: 550: *ap = 
      +                          __va_start();
  2964  00E866  0E62               	movlw	low (?_printf+2)
  2965  00E868  0100               	movlb	0	; () banked
  2966  00E86A  6F82               	movwf	printf@ap& (0+255),b
  2967  00E86C  0E00               	movlw	high (?_printf+2)
  2968  00E86E  6F83               	movwf	(printf@ap+1)& (0+255),b
  2969                           
  2970                           ;doprnt.c: 553: while((c = *f++)) {
  2971  00E870  EFDC  F078         	goto	l4595
  2972  00E874                     l4407:
  2973                           
  2974                           ; BSR set to: 0
  2975                           ;doprnt.c: 555: if(c != '%')
  2976  00E874  0E25               	movlw	37
  2977  00E876  1996               	xorwf	printf@c& (0+255),w,b
  2978  00E878  B4D8               	btfsc	status,2,c
  2979  00E87A  EF41  F074         	goto	u4371
  2980  00E87E  EF43  F074         	goto	u4370
  2981  00E882                     u4371:
  2982  00E882  EF48  F074         	goto	l4411
  2983  00E886                     u4370:
  2984  00E886                     
  2985                           ; BSR set to: 0
  2986                           ;doprnt.c: 557: {;doprnt.c: 558: (putch(c) );
  2987  00E886  5196               	movf	printf@c& (0+255),w,b
  2988  00E888  EC4A  F05E         	call	_putch
  2989                           
  2990                           ;doprnt.c: 559: continue;
  2991  00E88C  EFDC  F078         	goto	l4595
  2992  00E890                     l4411:
  2993                           
  2994                           ; BSR set to: 0
  2995                           ;doprnt.c: 560: };doprnt.c: 565: flag = 0;
  2996  00E890  0E00               	movlw	0
  2997  00E892  6F85               	movwf	(printf@flag+1)& (0+255),b
  2998  00E894  0E00               	movlw	0
  2999  00E896  6F84               	movwf	printf@flag& (0+255),b
  3000  00E898  EF69  F074         	goto	l4427
  3001  00E89C                     l4413:
  3002                           
  3003                           ; BSR set to: 0
  3004                           ;doprnt.c: 669: flag |= 0x10;
  3005  00E89C  8984               	bsf	printf@flag& (0+255),4,b
  3006                           
  3007                           ;doprnt.c: 670: goto loop;
  3008  00E89E  EF69  F074         	goto	l4427
  3009  00E8A2                     l4415:
  3010                           
  3011                           ; BSR set to: 0
  3012                           ;doprnt.c: 689: flag |= 0x400;
  3013  00E8A2  8585               	bsf	(printf@flag+1)& (0+255),2,b
  3014                           
  3015                           ;doprnt.c: 690: break;
  3016  00E8A4  EF8D  F074         	goto	l4429
  3017  00E8A8                     l4417:
  3018                           
  3019                           ; BSR set to: 0
  3020                           ;doprnt.c: 825: c = (char)(*(int *)__va_arg((*(int **)ap), (int)0));
  3021  00E8A8  0060  F20B  FFD9   	movff	printf@ap,fsr2l
  3022  00E8AE  0060  F20F  FFDA   	movff	printf@ap+1,fsr2h
  3023  00E8B4  50DF               	movf	indf2,w,c
  3024  00E8B6  6F96               	movwf	printf@c& (0+255),b
  3025  00E8B8                     
  3026                           ; BSR set to: 0
  3027  00E8B8  0E02               	movlw	2
  3028  00E8BA  2782               	addwf	printf@ap& (0+255),f,b
  3029  00E8BC  0E00               	movlw	0
  3030  00E8BE  2383               	addwfc	(printf@ap+1)& (0+255),f,b
  3031  00E8C0                     l4421:
  3032                           
  3033                           ; BSR set to: 0
  3034                           ;doprnt.c: 835: (putch(c) );
  3035  00E8C0  5196               	movf	printf@c& (0+255),w,b
  3036  00E8C2  EC4A  F05E         	call	_putch
  3037                           
  3038                           ;doprnt.c: 836: continue;
  3039  00E8C6  EFDC  F078         	goto	l4595
  3040  00E8CA                     l4423:
  3041                           
  3042                           ; BSR set to: 0
  3043                           ;doprnt.c: 844: flag |= 0xC0;
  3044  00E8CA  0EC0               	movlw	192
  3045  00E8CC  1384               	iorwf	printf@flag& (0+255),f,b
  3046                           
  3047                           ;doprnt.c: 845: break;
  3048  00E8CE  EF8D  F074         	goto	l4429
  3049  00E8D2                     l4427:
  3050                           
  3051                           ; BSR set to: 0
  3052  00E8D2  0060  F183  FFF6   	movff	printf@f,tblptrl
  3053  00E8D8  0060  F187  FFF7   	movff	printf@f+1,tblptrh
  3054  00E8DE  4B60               	infsnz	printf@f& (0+255),f,b
  3055  00E8E0  2B61               	incf	(printf@f+1)& (0+255),f,b
  3056  00E8E2                     	if	1	;Program memory is < 0x10000, tblptru is always zero
  3057  00E8E2  6AF8               	clrf	tblptru,c
  3058  00E8E4                     	endif
  3059  00E8E4                     	if	0	;tblptru may be non-zero
  3060  00E8E4                     	endif
  3061  00E8E4  0008               	tblrd		*
  3062  00E8E6  006F FFD4  F096    	movff	tablat,printf@c
  3063  00E8EC  5196               	movf	printf@c& (0+255),w,b
  3064                           
  3065                           ; Switch size 1, requested type "simple"
  3066                           ; Number of cases is 5, Range of values is 0 to 117
  3067                           ; switch strategies available:
  3068                           ; Name         Instructions Cycles
  3069                           ; simple_byte           16     9 (average)
  3070                           ;	Chosen strategy is simple_byte
  3071  00E8EE  0A00               	xorlw	0	; case 0
  3072  00E8F0  B4D8               	btfsc	status,2,c
  3073  00E8F2  EFF2  F078         	goto	l647
  3074  00E8F6  0A63               	xorlw	99	; case 99
  3075  00E8F8  B4D8               	btfsc	status,2,c
  3076  00E8FA  EF54  F074         	goto	l4417
  3077  00E8FE  0A05               	xorlw	5	; case 102
  3078  00E900  B4D8               	btfsc	status,2,c
  3079  00E902  EF51  F074         	goto	l4415
  3080  00E906  0A0A               	xorlw	10	; case 108
  3081  00E908  B4D8               	btfsc	status,2,c
  3082  00E90A  EF4E  F074         	goto	l4413
  3083  00E90E  0A19               	xorlw	25	; case 117
  3084  00E910  B4D8               	btfsc	status,2,c
  3085  00E912  EF65  F074         	goto	l4423
  3086  00E916  EF60  F074         	goto	l4421
  3087  00E91A                     l4429:
  3088                           
  3089                           ; BSR set to: 0
  3090                           ;doprnt.c: 851: if(flag & (0x700)) {
  3091  00E91A  0E07               	movlw	7
  3092  00E91C  1585               	andwf	(printf@flag+1)& (0+255),w,b
  3093  00E91E  B4D8               	btfsc	status,2,c
  3094  00E920  EF94  F074         	goto	u4381
  3095  00E924  EF96  F074         	goto	u4380
  3096  00E928                     u4381:
  3097  00E928  EF0F  F078         	goto	l600
  3098  00E92C                     u4380:
  3099  00E92C                     
  3100                           ; BSR set to: 0
  3101                           ;doprnt.c: 855: prec = 6;
  3102  00E92C  0E00               	movlw	0
  3103  00E92E  6F87               	movwf	(printf@prec+1)& (0+255),b
  3104  00E930  0E06               	movlw	6
  3105  00E932  6F86               	movwf	printf@prec& (0+255),b
  3106  00E934                     
  3107                           ; BSR set to: 0
  3108                           ;doprnt.c: 856: fval = (*(double *)__va_arg((*(double **)ap), (double)0));
  3109  00E934  0060  F20B  FFD9   	movff	printf@ap,fsr2l
  3110  00E93A  0060  F20F  FFDA   	movff	printf@ap+1,fsr2h
  3111  00E940  006F FF78  F092    	movff	postinc2,printf@fval
  3112  00E946  006F FF78  F093    	movff	postinc2,printf@fval+1
  3113  00E94C  006F FF78  F094    	movff	postinc2,printf@fval+2
  3114  00E952  006F FF78  F095    	movff	postinc2,printf@fval+3
  3115  00E958                     
  3116                           ; BSR set to: 0
  3117  00E958  0E04               	movlw	4
  3118  00E95A  2782               	addwf	printf@ap& (0+255),f,b
  3119  00E95C  0E00               	movlw	0
  3120  00E95E  2383               	addwfc	(printf@ap+1)& (0+255),f,b
  3121  00E960                     
  3122                           ; BSR set to: 0
  3123                           ;doprnt.c: 857: if(fval < 0.0) {
  3124  00E960  BF95               	btfsc	(printf@fval+3)& (0+255),7,b
  3125  00E962  EFB7  F074         	goto	u4390
  3126  00E966  EFB5  F074         	goto	u4391
  3127  00E96A                     u4391:
  3128  00E96A  EFCC  F074         	goto	l4443
  3129  00E96E                     u4390:
  3130  00E96E                     
  3131                           ; BSR set to: 0
  3132                           ;doprnt.c: 858: fval = -fval;
  3133  00E96E  C092  F001         	movff	printf@fval,___flneg@f1
  3134  00E972  C093  F002         	movff	printf@fval+1,___flneg@f1+1
  3135  00E976  C094  F003         	movff	printf@fval+2,___flneg@f1+2
  3136  00E97A  C095  F004         	movff	printf@fval+3,___flneg@f1+3
  3137  00E97E  EC1F  F05F         	call	___flneg	;wreg free
  3138  00E982  C001  F092         	movff	?___flneg,printf@fval
  3139  00E986  C002  F093         	movff	?___flneg+1,printf@fval+1
  3140  00E98A  C003  F094         	movff	?___flneg+2,printf@fval+2
  3141  00E98E  C004  F095         	movff	?___flneg+3,printf@fval+3
  3142  00E992                     
  3143                           ;doprnt.c: 859: flag |= 0x03;
  3144  00E992  0E03               	movlw	3
  3145  00E994  0100               	movlb	0	; () banked
  3146  00E996  1384               	iorwf	printf@flag& (0+255),f,b
  3147  00E998                     l4443:
  3148                           
  3149                           ; BSR set to: 0
  3150                           ;doprnt.c: 860: };doprnt.c: 861: eexp = 0;
  3151  00E998  0E00               	movlw	0
  3152  00E99A  6F8D               	movwf	(printf@eexp+1)& (0+255),b
  3153  00E99C  0E00               	movlw	0
  3154  00E99E  6F8C               	movwf	printf@eexp& (0+255),b
  3155  00E9A0                     
  3156                           ; BSR set to: 0
  3157                           ;doprnt.c: 862: if( fval!=0) {
  3158  00E9A0  C092  F001         	movff	printf@fval,___fleq@ff1
  3159  00E9A4  C093  F002         	movff	printf@fval+1,___fleq@ff1+1
  3160  00E9A8  C094  F003         	movff	printf@fval+2,___fleq@ff1+2
  3161  00E9AC  C095  F004         	movff	printf@fval+3,___fleq@ff1+3
  3162  00E9B0  0E00               	movlw	0
  3163  00E9B2  6E05               	movwf	___fleq@ff2^0,c
  3164  00E9B4  0E00               	movlw	0
  3165  00E9B6  6E06               	movwf	(___fleq@ff2+1)^0,c
  3166  00E9B8  0E00               	movlw	0
  3167  00E9BA  6E07               	movwf	(___fleq@ff2+2)^0,c
  3168  00E9BC  0E00               	movlw	0
  3169  00E9BE  6E08               	movwf	(___fleq@ff2+3)^0,c
  3170  00E9C0  ECC9  F061         	call	___fleq	;wreg free
  3171  00E9C4  B0D8               	btfsc	status,0,c
  3172  00E9C6  EFE7  F074         	goto	u4401
  3173  00E9CA  EFE9  F074         	goto	u4400
  3174  00E9CE                     u4401:
  3175  00E9CE  EF7C  F075         	goto	l4471
  3176  00E9D2                     u4400:
  3177  00E9D2                     
  3178                           ;doprnt.c: 863: (void)(*(&eexp) = (unsigned char)((*(unsigned long *)&fval >> 23) & 255)
      +                           - 126);
  3179  00E9D2  0100               	movlb	0	; () banked
  3180  00E9D4  3594               	rlcf	(printf@fval+2)& (0+255),w,b
  3181  00E9D6  3595               	rlcf	(printf@fval+3)& (0+255),w,b
  3182  00E9D8  0F82               	addlw	130
  3183  00E9DA  6F8C               	movwf	printf@eexp& (0+255),b
  3184  00E9DC  6B8D               	clrf	(printf@eexp+1)& (0+255),b
  3185  00E9DE  0EFF               	movlw	255
  3186  00E9E0  238D               	addwfc	(printf@eexp+1)& (0+255),f,b
  3187  00E9E2                     
  3188                           ; BSR set to: 0
  3189                           ;doprnt.c: 864: eexp--;
  3190  00E9E2  078C               	decf	printf@eexp& (0+255),f,b
  3191  00E9E4  A0D8               	btfss	status,0,c
  3192  00E9E6  078D               	decf	(printf@eexp+1)& (0+255),f,b
  3193  00E9E8                     
  3194                           ; BSR set to: 0
  3195                           ;doprnt.c: 865: eexp *= 3;
  3196  00E9E8  C08C  F001         	movff	printf@eexp,___wmul@multiplier
  3197  00E9EC  C08D  F002         	movff	printf@eexp+1,___wmul@multiplier+1
  3198  00E9F0  0E00               	movlw	0
  3199  00E9F2  6E04               	movwf	(___wmul@multiplicand+1)^0,c
  3200  00E9F4  0E03               	movlw	3
  3201  00E9F6  6E03               	movwf	___wmul@multiplicand^0,c
  3202  00E9F8  ECF1  F05E         	call	___wmul	;wreg free
  3203  00E9FC  C001  F08C         	movff	?___wmul,printf@eexp
  3204  00EA00  C002  F08D         	movff	?___wmul+1,printf@eexp+1
  3205  00EA04                     
  3206                           ;doprnt.c: 866: eexp /= 10;
  3207  00EA04  C08C  F007         	movff	printf@eexp,___awdiv@dividend
  3208  00EA08  C08D  F008         	movff	printf@eexp+1,___awdiv@dividend+1
  3209  00EA0C  0E00               	movlw	0
  3210  00EA0E  6E0A               	movwf	(___awdiv@divisor+1)^0,c
  3211  00EA10  0E0A               	movlw	10
  3212  00EA12  6E09               	movwf	___awdiv@divisor^0,c
  3213  00EA14  ECD6  F062         	call	___awdiv	;wreg free
  3214  00EA18  C007  F08C         	movff	?___awdiv,printf@eexp
  3215  00EA1C  C008  F08D         	movff	?___awdiv+1,printf@eexp+1
  3216  00EA20                     
  3217                           ;doprnt.c: 867: if(eexp < 0)
  3218  00EA20  0100               	movlb	0	; () banked
  3219  00EA22  BF8D               	btfsc	(printf@eexp+1)& (0+255),7,b
  3220  00EA24  EF18  F075         	goto	u4410
  3221  00EA28  EF16  F075         	goto	u4411
  3222  00EA2C                     u4411:
  3223  00EA2C  EF1B  F075         	goto	l4459
  3224  00EA30                     u4410:
  3225  00EA30                     
  3226                           ; BSR set to: 0
  3227                           ;doprnt.c: 868: eexp--;
  3228  00EA30  078C               	decf	printf@eexp& (0+255),f,b
  3229  00EA32  A0D8               	btfss	status,0,c
  3230  00EA34  078D               	decf	(printf@eexp+1)& (0+255),f,b
  3231  00EA36                     l4459:
  3232                           
  3233                           ; BSR set to: 0
  3234                           ;doprnt.c: 872: tmpval.integ = scale(-eexp);
  3235  00EA36  518C               	movf	printf@eexp& (0+255),w,b
  3236  00EA38  0800               	sublw	0
  3237  00EA3A  EC6F  F06C         	call	_scale
  3238  00EA3E  C028  F08E         	movff	?_scale,printf@tmpval
  3239  00EA42  C029  F08F         	movff	?_scale+1,printf@tmpval+1
  3240  00EA46  C02A  F090         	movff	?_scale+2,printf@tmpval+2
  3241  00EA4A  C02B  F091         	movff	?_scale+3,printf@tmpval+3
  3242  00EA4E                     
  3243                           ;doprnt.c: 873: tmpval.integ *= fval;
  3244  00EA4E  C08E  F00F         	movff	printf@tmpval,___flmul@b
  3245  00EA52  C08F  F010         	movff	printf@tmpval+1,___flmul@b+1
  3246  00EA56  C090  F011         	movff	printf@tmpval+2,___flmul@b+2
  3247  00EA5A  C091  F012         	movff	printf@tmpval+3,___flmul@b+3
  3248  00EA5E  C092  F013         	movff	printf@fval,___flmul@a
  3249  00EA62  C093  F014         	movff	printf@fval+1,___flmul@a+1
  3250  00EA66  C094  F015         	movff	printf@fval+2,___flmul@a+2
  3251  00EA6A  C095  F016         	movff	printf@fval+3,___flmul@a+3
  3252  00EA6E  EC48  F06A         	call	___flmul	;wreg free
  3253  00EA72  C00F  F08E         	movff	?___flmul,printf@tmpval
  3254  00EA76  C010  F08F         	movff	?___flmul+1,printf@tmpval+1
  3255  00EA7A  C011  F090         	movff	?___flmul+2,printf@tmpval+2
  3256  00EA7E  C012  F091         	movff	?___flmul+3,printf@tmpval+3
  3257  00EA82                     
  3258                           ;doprnt.c: 874: if(tmpval.integ < 1.0)
  3259  00EA82  C08E  F001         	movff	printf@tmpval,___flge@ff1
  3260  00EA86  C08F  F002         	movff	printf@tmpval+1,___flge@ff1+1
  3261  00EA8A  C090  F003         	movff	printf@tmpval+2,___flge@ff1+2
  3262  00EA8E  C091  F004         	movff	printf@tmpval+3,___flge@ff1+3
  3263  00EA92  0E00               	movlw	0
  3264  00EA94  6E05               	movwf	___flge@ff2^0,c
  3265  00EA96  0E00               	movlw	0
  3266  00EA98  6E06               	movwf	(___flge@ff2+1)^0,c
  3267  00EA9A  0E80               	movlw	128
  3268  00EA9C  6E07               	movwf	(___flge@ff2+2)^0,c
  3269  00EA9E  0E3F               	movlw	63
  3270  00EAA0  6E08               	movwf	(___flge@ff2+3)^0,c
  3271  00EAA2  EC38  F063         	call	___flge	;wreg free
  3272  00EAA6  B0D8               	btfsc	status,0,c
  3273  00EAA8  EF58  F075         	goto	u4421
  3274  00EAAC  EF5A  F075         	goto	u4420
  3275  00EAB0                     u4421:
  3276  00EAB0  EF60  F075         	goto	l4467
  3277  00EAB4                     u4420:
  3278  00EAB4                     
  3279                           ;doprnt.c: 875: eexp--;
  3280  00EAB4  0100               	movlb	0	; () banked
  3281  00EAB6  078C               	decf	printf@eexp& (0+255),f,b
  3282  00EAB8  A0D8               	btfss	status,0,c
  3283  00EABA  078D               	decf	(printf@eexp+1)& (0+255),f,b
  3284  00EABC  EF7C  F075         	goto	l4471
  3285  00EAC0                     l4467:
  3286                           
  3287                           ;doprnt.c: 876: else if(tmpval.integ >= 10.0)
  3288  00EAC0  C08E  F001         	movff	printf@tmpval,___flge@ff1
  3289  00EAC4  C08F  F002         	movff	printf@tmpval+1,___flge@ff1+1
  3290  00EAC8  C090  F003         	movff	printf@tmpval+2,___flge@ff1+2
  3291  00EACC  C091  F004         	movff	printf@tmpval+3,___flge@ff1+3
  3292  00EAD0  0E00               	movlw	0
  3293  00EAD2  6E05               	movwf	___flge@ff2^0,c
  3294  00EAD4  0E00               	movlw	0
  3295  00EAD6  6E06               	movwf	(___flge@ff2+1)^0,c
  3296  00EAD8  0E20               	movlw	32
  3297  00EADA  6E07               	movwf	(___flge@ff2+2)^0,c
  3298  00EADC  0E41               	movlw	65
  3299  00EADE  6E08               	movwf	(___flge@ff2+3)^0,c
  3300  00EAE0  EC38  F063         	call	___flge	;wreg free
  3301  00EAE4  A0D8               	btfss	status,0,c
  3302  00EAE6  EF77  F075         	goto	u4431
  3303  00EAEA  EF79  F075         	goto	u4430
  3304  00EAEE                     u4431:
  3305  00EAEE  EF7C  F075         	goto	l4471
  3306  00EAF2                     u4430:
  3307  00EAF2                     
  3308                           ;doprnt.c: 877: eexp++;
  3309  00EAF2  0100               	movlb	0	; () banked
  3310  00EAF4  4B8C               	infsnz	printf@eexp& (0+255),f,b
  3311  00EAF6  2B8D               	incf	(printf@eexp+1)& (0+255),f,b
  3312  00EAF8                     l4471:
  3313  00EAF8                     
  3314                           ;doprnt.c: 1139: fval += fround((unsigned int)prec);
  3315  00EAF8  C092  F035         	movff	printf@fval,___fladd@b
  3316  00EAFC  C093  F036         	movff	printf@fval+1,___fladd@b+1
  3317  00EB00  C094  F037         	movff	printf@fval+2,___fladd@b+2
  3318  00EB04  C095  F038         	movff	printf@fval+3,___fladd@b+3
  3319  00EB08  0E06               	movlw	6
  3320  00EB0A  EC00  F067         	call	_fround
  3321  00EB0E  C028  F039         	movff	?_fround,___fladd@a
  3322  00EB12  C029  F03A         	movff	?_fround+1,___fladd@a+1
  3323  00EB16  C02A  F03B         	movff	?_fround+2,___fladd@a+2
  3324  00EB1A  C02B  F03C         	movff	?_fround+3,___fladd@a+3
  3325  00EB1E  ECC9  F06E         	call	___fladd	;wreg free
  3326  00EB22  C035  F092         	movff	?___fladd,printf@fval
  3327  00EB26  C036  F093         	movff	?___fladd+1,printf@fval+1
  3328  00EB2A  C037  F094         	movff	?___fladd+2,printf@fval+2
  3329  00EB2E  C038  F095         	movff	?___fladd+3,printf@fval+3
  3330  00EB32                     
  3331                           ;doprnt.c: 1142: if((eexp > 9)||(fval != 0 && (unsigned long)fval == 0 && eexp > 1)) {
  3332  00EB32  0100               	movlb	0	; () banked
  3333  00EB34  BF8D               	btfsc	(printf@eexp+1)& (0+255),7,b
  3334  00EB36  EFA8  F075         	goto	u4440
  3335  00EB3A  518D               	movf	(printf@eexp+1)& (0+255),w,b
  3336  00EB3C  E107               	bnz	u4441
  3337  00EB3E  0E0A               	movlw	10
  3338  00EB40  5D8C               	subwf	printf@eexp& (0+255),w,b
  3339  00EB42  B0D8               	btfsc	status,0,c
  3340  00EB44  EFA6  F075         	goto	u4441
  3341  00EB48  EFA8  F075         	goto	u4440
  3342  00EB4C                     u4441:
  3343  00EB4C  EFE5  F075         	goto	l4483
  3344  00EB50                     u4440:
  3345  00EB50                     
  3346                           ; BSR set to: 0
  3347  00EB50  C092  F001         	movff	printf@fval,___fleq@ff1
  3348  00EB54  C093  F002         	movff	printf@fval+1,___fleq@ff1+1
  3349  00EB58  C094  F003         	movff	printf@fval+2,___fleq@ff1+2
  3350  00EB5C  C095  F004         	movff	printf@fval+3,___fleq@ff1+3
  3351  00EB60  0E00               	movlw	0
  3352  00EB62  6E05               	movwf	___fleq@ff2^0,c
  3353  00EB64  0E00               	movlw	0
  3354  00EB66  6E06               	movwf	(___fleq@ff2+1)^0,c
  3355  00EB68  0E00               	movlw	0
  3356  00EB6A  6E07               	movwf	(___fleq@ff2+2)^0,c
  3357  00EB6C  0E00               	movlw	0
  3358  00EB6E  6E08               	movwf	(___fleq@ff2+3)^0,c
  3359  00EB70  ECC9  F061         	call	___fleq	;wreg free
  3360  00EB74  B0D8               	btfsc	status,0,c
  3361  00EB76  EFBF  F075         	goto	u4451
  3362  00EB7A  EFC1  F075         	goto	u4450
  3363  00EB7E                     u4451:
  3364  00EB7E  EF3A  F076         	goto	l4497
  3365  00EB82                     u4450:
  3366  00EB82  C092  F031         	movff	printf@fval,___fltol@f1
  3367  00EB86  C093  F032         	movff	printf@fval+1,___fltol@f1+1
  3368  00EB8A  C094  F033         	movff	printf@fval+2,___fltol@f1+2
  3369  00EB8E  C095  F034         	movff	printf@fval+3,___fltol@f1+3
  3370  00EB92  ECBA  F063         	call	___fltol	;wreg free
  3371  00EB96  5031               	movf	?___fltol^0,w,c
  3372  00EB98  1032               	iorwf	(?___fltol+1)^0,w,c
  3373  00EB9A  1033               	iorwf	(?___fltol+2)^0,w,c
  3374  00EB9C  1034               	iorwf	(?___fltol+3)^0,w,c
  3375  00EB9E  A4D8               	btfss	status,2,c
  3376  00EBA0  EFD4  F075         	goto	u4461
  3377  00EBA4  EFD6  F075         	goto	u4460
  3378  00EBA8                     u4461:
  3379  00EBA8  EF3A  F076         	goto	l4497
  3380  00EBAC                     u4460:
  3381  00EBAC  0100               	movlb	0	; () banked
  3382  00EBAE  BF8D               	btfsc	(printf@eexp+1)& (0+255),7,b
  3383  00EBB0  EFE3  F075         	goto	u4471
  3384  00EBB4  518D               	movf	(printf@eexp+1)& (0+255),w,b
  3385  00EBB6  E109               	bnz	u4470
  3386  00EBB8  0E02               	movlw	2
  3387  00EBBA  5D8C               	subwf	printf@eexp& (0+255),w,b
  3388  00EBBC  A0D8               	btfss	status,0,c
  3389  00EBBE  EFE3  F075         	goto	u4471
  3390  00EBC2  EFE5  F075         	goto	u4470
  3391  00EBC6                     u4471:
  3392  00EBC6  EF3A  F076         	goto	l4497
  3393  00EBCA                     u4470:
  3394  00EBCA                     l4483:
  3395                           
  3396                           ; BSR set to: 0
  3397                           ;doprnt.c: 1146: if(tmpval.integ < 4.294967296){
  3398  00EBCA  C08E  F001         	movff	printf@tmpval,___flge@ff1
  3399  00EBCE  C08F  F002         	movff	printf@tmpval+1,___flge@ff1+1
  3400  00EBD2  C090  F003         	movff	printf@tmpval+2,___flge@ff1+2
  3401  00EBD6  C091  F004         	movff	printf@tmpval+3,___flge@ff1+3
  3402  00EBDA  0E5F               	movlw	95
  3403  00EBDC  6E05               	movwf	___flge@ff2^0,c
  3404  00EBDE  0E70               	movlw	112
  3405  00EBE0  6E06               	movwf	(___flge@ff2+1)^0,c
  3406  00EBE2  0E89               	movlw	137
  3407  00EBE4  6E07               	movwf	(___flge@ff2+2)^0,c
  3408  00EBE6  0E40               	movlw	64
  3409  00EBE8  6E08               	movwf	(___flge@ff2+3)^0,c
  3410  00EBEA  EC38  F063         	call	___flge	;wreg free
  3411  00EBEE  B0D8               	btfsc	status,0,c
  3412  00EBF0  EFFC  F075         	goto	u4481
  3413  00EBF4  EFFE  F075         	goto	u4480
  3414  00EBF8                     u4481:
  3415  00EBF8  EF05  F076         	goto	l4487
  3416  00EBFC                     u4480:
  3417  00EBFC                     
  3418                           ;doprnt.c: 1147: eexp -= (sizeof dpowers/sizeof dpowers[0])-1;
  3419  00EBFC  0100               	movlb	0	; () banked
  3420  00EBFE  0EF7               	movlw	247
  3421  00EC00  278C               	addwf	printf@eexp& (0+255),f,b
  3422  00EC02  0EFF               	movlw	255
  3423  00EC04  238D               	addwfc	(printf@eexp+1)& (0+255),f,b
  3424                           
  3425                           ;doprnt.c: 1148: }else{
  3426  00EC06  EF0A  F076         	goto	l4489
  3427  00EC0A                     l4487:
  3428                           
  3429                           ;doprnt.c: 1149: eexp -= (sizeof dpowers/sizeof dpowers[0])-2;
  3430  00EC0A  0100               	movlb	0	; () banked
  3431  00EC0C  0EF8               	movlw	248
  3432  00EC0E  278C               	addwf	printf@eexp& (0+255),f,b
  3433  00EC10  0EFF               	movlw	255
  3434  00EC12  238D               	addwfc	(printf@eexp+1)& (0+255),f,b
  3435  00EC14                     l4489:
  3436                           
  3437                           ; BSR set to: 0
  3438                           ;doprnt.c: 1152: val = ((sizeof(double)== 3) ? _tdiv_to_l_(fval,tmpval.integ) : _div_to_
      +                          l_(fval,tmpval.integ));
  3439  00EC14  518C               	movf	printf@eexp& (0+255),w,b
  3440  00EC16  EC6F  F06C         	call	_scale
  3441  00EC1A  C028  F08E         	movff	?_scale,printf@tmpval
  3442  00EC1E  C029  F08F         	movff	?_scale+1,printf@tmpval+1
  3443  00EC22  C02A  F090         	movff	?_scale+2,printf@tmpval+2
  3444  00EC26  C02B  F091         	movff	?_scale+3,printf@tmpval+3
  3445  00EC2A  C092  F001         	movff	printf@fval,__div_to_l_@f1
  3446  00EC2E  C093  F002         	movff	printf@fval+1,__div_to_l_@f1+1
  3447  00EC32  C094  F003         	movff	printf@fval+2,__div_to_l_@f1+2
  3448  00EC36  C095  F004         	movff	printf@fval+3,__div_to_l_@f1+3
  3449  00EC3A  C08E  F005         	movff	printf@tmpval,__div_to_l_@f2
  3450  00EC3E  C08F  F006         	movff	printf@tmpval+1,__div_to_l_@f2+1
  3451  00EC42  C090  F007         	movff	printf@tmpval+2,__div_to_l_@f2+2
  3452  00EC46  C091  F008         	movff	printf@tmpval+3,__div_to_l_@f2+3
  3453  00EC4A  ECD5  F064         	call	__div_to_l_	;wreg free
  3454  00EC4E  C001  F088         	movff	?__div_to_l_,printf@val
  3455  00EC52  C002  F089         	movff	?__div_to_l_+1,printf@val+1
  3456  00EC56  C003  F08A         	movff	?__div_to_l_+2,printf@val+2
  3457  00EC5A  C004  F08B         	movff	?__div_to_l_+3,printf@val+3
  3458  00EC5E                     
  3459                           ;doprnt.c: 1155: fval = 0.0;
  3460  00EC5E  0E00               	movlw	0
  3461  00EC60  0100               	movlb	0	; () banked
  3462  00EC62  6F92               	movwf	printf@fval& (0+255),b
  3463  00EC64  0E00               	movlw	0
  3464  00EC66  6F93               	movwf	(printf@fval+1)& (0+255),b
  3465  00EC68  0E00               	movlw	0
  3466  00EC6A  6F94               	movwf	(printf@fval+2)& (0+255),b
  3467  00EC6C  0E00               	movlw	0
  3468  00EC6E  6F95               	movwf	(printf@fval+3)& (0+255),b
  3469                           
  3470                           ;doprnt.c: 1156: } else {
  3471  00EC70  EF76  F076         	goto	l4501
  3472  00EC74                     l4497:
  3473                           
  3474                           ;doprnt.c: 1157: val = (unsigned long)fval;
  3475  00EC74  C092  F031         	movff	printf@fval,___fltol@f1
  3476  00EC78  C093  F032         	movff	printf@fval+1,___fltol@f1+1
  3477  00EC7C  C094  F033         	movff	printf@fval+2,___fltol@f1+2
  3478  00EC80  C095  F034         	movff	printf@fval+3,___fltol@f1+3
  3479  00EC84  ECBA  F063         	call	___fltol	;wreg free
  3480  00EC88  C031  F088         	movff	?___fltol,printf@val
  3481  00EC8C  C032  F089         	movff	?___fltol+1,printf@val+1
  3482  00EC90  C033  F08A         	movff	?___fltol+2,printf@val+2
  3483  00EC94  C034  F08B         	movff	?___fltol+3,printf@val+3
  3484                           
  3485                           ;doprnt.c: 1158: fval -= (double)val;
  3486  00EC98  C092  F045         	movff	printf@fval,___flsub@b
  3487  00EC9C  C093  F046         	movff	printf@fval+1,___flsub@b+1
  3488  00ECA0  C094  F047         	movff	printf@fval+2,___flsub@b+2
  3489  00ECA4  C095  F048         	movff	printf@fval+3,___flsub@b+3
  3490  00ECA8  C088  F001         	movff	printf@val,___xxtofl@val
  3491  00ECAC  C089  F002         	movff	printf@val+1,___xxtofl@val+1
  3492  00ECB0  C08A  F003         	movff	printf@val+2,___xxtofl@val+2
  3493  00ECB4  C08B  F004         	movff	printf@val+3,___xxtofl@val+3
  3494  00ECB8  0E00               	movlw	0
  3495  00ECBA  EC26  F066         	call	___xxtofl
  3496  00ECBE  C001  F049         	movff	?___xxtofl,___flsub@a
  3497  00ECC2  C002  F04A         	movff	?___xxtofl+1,___flsub@a+1
  3498  00ECC6  C003  F04B         	movff	?___xxtofl+2,___flsub@a+2
  3499  00ECCA  C004  F04C         	movff	?___xxtofl+3,___flsub@a+3
  3500  00ECCE  EC5D  F05F         	call	___flsub	;wreg free
  3501  00ECD2  C045  F092         	movff	?___flsub,printf@fval
  3502  00ECD6  C046  F093         	movff	?___flsub+1,printf@fval+1
  3503  00ECDA  C047  F094         	movff	?___flsub+2,printf@fval+2
  3504  00ECDE  C048  F095         	movff	?___flsub+3,printf@fval+3
  3505  00ECE2                     
  3506                           ;doprnt.c: 1159: eexp = 0;
  3507  00ECE2  0E00               	movlw	0
  3508  00ECE4  0100               	movlb	0	; () banked
  3509  00ECE6  6F8D               	movwf	(printf@eexp+1)& (0+255),b
  3510  00ECE8  0E00               	movlw	0
  3511  00ECEA  6F8C               	movwf	printf@eexp& (0+255),b
  3512  00ECEC                     l4501:
  3513                           
  3514                           ; BSR set to: 0
  3515                           ;doprnt.c: 1160: };doprnt.c: 1162: for(c = 1 ; c != (sizeof dpowers/sizeof dpowers[0]) ;
      +                           c++)
  3516  00ECEC  0E01               	movlw	1
  3517  00ECEE  6F96               	movwf	printf@c& (0+255),b
  3518  00ECF0                     l4507:
  3519                           
  3520                           ; BSR set to: 0
  3521                           ;doprnt.c: 1163: if(val < dpowers[c])
  3522  00ECF0  5196               	movf	printf@c& (0+255),w,b
  3523  00ECF2  0D04               	mullw	4
  3524  00ECF4  0EF5               	movlw	low _dpowers
  3525  00ECF6  24F3               	addwf	243,w,c
  3526  00ECF8  6EF6               	movwf	tblptrl,c
  3527  00ECFA  0EFD               	movlw	high _dpowers
  3528  00ECFC  20F4               	addwfc	244,w,c
  3529  00ECFE  6EF7               	movwf	tblptrh,c
  3530  00ED00                     	if	1	;There are 3 active tblptr bytes
  3531  00ED00  6AF8               	clrf	tblptru,c
  3532  00ED02  0E00               	movlw	low (__mediumconst shr (0+16))
  3533  00ED04  22F8               	addwfc	tblptru,f,c
  3534  00ED06                     	endif
  3535  00ED06  0009               	tblrd		*+
  3536  00ED08  50F5               	movf	tablat,w,c
  3537  00ED0A  5D88               	subwf	printf@val& (0+255),w,b
  3538  00ED0C  0009               	tblrd		*+
  3539  00ED0E  50F5               	movf	tablat,w,c
  3540  00ED10  5989               	subwfb	(printf@val+1)& (0+255),w,b
  3541  00ED12  0009               	tblrd		*+
  3542  00ED14  50F5               	movf	tablat,w,c
  3543  00ED16  598A               	subwfb	(printf@val+2)& (0+255),w,b
  3544  00ED18  0009               	tblrd		*+
  3545  00ED1A  50F5               	movf	tablat,w,c
  3546  00ED1C  598B               	subwfb	(printf@val+3)& (0+255),w,b
  3547  00ED1E  B0D8               	btfsc	status,0,c
  3548  00ED20  EF94  F076         	goto	u4491
  3549  00ED24  EF96  F076         	goto	u4490
  3550  00ED28                     u4491:
  3551  00ED28  EF98  F076         	goto	l4511
  3552  00ED2C                     u4490:
  3553  00ED2C  EFA2  F076         	goto	l4515
  3554  00ED30                     l4511:
  3555                           
  3556                           ; BSR set to: 0
  3557  00ED30  2B96               	incf	printf@c& (0+255),f,b
  3558  00ED32                     
  3559                           ; BSR set to: 0
  3560  00ED32  0E0A               	movlw	10
  3561  00ED34  1996               	xorwf	printf@c& (0+255),w,b
  3562  00ED36  A4D8               	btfss	status,2,c
  3563  00ED38  EFA0  F076         	goto	u4501
  3564  00ED3C  EFA2  F076         	goto	u4500
  3565  00ED40                     u4501:
  3566  00ED40  EF78  F076         	goto	l4507
  3567  00ED44                     u4500:
  3568  00ED44                     l4515:
  3569                           
  3570                           ; BSR set to: 0
  3571                           ;doprnt.c: 1201: {;doprnt.c: 1214: if(flag & 0x03)
  3572  00ED44  0E03               	movlw	3
  3573  00ED46  1584               	andwf	printf@flag& (0+255),w,b
  3574  00ED48  6E4D               	movwf	??_printf^0,c
  3575  00ED4A  0E00               	movlw	0
  3576  00ED4C  1585               	andwf	(printf@flag+1)& (0+255),w,b
  3577  00ED4E  6E4E               	movwf	(??_printf+1)^0,c
  3578  00ED50  504D               	movf	??_printf^0,w,c
  3579  00ED52  104E               	iorwf	(??_printf+1)^0,w,c
  3580  00ED54  B4D8               	btfsc	status,2,c
  3581  00ED56  EFAF  F076         	goto	u4511
  3582  00ED5A  EFB1  F076         	goto	u4510
  3583  00ED5E                     u4511:
  3584  00ED5E  EF02  F077         	goto	l4525
  3585  00ED62                     u4510:
  3586  00ED62                     
  3587                           ; BSR set to: 0
  3588                           ;doprnt.c: 1216: (putch('-') );
  3589  00ED62  0E2D               	movlw	45
  3590  00ED64  EC4A  F05E         	call	_putch
  3591  00ED68  EF02  F077         	goto	l4525
  3592  00ED6C                     l4519:
  3593                           
  3594                           ; BSR set to: 0
  3595                           ;doprnt.c: 1226: {;doprnt.c: 1227: tmpval.vd = val/dpowers[c];
  3596  00ED6C  C088  F001         	movff	printf@val,___lldiv@dividend
  3597  00ED70  C089  F002         	movff	printf@val+1,___lldiv@dividend+1
  3598  00ED74  C08A  F003         	movff	printf@val+2,___lldiv@dividend+2
  3599  00ED78  C08B  F004         	movff	printf@val+3,___lldiv@dividend+3
  3600  00ED7C  5196               	movf	printf@c& (0+255),w,b
  3601  00ED7E  0D04               	mullw	4
  3602  00ED80  0EF5               	movlw	low _dpowers
  3603  00ED82  24F3               	addwf	243,w,c
  3604  00ED84  6EF6               	movwf	tblptrl,c
  3605  00ED86  0EFD               	movlw	high _dpowers
  3606  00ED88  20F4               	addwfc	244,w,c
  3607  00ED8A  6EF7               	movwf	tblptrh,c
  3608  00ED8C                     	if	1	;There are 3 active tblptr bytes
  3609  00ED8C  6AF8               	clrf	tblptru,c
  3610  00ED8E  0E00               	movlw	low (__mediumconst shr (0+16))
  3611  00ED90  22F8               	addwfc	tblptru,f,c
  3612  00ED92                     	endif
  3613  00ED92  0009               	tblrd		*+
  3614  00ED94  006F FFD4  F005    	movff	tablat,___lldiv@divisor
  3615  00ED9A  0009               	tblrd		*+
  3616  00ED9C  006F FFD4  F006    	movff	tablat,___lldiv@divisor+1
  3617  00EDA2  0009               	tblrd		*+
  3618  00EDA4  006F FFD4  F007    	movff	tablat,___lldiv@divisor+2
  3619  00EDAA  000A               	tblrd		*-
  3620  00EDAC  006F FFD4  F008    	movff	tablat,___lldiv@divisor+3
  3621  00EDB2  EC23  F061         	call	___lldiv	;wreg free
  3622  00EDB6  C001  F08E         	movff	?___lldiv,printf@tmpval
  3623  00EDBA  C002  F08F         	movff	?___lldiv+1,printf@tmpval+1
  3624  00EDBE  C003  F090         	movff	?___lldiv+2,printf@tmpval+2
  3625  00EDC2  C004  F091         	movff	?___lldiv+3,printf@tmpval+3
  3626  00EDC6                     
  3627                           ;doprnt.c: 1228: tmpval.vd %= 10;
  3628  00EDC6  C08E  F00E         	movff	printf@tmpval,___llmod@dividend
  3629  00EDCA  C08F  F00F         	movff	printf@tmpval+1,___llmod@dividend+1
  3630  00EDCE  C090  F010         	movff	printf@tmpval+2,___llmod@dividend+2
  3631  00EDD2  C091  F011         	movff	printf@tmpval+3,___llmod@dividend+3
  3632  00EDD6  0E0A               	movlw	10
  3633  00EDD8  6E12               	movwf	___llmod@divisor^0,c
  3634  00EDDA  0E00               	movlw	0
  3635  00EDDC  6E13               	movwf	(___llmod@divisor+1)^0,c
  3636  00EDDE  0E00               	movlw	0
  3637  00EDE0  6E14               	movwf	(___llmod@divisor+2)^0,c
  3638  00EDE2  0E00               	movlw	0
  3639  00EDE4  6E15               	movwf	(___llmod@divisor+3)^0,c
  3640  00EDE6  EC91  F060         	call	___llmod	;wreg free
  3641  00EDEA  C00E  F08E         	movff	?___llmod,printf@tmpval
  3642  00EDEE  C00F  F08F         	movff	?___llmod+1,printf@tmpval+1
  3643  00EDF2  C010  F090         	movff	?___llmod+2,printf@tmpval+2
  3644  00EDF6  C011  F091         	movff	?___llmod+3,printf@tmpval+3
  3645  00EDFA                     
  3646                           ;doprnt.c: 1229: (putch('0' + tmpval.vd) );
  3647  00EDFA  0100               	movlb	0	; () banked
  3648  00EDFC  518E               	movf	printf@tmpval& (0+255),w,b
  3649  00EDFE  0F30               	addlw	48
  3650  00EE00  EC4A  F05E         	call	_putch
  3651  00EE04                     l4525:
  3652  00EE04  0100               	movlb	0	; () banked
  3653  00EE06  0796               	decf	printf@c& (0+255),f,b
  3654  00EE08  2996               	incf	printf@c& (0+255),w,b
  3655  00EE0A  A4D8               	btfss	status,2,c
  3656  00EE0C  EF0A  F077         	goto	u4521
  3657  00EE10  EF0C  F077         	goto	u4520
  3658  00EE14                     u4521:
  3659  00EE14  EFB6  F076         	goto	l4519
  3660  00EE18                     u4520:
  3661  00EE18  EF15  F077         	goto	l4531
  3662  00EE1C                     l4527:
  3663                           
  3664                           ; BSR set to: 0
  3665                           ;doprnt.c: 1234: (putch('0') );
  3666  00EE1C  0E30               	movlw	48
  3667  00EE1E  EC4A  F05E         	call	_putch
  3668  00EE22                     
  3669                           ;doprnt.c: 1235: eexp--;
  3670  00EE22  0100               	movlb	0	; () banked
  3671  00EE24  078C               	decf	printf@eexp& (0+255),f,b
  3672  00EE26  A0D8               	btfss	status,0,c
  3673  00EE28  078D               	decf	(printf@eexp+1)& (0+255),f,b
  3674  00EE2A                     l4531:
  3675                           
  3676                           ; BSR set to: 0
  3677  00EE2A  BF8D               	btfsc	(printf@eexp+1)& (0+255),7,b
  3678  00EE2C  EF22  F077         	goto	u4530
  3679  00EE30  518D               	movf	(printf@eexp+1)& (0+255),w,b
  3680  00EE32  E106               	bnz	u4531
  3681  00EE34  058C               	decf	printf@eexp& (0+255),w,b
  3682  00EE36  B0D8               	btfsc	status,0,c
  3683  00EE38  EF20  F077         	goto	u4531
  3684  00EE3C  EF22  F077         	goto	u4530
  3685  00EE40                     u4531:
  3686  00EE40  EF0E  F077         	goto	l4527
  3687  00EE44                     u4530:
  3688  00EE44                     
  3689                           ; BSR set to: 0
  3690                           ;doprnt.c: 1236: };doprnt.c: 1237: if(prec > (int)((sizeof dpowers/sizeof dpowers[0])-2)
      +                          )
  3691  00EE44  BF87               	btfsc	(printf@prec+1)& (0+255),7,b
  3692  00EE46  EF2E  F077         	goto	u4541
  3693  00EE4A  5187               	movf	(printf@prec+1)& (0+255),w,b
  3694  00EE4C  E109               	bnz	u4540
  3695  00EE4E  0E09               	movlw	9
  3696  00EE50  5D86               	subwf	printf@prec& (0+255),w,b
  3697  00EE52  A0D8               	btfss	status,0,c
  3698  00EE54  EF2E  F077         	goto	u4541
  3699  00EE58  EF30  F077         	goto	u4540
  3700  00EE5C                     u4541:
  3701  00EE5C  EF34  F077         	goto	l628
  3702  00EE60                     u4540:
  3703  00EE60                     
  3704                           ; BSR set to: 0
  3705                           ;doprnt.c: 1238: c = (sizeof dpowers/sizeof dpowers[0])-2;
  3706  00EE60  0E08               	movlw	8
  3707  00EE62  6F96               	movwf	printf@c& (0+255),b
  3708  00EE64  EF36  F077         	goto	l4537
  3709  00EE68                     l628:
  3710                           
  3711                           ; BSR set to: 0
  3712                           ;doprnt.c: 1239: else;doprnt.c: 1240: c = (char)prec;
  3713  00EE68  C086  F096         	movff	printf@prec,printf@c
  3714  00EE6C                     l4537:
  3715                           
  3716                           ; BSR set to: 0
  3717                           ;doprnt.c: 1241: prec -= (int)c;
  3718  00EE6C  5196               	movf	printf@c& (0+255),w,b
  3719  00EE6E  5F86               	subwf	printf@prec& (0+255),f,b
  3720  00EE70  0E00               	movlw	0
  3721  00EE72  5B87               	subwfb	(printf@prec+1)& (0+255),f,b
  3722  00EE74                     
  3723                           ; BSR set to: 0
  3724                           ;doprnt.c: 1245: if(c)
  3725  00EE74  5196               	movf	printf@c& (0+255),w,b
  3726  00EE76  B4D8               	btfsc	status,2,c
  3727  00EE78  EF40  F077         	goto	u4551
  3728  00EE7C  EF42  F077         	goto	u4550
  3729  00EE80                     u4551:
  3730  00EE80  EF45  F077         	goto	l4543
  3731  00EE84                     u4550:
  3732  00EE84                     
  3733                           ; BSR set to: 0
  3734                           ;doprnt.c: 1247: (putch('.') );
  3735  00EE84  0E2E               	movlw	46
  3736  00EE86  EC4A  F05E         	call	_putch
  3737  00EE8A                     l4543:
  3738                           
  3739                           ;doprnt.c: 1253: val = (unsigned long)(fval * scale((signed char)c));
  3740  00EE8A  0100               	movlb	0	; () banked
  3741  00EE8C  5196               	movf	printf@c& (0+255),w,b
  3742  00EE8E  EC6F  F06C         	call	_scale
  3743  00EE92  C028  F07E         	movff	?_scale,_printf$1940
  3744  00EE96  C029  F07F         	movff	?_scale+1,_printf$1940+1
  3745  00EE9A  C02A  F080         	movff	?_scale+2,_printf$1940+2
  3746  00EE9E  C02B  F081         	movff	?_scale+3,_printf$1940+3
  3747  00EEA2                     
  3748                           ;doprnt.c: 1253: val = (unsigned long)(fval * scale((signed char)c));
  3749  00EEA2  C092  F013         	movff	printf@fval,___flmul@a
  3750  00EEA6  C093  F014         	movff	printf@fval+1,___flmul@a+1
  3751  00EEAA  C094  F015         	movff	printf@fval+2,___flmul@a+2
  3752  00EEAE  C095  F016         	movff	printf@fval+3,___flmul@a+3
  3753  00EEB2  C07E  F00F         	movff	_printf$1940,___flmul@b
  3754  00EEB6  C07F  F010         	movff	_printf$1940+1,___flmul@b+1
  3755  00EEBA  C080  F011         	movff	_printf$1940+2,___flmul@b+2
  3756  00EEBE  C081  F012         	movff	_printf$1940+3,___flmul@b+3
  3757  00EEC2  EC48  F06A         	call	___flmul	;wreg free
  3758  00EEC6  C00F  F031         	movff	?___flmul,___fltol@f1
  3759  00EECA  C010  F032         	movff	?___flmul+1,___fltol@f1+1
  3760  00EECE  C011  F033         	movff	?___flmul+2,___fltol@f1+2
  3761  00EED2  C012  F034         	movff	?___flmul+3,___fltol@f1+3
  3762  00EED6  ECBA  F063         	call	___fltol	;wreg free
  3763  00EEDA  C031  F088         	movff	?___fltol,printf@val
  3764  00EEDE  C032  F089         	movff	?___fltol+1,printf@val+1
  3765  00EEE2  C033  F08A         	movff	?___fltol+2,printf@val+2
  3766  00EEE6  C034  F08B         	movff	?___fltol+3,printf@val+3
  3767                           
  3768                           ;doprnt.c: 1254: while(c--) {
  3769  00EEEA  EFF1  F077         	goto	l4553
  3770  00EEEE                     l4547:
  3771                           
  3772                           ; BSR set to: 0
  3773                           ;doprnt.c: 1255: tmpval.vd = val/dpowers[c];
  3774  00EEEE  C088  F001         	movff	printf@val,___lldiv@dividend
  3775  00EEF2  C089  F002         	movff	printf@val+1,___lldiv@dividend+1
  3776  00EEF6  C08A  F003         	movff	printf@val+2,___lldiv@dividend+2
  3777  00EEFA  C08B  F004         	movff	printf@val+3,___lldiv@dividend+3
  3778  00EEFE  5196               	movf	printf@c& (0+255),w,b
  3779  00EF00  0D04               	mullw	4
  3780  00EF02  0EF5               	movlw	low _dpowers
  3781  00EF04  24F3               	addwf	243,w,c
  3782  00EF06  6EF6               	movwf	tblptrl,c
  3783  00EF08  0EFD               	movlw	high _dpowers
  3784  00EF0A  20F4               	addwfc	244,w,c
  3785  00EF0C  6EF7               	movwf	tblptrh,c
  3786  00EF0E                     	if	1	;There are 3 active tblptr bytes
  3787  00EF0E  6AF8               	clrf	tblptru,c
  3788  00EF10  0E00               	movlw	low (__mediumconst shr (0+16))
  3789  00EF12  22F8               	addwfc	tblptru,f,c
  3790  00EF14                     	endif
  3791  00EF14  0009               	tblrd		*+
  3792  00EF16  006F FFD4  F005    	movff	tablat,___lldiv@divisor
  3793  00EF1C  0009               	tblrd		*+
  3794  00EF1E  006F FFD4  F006    	movff	tablat,___lldiv@divisor+1
  3795  00EF24  0009               	tblrd		*+
  3796  00EF26  006F FFD4  F007    	movff	tablat,___lldiv@divisor+2
  3797  00EF2C  000A               	tblrd		*-
  3798  00EF2E  006F FFD4  F008    	movff	tablat,___lldiv@divisor+3
  3799  00EF34  EC23  F061         	call	___lldiv	;wreg free
  3800  00EF38  C001  F08E         	movff	?___lldiv,printf@tmpval
  3801  00EF3C  C002  F08F         	movff	?___lldiv+1,printf@tmpval+1
  3802  00EF40  C003  F090         	movff	?___lldiv+2,printf@tmpval+2
  3803  00EF44  C004  F091         	movff	?___lldiv+3,printf@tmpval+3
  3804  00EF48                     
  3805                           ;doprnt.c: 1256: tmpval.vd %= 10;
  3806  00EF48  C08E  F00E         	movff	printf@tmpval,___llmod@dividend
  3807  00EF4C  C08F  F00F         	movff	printf@tmpval+1,___llmod@dividend+1
  3808  00EF50  C090  F010         	movff	printf@tmpval+2,___llmod@dividend+2
  3809  00EF54  C091  F011         	movff	printf@tmpval+3,___llmod@dividend+3
  3810  00EF58  0E0A               	movlw	10
  3811  00EF5A  6E12               	movwf	___llmod@divisor^0,c
  3812  00EF5C  0E00               	movlw	0
  3813  00EF5E  6E13               	movwf	(___llmod@divisor+1)^0,c
  3814  00EF60  0E00               	movlw	0
  3815  00EF62  6E14               	movwf	(___llmod@divisor+2)^0,c
  3816  00EF64  0E00               	movlw	0
  3817  00EF66  6E15               	movwf	(___llmod@divisor+3)^0,c
  3818  00EF68  EC91  F060         	call	___llmod	;wreg free
  3819  00EF6C  C00E  F08E         	movff	?___llmod,printf@tmpval
  3820  00EF70  C00F  F08F         	movff	?___llmod+1,printf@tmpval+1
  3821  00EF74  C010  F090         	movff	?___llmod+2,printf@tmpval+2
  3822  00EF78  C011  F091         	movff	?___llmod+3,printf@tmpval+3
  3823  00EF7C                     
  3824                           ;doprnt.c: 1257: (putch('0' + tmpval.vd) );
  3825  00EF7C  0100               	movlb	0	; () banked
  3826  00EF7E  518E               	movf	printf@tmpval& (0+255),w,b
  3827  00EF80  0F30               	addlw	48
  3828  00EF82  EC4A  F05E         	call	_putch
  3829                           
  3830                           ;doprnt.c: 1258: val %= dpowers[c];
  3831  00EF86  C088  F00E         	movff	printf@val,___llmod@dividend
  3832  00EF8A  C089  F00F         	movff	printf@val+1,___llmod@dividend+1
  3833  00EF8E  C08A  F010         	movff	printf@val+2,___llmod@dividend+2
  3834  00EF92  C08B  F011         	movff	printf@val+3,___llmod@dividend+3
  3835  00EF96  0100               	movlb	0	; () banked
  3836  00EF98  5196               	movf	printf@c& (0+255),w,b
  3837  00EF9A  0D04               	mullw	4
  3838  00EF9C  0EF5               	movlw	low _dpowers
  3839  00EF9E  24F3               	addwf	243,w,c
  3840  00EFA0  6EF6               	movwf	tblptrl,c
  3841  00EFA2  0EFD               	movlw	high _dpowers
  3842  00EFA4  20F4               	addwfc	244,w,c
  3843  00EFA6  6EF7               	movwf	tblptrh,c
  3844  00EFA8                     	if	1	;There are 3 active tblptr bytes
  3845  00EFA8  6AF8               	clrf	tblptru,c
  3846  00EFAA  0E00               	movlw	low (__mediumconst shr (0+16))
  3847  00EFAC  22F8               	addwfc	tblptru,f,c
  3848  00EFAE                     	endif
  3849  00EFAE  0009               	tblrd		*+
  3850  00EFB0  006F FFD4  F012    	movff	tablat,___llmod@divisor
  3851  00EFB6  0009               	tblrd		*+
  3852  00EFB8  006F FFD4  F013    	movff	tablat,___llmod@divisor+1
  3853  00EFBE  0009               	tblrd		*+
  3854  00EFC0  006F FFD4  F014    	movff	tablat,___llmod@divisor+2
  3855  00EFC6  000A               	tblrd		*-
  3856  00EFC8  006F FFD4  F015    	movff	tablat,___llmod@divisor+3
  3857  00EFCE  EC91  F060         	call	___llmod	;wreg free
  3858  00EFD2  C00E  F088         	movff	?___llmod,printf@val
  3859  00EFD6  C00F  F089         	movff	?___llmod+1,printf@val+1
  3860  00EFDA  C010  F08A         	movff	?___llmod+2,printf@val+2
  3861  00EFDE  C011  F08B         	movff	?___llmod+3,printf@val+3
  3862  00EFE2                     l4553:
  3863  00EFE2  0100               	movlb	0	; () banked
  3864  00EFE4  0796               	decf	printf@c& (0+255),f,b
  3865  00EFE6  2996               	incf	printf@c& (0+255),w,b
  3866  00EFE8  A4D8               	btfss	status,2,c
  3867  00EFEA  EFF9  F077         	goto	u4561
  3868  00EFEE  EFFB  F077         	goto	u4560
  3869  00EFF2                     u4561:
  3870  00EFF2  EF77  F077         	goto	l4547
  3871  00EFF6                     u4560:
  3872  00EFF6  EF04  F078         	goto	l4559
  3873  00EFFA                     l4555:
  3874                           
  3875                           ; BSR set to: 0
  3876                           ;doprnt.c: 1262: (putch('0') );
  3877  00EFFA  0E30               	movlw	48
  3878  00EFFC  EC4A  F05E         	call	_putch
  3879  00F000                     
  3880                           ;doprnt.c: 1263: prec--;
  3881  00F000  0100               	movlb	0	; () banked
  3882  00F002  0786               	decf	printf@prec& (0+255),f,b
  3883  00F004  A0D8               	btfss	status,0,c
  3884  00F006  0787               	decf	(printf@prec+1)& (0+255),f,b
  3885  00F008                     l4559:
  3886                           
  3887                           ; BSR set to: 0
  3888  00F008  5186               	movf	printf@prec& (0+255),w,b
  3889  00F00A  1187               	iorwf	(printf@prec+1)& (0+255),w,b
  3890  00F00C  A4D8               	btfss	status,2,c
  3891  00F00E  EF0B  F078         	goto	u4571
  3892  00F012  EF0D  F078         	goto	u4570
  3893  00F016                     u4571:
  3894  00F016  EFFD  F077         	goto	l4555
  3895  00F01A                     u4570:
  3896  00F01A  EFDC  F078         	goto	l4595
  3897  00F01E                     l600:
  3898                           
  3899                           ; BSR set to: 0
  3900                           ;doprnt.c: 1272: };doprnt.c: 1299: {;doprnt.c: 1307: if(flag & 0x10)
  3901  00F01E  A984               	btfss	printf@flag& (0+255),4,b
  3902  00F020  EF14  F078         	goto	u4581
  3903  00F024  EF16  F078         	goto	u4580
  3904  00F028                     u4581:
  3905  00F028  EF2E  F078         	goto	l4565
  3906  00F02C                     u4580:
  3907  00F02C                     
  3908                           ; BSR set to: 0
  3909                           ;doprnt.c: 1308: val = (*(unsigned long *)__va_arg((*(unsigned long **)ap), (unsigned lo
      +                          ng)0));
  3910  00F02C  0060  F20B  FFD9   	movff	printf@ap,fsr2l
  3911  00F032  0060  F20F  FFDA   	movff	printf@ap+1,fsr2h
  3912  00F038  006F FF78  F088    	movff	postinc2,printf@val
  3913  00F03E  006F FF78  F089    	movff	postinc2,printf@val+1
  3914  00F044  006F FF78  F08A    	movff	postinc2,printf@val+2
  3915  00F04A  006F FF78  F08B    	movff	postinc2,printf@val+3
  3916  00F050                     
  3917                           ; BSR set to: 0
  3918  00F050  0E04               	movlw	4
  3919  00F052  2782               	addwf	printf@ap& (0+255),f,b
  3920  00F054  0E00               	movlw	0
  3921  00F056  2383               	addwfc	(printf@ap+1)& (0+255),f,b
  3922  00F058  EF44  F078         	goto	l4569
  3923  00F05C                     l4565:
  3924                           
  3925                           ; BSR set to: 0
  3926                           ;doprnt.c: 1309: else;doprnt.c: 1312: val = (*(unsigned *)__va_arg((*(unsigned **)ap), (
      +                          unsigned)0));
  3927  00F05C  0060  F20B  FFD9   	movff	printf@ap,fsr2l
  3928  00F062  0060  F20F  FFDA   	movff	printf@ap+1,fsr2h
  3929  00F068  006F FF78  F04D    	movff	postinc2,??_printf
  3930  00F06E  006F FF74  F04E    	movff	postdec2,??_printf+1
  3931  00F074  C04D  F088         	movff	??_printf,printf@val
  3932  00F078  C04E  F089         	movff	??_printf+1,printf@val+1
  3933  00F07C  6B8A               	clrf	(printf@val+2)& (0+255),b
  3934  00F07E  6B8B               	clrf	(printf@val+3)& (0+255),b
  3935  00F080                     
  3936                           ; BSR set to: 0
  3937  00F080  0E02               	movlw	2
  3938  00F082  2782               	addwf	printf@ap& (0+255),f,b
  3939  00F084  0E00               	movlw	0
  3940  00F086  2383               	addwfc	(printf@ap+1)& (0+255),f,b
  3941  00F088                     l4569:
  3942                           
  3943                           ; BSR set to: 0
  3944                           ;doprnt.c: 1313: };doprnt.c: 1331: for(c = 1 ; c != sizeof dpowers/sizeof dpowers[0] ; c
      +                          ++)
  3945  00F088  0E01               	movlw	1
  3946  00F08A  6F96               	movwf	printf@c& (0+255),b
  3947  00F08C                     l4575:
  3948                           
  3949                           ; BSR set to: 0
  3950                           ;doprnt.c: 1332: if(val < dpowers[c])
  3951  00F08C  5196               	movf	printf@c& (0+255),w,b
  3952  00F08E  0D04               	mullw	4
  3953  00F090  0EF5               	movlw	low _dpowers
  3954  00F092  24F3               	addwf	243,w,c
  3955  00F094  6EF6               	movwf	tblptrl,c
  3956  00F096  0EFD               	movlw	high _dpowers
  3957  00F098  20F4               	addwfc	244,w,c
  3958  00F09A  6EF7               	movwf	tblptrh,c
  3959  00F09C                     	if	1	;There are 3 active tblptr bytes
  3960  00F09C  6AF8               	clrf	tblptru,c
  3961  00F09E  0E00               	movlw	low (__mediumconst shr (0+16))
  3962  00F0A0  22F8               	addwfc	tblptru,f,c
  3963  00F0A2                     	endif
  3964  00F0A2  0009               	tblrd		*+
  3965  00F0A4  50F5               	movf	tablat,w,c
  3966  00F0A6  5D88               	subwf	printf@val& (0+255),w,b
  3967  00F0A8  0009               	tblrd		*+
  3968  00F0AA  50F5               	movf	tablat,w,c
  3969  00F0AC  5989               	subwfb	(printf@val+1)& (0+255),w,b
  3970  00F0AE  0009               	tblrd		*+
  3971  00F0B0  50F5               	movf	tablat,w,c
  3972  00F0B2  598A               	subwfb	(printf@val+2)& (0+255),w,b
  3973  00F0B4  0009               	tblrd		*+
  3974  00F0B6  50F5               	movf	tablat,w,c
  3975  00F0B8  598B               	subwfb	(printf@val+3)& (0+255),w,b
  3976  00F0BA  B0D8               	btfsc	status,0,c
  3977  00F0BC  EF62  F078         	goto	u4591
  3978  00F0C0  EF64  F078         	goto	u4590
  3979  00F0C4                     u4591:
  3980  00F0C4  EF66  F078         	goto	l4579
  3981  00F0C8                     u4590:
  3982  00F0C8  EF70  F078         	goto	l4583
  3983  00F0CC                     l4579:
  3984                           
  3985                           ; BSR set to: 0
  3986  00F0CC  2B96               	incf	printf@c& (0+255),f,b
  3987  00F0CE                     
  3988                           ; BSR set to: 0
  3989  00F0CE  0E0A               	movlw	10
  3990  00F0D0  1996               	xorwf	printf@c& (0+255),w,b
  3991  00F0D2  A4D8               	btfss	status,2,c
  3992  00F0D4  EF6E  F078         	goto	u4601
  3993  00F0D8  EF70  F078         	goto	u4600
  3994  00F0DC                     u4601:
  3995  00F0DC  EF46  F078         	goto	l4575
  3996  00F0E0                     u4600:
  3997  00F0E0                     l4583:
  3998                           
  3999                           ; BSR set to: 0
  4000                           ;doprnt.c: 1448: {;doprnt.c: 1464: if(flag & 0x03)
  4001  00F0E0  0E03               	movlw	3
  4002  00F0E2  1584               	andwf	printf@flag& (0+255),w,b
  4003  00F0E4  6E4D               	movwf	??_printf^0,c
  4004  00F0E6  0E00               	movlw	0
  4005  00F0E8  1585               	andwf	(printf@flag+1)& (0+255),w,b
  4006  00F0EA  6E4E               	movwf	(??_printf+1)^0,c
  4007  00F0EC  504D               	movf	??_printf^0,w,c
  4008  00F0EE  104E               	iorwf	(??_printf+1)^0,w,c
  4009  00F0F0  B4D8               	btfsc	status,2,c
  4010  00F0F2  EF7D  F078         	goto	u4611
  4011  00F0F6  EF7F  F078         	goto	u4610
  4012  00F0FA                     u4611:
  4013  00F0FA  EF82  F078         	goto	l4587
  4014  00F0FE                     u4610:
  4015  00F0FE                     
  4016                           ; BSR set to: 0
  4017                           ;doprnt.c: 1465: (putch('-') );
  4018  00F0FE  0E2D               	movlw	45
  4019  00F100  EC4A  F05E         	call	_putch
  4020  00F104                     l4587:
  4021                           
  4022                           ;doprnt.c: 1495: };doprnt.c: 1498: prec = c;
  4023  00F104  C096  F086         	movff	printf@c,printf@prec
  4024  00F108  0100               	movlb	0	; () banked
  4025  00F10A  6B87               	clrf	(printf@prec+1)& (0+255),b
  4026                           
  4027                           ;doprnt.c: 1500: while(prec--) {
  4028  00F10C  EFCE  F078         	goto	l4593
  4029  00F110                     l4589:
  4030                           
  4031                           ; BSR set to: 0
  4032                           ;doprnt.c: 1504: {;doprnt.c: 1515: c = (val / dpowers[(unsigned int)prec]) % 10 + '0';
  4033  00F110  C086  F04D         	movff	printf@prec,??_printf
  4034  00F114  C087  F04E         	movff	printf@prec+1,??_printf+1
  4035  00F118  90D8               	bcf	status,0,c
  4036  00F11A  364D               	rlcf	??_printf^0,f,c
  4037  00F11C  364E               	rlcf	(??_printf+1)^0,f,c
  4038  00F11E  90D8               	bcf	status,0,c
  4039  00F120  364D               	rlcf	??_printf^0,f,c
  4040  00F122  364E               	rlcf	(??_printf+1)^0,f,c
  4041  00F124  0EF5               	movlw	low _dpowers
  4042  00F126  244D               	addwf	??_printf^0,w,c
  4043  00F128  6EF6               	movwf	tblptrl,c
  4044  00F12A  0EFD               	movlw	high _dpowers
  4045  00F12C  204E               	addwfc	(??_printf+1)^0,w,c
  4046  00F12E  6EF7               	movwf	tblptrh,c
  4047  00F130                     	if	1	;There are 3 active tblptr bytes
  4048  00F130  6AF8               	clrf	tblptru,c
  4049  00F132  0E00               	movlw	low (__mediumconst shr (0+16))
  4050  00F134  22F8               	addwfc	tblptru,f,c
  4051  00F136                     	endif
  4052  00F136  0009               	tblrd		*+
  4053  00F138  006F FFD4  F005    	movff	tablat,___lldiv@divisor
  4054  00F13E  0009               	tblrd		*+
  4055  00F140  006F FFD4  F006    	movff	tablat,___lldiv@divisor+1
  4056  00F146  0009               	tblrd		*+
  4057  00F148  006F FFD4  F007    	movff	tablat,___lldiv@divisor+2
  4058  00F14E  000A               	tblrd		*-
  4059  00F150  006F FFD4  F008    	movff	tablat,___lldiv@divisor+3
  4060  00F156  C088  F001         	movff	printf@val,___lldiv@dividend
  4061  00F15A  C089  F002         	movff	printf@val+1,___lldiv@dividend+1
  4062  00F15E  C08A  F003         	movff	printf@val+2,___lldiv@dividend+2
  4063  00F162  C08B  F004         	movff	printf@val+3,___lldiv@dividend+3
  4064  00F166  EC23  F061         	call	___lldiv	;wreg free
  4065  00F16A  C001  F00E         	movff	?___lldiv,___llmod@dividend
  4066  00F16E  C002  F00F         	movff	?___lldiv+1,___llmod@dividend+1
  4067  00F172  C003  F010         	movff	?___lldiv+2,___llmod@dividend+2
  4068  00F176  C004  F011         	movff	?___lldiv+3,___llmod@dividend+3
  4069  00F17A  0E0A               	movlw	10
  4070  00F17C  6E12               	movwf	___llmod@divisor^0,c
  4071  00F17E  0E00               	movlw	0
  4072  00F180  6E13               	movwf	(___llmod@divisor+1)^0,c
  4073  00F182  0E00               	movlw	0
  4074  00F184  6E14               	movwf	(___llmod@divisor+2)^0,c
  4075  00F186  0E00               	movlw	0
  4076  00F188  6E15               	movwf	(___llmod@divisor+3)^0,c
  4077  00F18A  EC91  F060         	call	___llmod	;wreg free
  4078  00F18E  500E               	movf	?___llmod^0,w,c
  4079  00F190  0F30               	addlw	48
  4080  00F192  0100               	movlb	0	; () banked
  4081  00F194  6F96               	movwf	printf@c& (0+255),b
  4082  00F196                     
  4083                           ; BSR set to: 0
  4084                           ;doprnt.c: 1549: };doprnt.c: 1550: (putch(c) );
  4085  00F196  5196               	movf	printf@c& (0+255),w,b
  4086  00F198  EC4A  F05E         	call	_putch
  4087  00F19C                     l4593:
  4088  00F19C  0100               	movlb	0	; () banked
  4089  00F19E  0786               	decf	printf@prec& (0+255),f,b
  4090  00F1A0  A0D8               	btfss	status,0,c
  4091  00F1A2  0787               	decf	(printf@prec+1)& (0+255),f,b
  4092  00F1A4  2986               	incf	printf@prec& (0+255),w,b
  4093  00F1A6  E106               	bnz	u4621
  4094  00F1A8  2987               	incf	(printf@prec+1)& (0+255),w,b
  4095  00F1AA  A4D8               	btfss	status,2,c
  4096  00F1AC  EFDA  F078         	goto	u4621
  4097  00F1B0  EFDC  F078         	goto	u4620
  4098  00F1B4                     u4621:
  4099  00F1B4  EF88  F078         	goto	l4589
  4100  00F1B8                     u4620:
  4101  00F1B8                     l4595:
  4102  00F1B8  0060  F183  FFF6   	movff	printf@f,tblptrl
  4103  00F1BE  0060  F187  FFF7   	movff	printf@f+1,tblptrh
  4104  00F1C4  0100               	movlb	0	; () banked
  4105  00F1C6  4B60               	infsnz	printf@f& (0+255),f,b
  4106  00F1C8  2B61               	incf	(printf@f+1)& (0+255),f,b
  4107  00F1CA                     	if	1	;Program memory is < 0x10000, tblptru is always zero
  4108  00F1CA  6AF8               	clrf	tblptru,c
  4109  00F1CC                     	endif
  4110  00F1CC                     	if	0	;tblptru may be non-zero
  4111  00F1CC                     	endif
  4112  00F1CC  0008               	tblrd		*
  4113  00F1CE  006F FFD4  F096    	movff	tablat,printf@c
  4114  00F1D4  5196               	movf	printf@c& (0+255),w,b
  4115  00F1D6  A4D8               	btfss	status,2,c
  4116  00F1D8  EFF0  F078         	goto	u4631
  4117  00F1DC  EFF2  F078         	goto	u4630
  4118  00F1E0                     u4631:
  4119  00F1E0  EF3A  F074         	goto	l4407
  4120  00F1E4                     u4630:
  4121  00F1E4                     l647:
  4122                           
  4123                           ; BSR set to: 0
  4124  00F1E4  0012               	return		;funcret
  4125  00F1E6                     __end_of_printf:
  4126                           	callstack 0
  4127                           
  4128 ;; *************** function _scale *****************
  4129 ;; Defined at:
  4130 ;;		line 433 in file "C:\Program Files\Microchip\xc8\v2.30\pic\sources\c90\common\doprnt.c"
  4131 ;; Parameters:    Size  Location     Type
  4132 ;;  scl             1    wreg     char 
  4133 ;; Auto vars:     Size  Location     Type
  4134 ;;  scl             1   47[COMRAM] char 
  4135 ;; Return value:  Size  Location     Type
  4136 ;;                  4   39[COMRAM] char 
  4137 ;; Registers used:
  4138 ;;		wreg, status,2, status,0, tblptrl, tblptrh, tblptru, prodl, prodh, cstack
  4139 ;; Tracked objects:
  4140 ;;		On entry : 0/0
  4141 ;;		On exit  : 0/0
  4142 ;;		Unchanged: 0/0
  4143 ;; Data sizes:     COMRAM   BANK0   BANK1   BANK2   BANK3   BANK4   BANK5   BANK6   BANK7   BANK8   BANK9  BANK10  BANK1
      +1  BANK12  BANK13  BANK14  BANK15
  4144 ;;      Params:         4       0       0       0       0       0       0       0       0       0       0       0       
      +0       0       0       0       0
  4145 ;;      Locals:         5       0       0       0       0       0       0       0       0       0       0       0       
      +0       0       0       0       0
  4146 ;;      Temps:          0       0       0       0       0       0       0       0       0       0       0       0       
      +0       0       0       0       0
  4147 ;;      Totals:         9       0       0       0       0       0       0       0       0       0       0       0       
      +0       0       0       0       0
  4148 ;;Total ram usage:        9 bytes
  4149 ;; Hardware stack levels used:    1
  4150 ;; Hardware stack levels required when called:    1
  4151 ;; This function calls:
  4152 ;;		___awdiv
  4153 ;;		___awmod
  4154 ;;		___flmul
  4155 ;; This function is called by:
  4156 ;;		_printf
  4157 ;; This function uses a non-reentrant model
  4158 ;;
  4159                           
  4160                           	psect	text3
  4161  00D8DE                     __ptext3:
  4162                           	callstack 0
  4163  00D8DE                     _scale:
  4164                           	callstack 28
  4165                           
  4166                           ; BSR set to: 0
  4167                           ;incstack = 0
  4168                           ;scale@scl stored from wreg
  4169  00D8DE  6E30               	movwf	scale@scl^0,c
  4170  00D8E0                     
  4171                           ;doprnt.c: 436: if(scl < 0) {
  4172  00D8E0  BE30               	btfsc	scale@scl^0,7,c
  4173  00D8E2  EF77  F06C         	goto	u3450
  4174  00D8E6  EF75  F06C         	goto	u3451
  4175  00D8EA                     u3451:
  4176  00D8EA  EFA1  F06D         	goto	l3837
  4177  00D8EE                     u3450:
  4178  00D8EE                     
  4179                           ;doprnt.c: 437: scl = -scl;
  4180  00D8EE  6C30               	negf	scale@scl^0,c
  4181                           
  4182                           ;doprnt.c: 438: if(scl>=110)
  4183  00D8F0  5030               	movf	scale@scl^0,w,c
  4184  00D8F2  0A80               	xorlw	128
  4185  00D8F4  0F12               	addlw	-238
  4186  00D8F6  A0D8               	btfss	status,0,c
  4187  00D8F8  EF80  F06C         	goto	u3461
  4188  00D8FC  EF82  F06C         	goto	u3460
  4189  00D900                     u3461:
  4190  00D900  EF20  F06D         	goto	l3827
  4191  00D904                     u3460:
  4192  00D904                     
  4193                           ;doprnt.c: 439: return _npowers_[(unsigned char)(scl/100+18)] * _npowers_[(unsigned char
      +                          )((scl%100)/10+9)] * _npowers_[(unsigned char)(scl%10)];
  4194  00D904  0E00               	movlw	0
  4195  00D906  6E0A               	movwf	(___awdiv@divisor+1)^0,c
  4196  00D908  0E0A               	movlw	10
  4197  00D90A  6E09               	movwf	___awdiv@divisor^0,c
  4198  00D90C  0E00               	movlw	0
  4199  00D90E  6E04               	movwf	(___awmod@divisor+1)^0,c
  4200  00D910  0E64               	movlw	100
  4201  00D912  6E03               	movwf	___awmod@divisor^0,c
  4202  00D914  5030               	movf	scale@scl^0,w,c
  4203  00D916  6E01               	movwf	___awmod@dividend^0,c
  4204  00D918  6A02               	clrf	(___awmod@dividend+1)^0,c
  4205  00D91A  BE01               	btfsc	___awmod@dividend^0,7,c
  4206  00D91C  0602               	decf	(___awmod@dividend+1)^0,f,c
  4207  00D91E  EC1E  F062         	call	___awmod	;wreg free
  4208  00D922  C001  F007         	movff	?___awmod,___awdiv@dividend
  4209  00D926  C002  F008         	movff	?___awmod+1,___awdiv@dividend+1
  4210  00D92A  ECD6  F062         	call	___awdiv	;wreg free
  4211  00D92E  0E09               	movlw	9
  4212  00D930  2607               	addwf	?___awdiv^0,f,c
  4213  00D932  5007               	movf	?___awdiv^0,w,c
  4214  00D934  0D04               	mullw	4
  4215  00D936  0EC1               	movlw	low __npowers_
  4216  00D938  24F3               	addwf	243,w,c
  4217  00D93A  6EF6               	movwf	tblptrl,c
  4218  00D93C  0EFD               	movlw	high __npowers_
  4219  00D93E  20F4               	addwfc	244,w,c
  4220  00D940  6EF7               	movwf	tblptrh,c
  4221  00D942                     	if	1	;There are 3 active tblptr bytes
  4222  00D942  6AF8               	clrf	tblptru,c
  4223  00D944  0E00               	movlw	low (__mediumconst shr (0+16))
  4224  00D946  22F8               	addwfc	tblptru,f,c
  4225  00D948                     	endif
  4226  00D948  0009               	tblrd		*+
  4227  00D94A  006F FFD4  F013    	movff	tablat,___flmul@a
  4228  00D950  0009               	tblrd		*+
  4229  00D952  006F FFD4  F014    	movff	tablat,___flmul@a+1
  4230  00D958  0009               	tblrd		*+
  4231  00D95A  006F FFD4  F015    	movff	tablat,___flmul@a+2
  4232  00D960  000A               	tblrd		*-
  4233  00D962  006F FFD4  F016    	movff	tablat,___flmul@a+3
  4234  00D968  0E00               	movlw	0
  4235  00D96A  6E0A               	movwf	(___awdiv@divisor+1)^0,c
  4236  00D96C  0E64               	movlw	100
  4237  00D96E  6E09               	movwf	___awdiv@divisor^0,c
  4238  00D970  5030               	movf	scale@scl^0,w,c
  4239  00D972  6E07               	movwf	___awdiv@dividend^0,c
  4240  00D974  6A08               	clrf	(___awdiv@dividend+1)^0,c
  4241  00D976  BE07               	btfsc	___awdiv@dividend^0,7,c
  4242  00D978  0608               	decf	(___awdiv@dividend+1)^0,f,c
  4243  00D97A  ECD6  F062         	call	___awdiv	;wreg free
  4244  00D97E  0E12               	movlw	18
  4245  00D980  2607               	addwf	?___awdiv^0,f,c
  4246  00D982  5007               	movf	?___awdiv^0,w,c
  4247  00D984  0D04               	mullw	4
  4248  00D986  0EC1               	movlw	low __npowers_
  4249  00D988  24F3               	addwf	243,w,c
  4250  00D98A  6EF6               	movwf	tblptrl,c
  4251  00D98C  0EFD               	movlw	high __npowers_
  4252  00D98E  20F4               	addwfc	244,w,c
  4253  00D990  6EF7               	movwf	tblptrh,c
  4254  00D992                     	if	1	;There are 3 active tblptr bytes
  4255  00D992  6AF8               	clrf	tblptru,c
  4256  00D994  0E00               	movlw	low (__mediumconst shr (0+16))
  4257  00D996  22F8               	addwfc	tblptru,f,c
  4258  00D998                     	endif
  4259  00D998  0009               	tblrd		*+
  4260  00D99A  006F FFD4  F00F    	movff	tablat,___flmul@b
  4261  00D9A0  0009               	tblrd		*+
  4262  00D9A2  006F FFD4  F010    	movff	tablat,___flmul@b+1
  4263  00D9A8  0009               	tblrd		*+
  4264  00D9AA  006F FFD4  F011    	movff	tablat,___flmul@b+2
  4265  00D9B0  000A               	tblrd		*-
  4266  00D9B2  006F FFD4  F012    	movff	tablat,___flmul@b+3
  4267  00D9B8  EC48  F06A         	call	___flmul	;wreg free
  4268  00D9BC  C00F  F02C         	movff	?___flmul,_scale$1939
  4269  00D9C0  C010  F02D         	movff	?___flmul+1,_scale$1939+1
  4270  00D9C4  C011  F02E         	movff	?___flmul+2,_scale$1939+2
  4271  00D9C8  C012  F02F         	movff	?___flmul+3,_scale$1939+3
  4272                           
  4273                           ;doprnt.c: 439: return _npowers_[(unsigned char)(scl/100+18)] * _npowers_[(unsigned char
      +                          )((scl%100)/10+9)] * _npowers_[(unsigned char)(scl%10)];
  4274  00D9CC  C02C  F00F         	movff	_scale$1939,___flmul@b
  4275  00D9D0  C02D  F010         	movff	_scale$1939+1,___flmul@b+1
  4276  00D9D4  C02E  F011         	movff	_scale$1939+2,___flmul@b+2
  4277  00D9D8  C02F  F012         	movff	_scale$1939+3,___flmul@b+3
  4278  00D9DC  0E00               	movlw	0
  4279  00D9DE  6E04               	movwf	(___awmod@divisor+1)^0,c
  4280  00D9E0  0E0A               	movlw	10
  4281  00D9E2  6E03               	movwf	___awmod@divisor^0,c
  4282  00D9E4  5030               	movf	scale@scl^0,w,c
  4283  00D9E6  6E01               	movwf	___awmod@dividend^0,c
  4284  00D9E8  6A02               	clrf	(___awmod@dividend+1)^0,c
  4285  00D9EA  BE01               	btfsc	___awmod@dividend^0,7,c
  4286  00D9EC  0602               	decf	(___awmod@dividend+1)^0,f,c
  4287  00D9EE  EC1E  F062         	call	___awmod	;wreg free
  4288  00D9F2  5001               	movf	?___awmod^0,w,c
  4289  00D9F4  0D04               	mullw	4
  4290  00D9F6  0EC1               	movlw	low __npowers_
  4291  00D9F8  24F3               	addwf	243,w,c
  4292  00D9FA  6EF6               	movwf	tblptrl,c
  4293  00D9FC  0EFD               	movlw	high __npowers_
  4294  00D9FE  20F4               	addwfc	244,w,c
  4295  00DA00  6EF7               	movwf	tblptrh,c
  4296  00DA02                     	if	1	;There are 3 active tblptr bytes
  4297  00DA02  6AF8               	clrf	tblptru,c
  4298  00DA04  0E00               	movlw	low (__mediumconst shr (0+16))
  4299  00DA06  22F8               	addwfc	tblptru,f,c
  4300  00DA08                     	endif
  4301  00DA08  0009               	tblrd		*+
  4302  00DA0A  006F FFD4  F013    	movff	tablat,___flmul@a
  4303  00DA10  0009               	tblrd		*+
  4304  00DA12  006F FFD4  F014    	movff	tablat,___flmul@a+1
  4305  00DA18  0009               	tblrd		*+
  4306  00DA1A  006F FFD4  F015    	movff	tablat,___flmul@a+2
  4307  00DA20  000A               	tblrd		*-
  4308  00DA22  006F FFD4  F016    	movff	tablat,___flmul@a+3
  4309  00DA28  EC48  F06A         	call	___flmul	;wreg free
  4310  00DA2C  C00F  F028         	movff	?___flmul,?_scale
  4311  00DA30  C010  F029         	movff	?___flmul+1,?_scale+1
  4312  00DA34  C011  F02A         	movff	?___flmul+2,?_scale+2
  4313  00DA38  C012  F02B         	movff	?___flmul+3,?_scale+3
  4314  00DA3C  EFC8  F06E         	goto	l579
  4315  00DA40                     l3827:
  4316                           
  4317                           ;doprnt.c: 440: else if(scl > 10)
  4318  00DA40  5030               	movf	scale@scl^0,w,c
  4319  00DA42  0A80               	xorlw	128
  4320  00DA44  0F75               	addlw	-139
  4321  00DA46  A0D8               	btfss	status,0,c
  4322  00DA48  EF28  F06D         	goto	u3471
  4323  00DA4C  EF2A  F06D         	goto	u3470
  4324  00DA50                     u3471:
  4325  00DA50  EF84  F06D         	goto	l3833
  4326  00DA54                     u3470:
  4327  00DA54                     
  4328                           ;doprnt.c: 441: return _npowers_[(unsigned char)(scl/10+9)] * _npowers_[(unsigned char)(
      +                          scl%10)];
  4329  00DA54  0E00               	movlw	0
  4330  00DA56  6E0A               	movwf	(___awdiv@divisor+1)^0,c
  4331  00DA58  0E0A               	movlw	10
  4332  00DA5A  6E09               	movwf	___awdiv@divisor^0,c
  4333  00DA5C  5030               	movf	scale@scl^0,w,c
  4334  00DA5E  6E07               	movwf	___awdiv@dividend^0,c
  4335  00DA60  6A08               	clrf	(___awdiv@dividend+1)^0,c
  4336  00DA62  BE07               	btfsc	___awdiv@dividend^0,7,c
  4337  00DA64  0608               	decf	(___awdiv@dividend+1)^0,f,c
  4338  00DA66  ECD6  F062         	call	___awdiv	;wreg free
  4339  00DA6A  0E09               	movlw	9
  4340  00DA6C  2607               	addwf	?___awdiv^0,f,c
  4341  00DA6E  5007               	movf	?___awdiv^0,w,c
  4342  00DA70  0D04               	mullw	4
  4343  00DA72  0EC1               	movlw	low __npowers_
  4344  00DA74  24F3               	addwf	243,w,c
  4345  00DA76  6EF6               	movwf	tblptrl,c
  4346  00DA78  0EFD               	movlw	high __npowers_
  4347  00DA7A  20F4               	addwfc	244,w,c
  4348  00DA7C  6EF7               	movwf	tblptrh,c
  4349  00DA7E                     	if	1	;There are 3 active tblptr bytes
  4350  00DA7E  6AF8               	clrf	tblptru,c
  4351  00DA80  0E00               	movlw	low (__mediumconst shr (0+16))
  4352  00DA82  22F8               	addwfc	tblptru,f,c
  4353  00DA84                     	endif
  4354  00DA84  0009               	tblrd		*+
  4355  00DA86  006F FFD4  F00F    	movff	tablat,___flmul@b
  4356  00DA8C  0009               	tblrd		*+
  4357  00DA8E  006F FFD4  F010    	movff	tablat,___flmul@b+1
  4358  00DA94  0009               	tblrd		*+
  4359  00DA96  006F FFD4  F011    	movff	tablat,___flmul@b+2
  4360  00DA9C  000A               	tblrd		*-
  4361  00DA9E  006F FFD4  F012    	movff	tablat,___flmul@b+3
  4362  00DAA4  0E00               	movlw	0
  4363  00DAA6  6E04               	movwf	(___awmod@divisor+1)^0,c
  4364  00DAA8  0E0A               	movlw	10
  4365  00DAAA  6E03               	movwf	___awmod@divisor^0,c
  4366  00DAAC  5030               	movf	scale@scl^0,w,c
  4367  00DAAE  6E01               	movwf	___awmod@dividend^0,c
  4368  00DAB0  6A02               	clrf	(___awmod@dividend+1)^0,c
  4369  00DAB2  BE01               	btfsc	___awmod@dividend^0,7,c
  4370  00DAB4  0602               	decf	(___awmod@dividend+1)^0,f,c
  4371  00DAB6  EC1E  F062         	call	___awmod	;wreg free
  4372  00DABA  5001               	movf	?___awmod^0,w,c
  4373  00DABC  0D04               	mullw	4
  4374  00DABE  0EC1               	movlw	low __npowers_
  4375  00DAC0  24F3               	addwf	243,w,c
  4376  00DAC2  6EF6               	movwf	tblptrl,c
  4377  00DAC4  0EFD               	movlw	high __npowers_
  4378  00DAC6  20F4               	addwfc	244,w,c
  4379  00DAC8  6EF7               	movwf	tblptrh,c
  4380  00DACA                     	if	1	;There are 3 active tblptr bytes
  4381  00DACA  6AF8               	clrf	tblptru,c
  4382  00DACC  0E00               	movlw	low (__mediumconst shr (0+16))
  4383  00DACE  22F8               	addwfc	tblptru,f,c
  4384  00DAD0                     	endif
  4385  00DAD0  0009               	tblrd		*+
  4386  00DAD2  006F FFD4  F013    	movff	tablat,___flmul@a
  4387  00DAD8  0009               	tblrd		*+
  4388  00DADA  006F FFD4  F014    	movff	tablat,___flmul@a+1
  4389  00DAE0  0009               	tblrd		*+
  4390  00DAE2  006F FFD4  F015    	movff	tablat,___flmul@a+2
  4391  00DAE8  000A               	tblrd		*-
  4392  00DAEA  006F FFD4  F016    	movff	tablat,___flmul@a+3
  4393  00DAF0  EC48  F06A         	call	___flmul	;wreg free
  4394  00DAF4  C00F  F028         	movff	?___flmul,?_scale
  4395  00DAF8  C010  F029         	movff	?___flmul+1,?_scale+1
  4396  00DAFC  C011  F02A         	movff	?___flmul+2,?_scale+2
  4397  00DB00  C012  F02B         	movff	?___flmul+3,?_scale+3
  4398  00DB04  EFC8  F06E         	goto	l579
  4399  00DB08                     l3833:
  4400                           
  4401                           ;doprnt.c: 442: return _npowers_[(unsigned char)scl];
  4402  00DB08  5030               	movf	scale@scl^0,w,c
  4403  00DB0A  0D04               	mullw	4
  4404  00DB0C  0EC1               	movlw	low __npowers_
  4405  00DB0E  24F3               	addwf	243,w,c
  4406  00DB10  6EF6               	movwf	tblptrl,c
  4407  00DB12  0EFD               	movlw	high __npowers_
  4408  00DB14  20F4               	addwfc	244,w,c
  4409  00DB16  6EF7               	movwf	tblptrh,c
  4410  00DB18                     	if	1	;There are 3 active tblptr bytes
  4411  00DB18  6AF8               	clrf	tblptru,c
  4412  00DB1A  0E00               	movlw	low (__mediumconst shr (0+16))
  4413  00DB1C  22F8               	addwfc	tblptru,f,c
  4414  00DB1E                     	endif
  4415  00DB1E  0009               	tblrd		*+
  4416  00DB20  006F FFD4  F028    	movff	tablat,?_scale
  4417  00DB26  0009               	tblrd		*+
  4418  00DB28  006F FFD4  F029    	movff	tablat,?_scale+1
  4419  00DB2E  0009               	tblrd		*+
  4420  00DB30  006F FFD4  F02A    	movff	tablat,?_scale+2
  4421  00DB36  000A               	tblrd		*-
  4422  00DB38  006F FFD4  F02B    	movff	tablat,?_scale+3
  4423  00DB3E  EFC8  F06E         	goto	l579
  4424  00DB42                     l3837:
  4425                           
  4426                           ;doprnt.c: 443: };doprnt.c: 444: if(scl>=110)
  4427  00DB42  5030               	movf	scale@scl^0,w,c
  4428  00DB44  0A80               	xorlw	128
  4429  00DB46  0F12               	addlw	-238
  4430  00DB48  A0D8               	btfss	status,0,c
  4431  00DB4A  EFA9  F06D         	goto	u3481
  4432  00DB4E  EFAB  F06D         	goto	u3480
  4433  00DB52                     u3481:
  4434  00DB52  EF49  F06E         	goto	l3845
  4435  00DB56                     u3480:
  4436  00DB56                     
  4437                           ;doprnt.c: 445: return _powers_[(unsigned char)(scl/100+18)] * _powers_[(unsigned char)(
      +                          (scl%100)/10+9)] * _powers_[(unsigned char)(scl%10)];
  4438  00DB56  0E00               	movlw	0
  4439  00DB58  6E0A               	movwf	(___awdiv@divisor+1)^0,c
  4440  00DB5A  0E0A               	movlw	10
  4441  00DB5C  6E09               	movwf	___awdiv@divisor^0,c
  4442  00DB5E  0E00               	movlw	0
  4443  00DB60  6E04               	movwf	(___awmod@divisor+1)^0,c
  4444  00DB62  0E64               	movlw	100
  4445  00DB64  6E03               	movwf	___awmod@divisor^0,c
  4446  00DB66  5030               	movf	scale@scl^0,w,c
  4447  00DB68  6E01               	movwf	___awmod@dividend^0,c
  4448  00DB6A  6A02               	clrf	(___awmod@dividend+1)^0,c
  4449  00DB6C  BE01               	btfsc	___awmod@dividend^0,7,c
  4450  00DB6E  0602               	decf	(___awmod@dividend+1)^0,f,c
  4451  00DB70  EC1E  F062         	call	___awmod	;wreg free
  4452  00DB74  C001  F007         	movff	?___awmod,___awdiv@dividend
  4453  00DB78  C002  F008         	movff	?___awmod+1,___awdiv@dividend+1
  4454  00DB7C  ECD6  F062         	call	___awdiv	;wreg free
  4455  00DB80  0E09               	movlw	9
  4456  00DB82  2607               	addwf	?___awdiv^0,f,c
  4457  00DB84  5007               	movf	?___awdiv^0,w,c
  4458  00DB86  0D04               	mullw	4
  4459  00DB88  0E8D               	movlw	low __powers_
  4460  00DB8A  24F3               	addwf	243,w,c
  4461  00DB8C  6EF6               	movwf	tblptrl,c
  4462  00DB8E  0EFD               	movlw	high __powers_
  4463  00DB90  20F4               	addwfc	244,w,c
  4464  00DB92  6EF7               	movwf	tblptrh,c
  4465  00DB94                     	if	1	;There are 3 active tblptr bytes
  4466  00DB94  6AF8               	clrf	tblptru,c
  4467  00DB96  0E00               	movlw	low (__mediumconst shr (0+16))
  4468  00DB98  22F8               	addwfc	tblptru,f,c
  4469  00DB9A                     	endif
  4470  00DB9A  0009               	tblrd		*+
  4471  00DB9C  006F FFD4  F013    	movff	tablat,___flmul@a
  4472  00DBA2  0009               	tblrd		*+
  4473  00DBA4  006F FFD4  F014    	movff	tablat,___flmul@a+1
  4474  00DBAA  0009               	tblrd		*+
  4475  00DBAC  006F FFD4  F015    	movff	tablat,___flmul@a+2
  4476  00DBB2  000A               	tblrd		*-
  4477  00DBB4  006F FFD4  F016    	movff	tablat,___flmul@a+3
  4478  00DBBA  0E00               	movlw	0
  4479  00DBBC  6E0A               	movwf	(___awdiv@divisor+1)^0,c
  4480  00DBBE  0E64               	movlw	100
  4481  00DBC0  6E09               	movwf	___awdiv@divisor^0,c
  4482  00DBC2  5030               	movf	scale@scl^0,w,c
  4483  00DBC4  6E07               	movwf	___awdiv@dividend^0,c
  4484  00DBC6  6A08               	clrf	(___awdiv@dividend+1)^0,c
  4485  00DBC8  BE07               	btfsc	___awdiv@dividend^0,7,c
  4486  00DBCA  0608               	decf	(___awdiv@dividend+1)^0,f,c
  4487  00DBCC  ECD6  F062         	call	___awdiv	;wreg free
  4488  00DBD0  0E12               	movlw	18
  4489  00DBD2  2607               	addwf	?___awdiv^0,f,c
  4490  00DBD4  5007               	movf	?___awdiv^0,w,c
  4491  00DBD6  0D04               	mullw	4
  4492  00DBD8  0E8D               	movlw	low __powers_
  4493  00DBDA  24F3               	addwf	243,w,c
  4494  00DBDC  6EF6               	movwf	tblptrl,c
  4495  00DBDE  0EFD               	movlw	high __powers_
  4496  00DBE0  20F4               	addwfc	244,w,c
  4497  00DBE2  6EF7               	movwf	tblptrh,c
  4498  00DBE4                     	if	1	;There are 3 active tblptr bytes
  4499  00DBE4  6AF8               	clrf	tblptru,c
  4500  00DBE6  0E00               	movlw	low (__mediumconst shr (0+16))
  4501  00DBE8  22F8               	addwfc	tblptru,f,c
  4502  00DBEA                     	endif
  4503  00DBEA  0009               	tblrd		*+
  4504  00DBEC  006F FFD4  F00F    	movff	tablat,___flmul@b
  4505  00DBF2  0009               	tblrd		*+
  4506  00DBF4  006F FFD4  F010    	movff	tablat,___flmul@b+1
  4507  00DBFA  0009               	tblrd		*+
  4508  00DBFC  006F FFD4  F011    	movff	tablat,___flmul@b+2
  4509  00DC02  000A               	tblrd		*-
  4510  00DC04  006F FFD4  F012    	movff	tablat,___flmul@b+3
  4511  00DC0A  EC48  F06A         	call	___flmul	;wreg free
  4512  00DC0E  C00F  F02C         	movff	?___flmul,_scale$1939
  4513  00DC12  C010  F02D         	movff	?___flmul+1,_scale$1939+1
  4514  00DC16  C011  F02E         	movff	?___flmul+2,_scale$1939+2
  4515  00DC1A  C012  F02F         	movff	?___flmul+3,_scale$1939+3
  4516                           
  4517                           ;doprnt.c: 445: return _powers_[(unsigned char)(scl/100+18)] * _powers_[(unsigned char)(
      +                          (scl%100)/10+9)] * _powers_[(unsigned char)(scl%10)];
  4518  00DC1E  C02C  F00F         	movff	_scale$1939,___flmul@b
  4519  00DC22  C02D  F010         	movff	_scale$1939+1,___flmul@b+1
  4520  00DC26  C02E  F011         	movff	_scale$1939+2,___flmul@b+2
  4521  00DC2A  C02F  F012         	movff	_scale$1939+3,___flmul@b+3
  4522  00DC2E  0E00               	movlw	0
  4523  00DC30  6E04               	movwf	(___awmod@divisor+1)^0,c
  4524  00DC32  0E0A               	movlw	10
  4525  00DC34  6E03               	movwf	___awmod@divisor^0,c
  4526  00DC36  5030               	movf	scale@scl^0,w,c
  4527  00DC38  6E01               	movwf	___awmod@dividend^0,c
  4528  00DC3A  6A02               	clrf	(___awmod@dividend+1)^0,c
  4529  00DC3C  BE01               	btfsc	___awmod@dividend^0,7,c
  4530  00DC3E  0602               	decf	(___awmod@dividend+1)^0,f,c
  4531  00DC40  EC1E  F062         	call	___awmod	;wreg free
  4532  00DC44  5001               	movf	?___awmod^0,w,c
  4533  00DC46  0D04               	mullw	4
  4534  00DC48  0E8D               	movlw	low __powers_
  4535  00DC4A  24F3               	addwf	243,w,c
  4536  00DC4C  6EF6               	movwf	tblptrl,c
  4537  00DC4E  0EFD               	movlw	high __powers_
  4538  00DC50  20F4               	addwfc	244,w,c
  4539  00DC52  6EF7               	movwf	tblptrh,c
  4540  00DC54                     	if	1	;There are 3 active tblptr bytes
  4541  00DC54  6AF8               	clrf	tblptru,c
  4542  00DC56  0E00               	movlw	low (__mediumconst shr (0+16))
  4543  00DC58  22F8               	addwfc	tblptru,f,c
  4544  00DC5A                     	endif
  4545  00DC5A  0009               	tblrd		*+
  4546  00DC5C  006F FFD4  F013    	movff	tablat,___flmul@a
  4547  00DC62  0009               	tblrd		*+
  4548  00DC64  006F FFD4  F014    	movff	tablat,___flmul@a+1
  4549  00DC6A  0009               	tblrd		*+
  4550  00DC6C  006F FFD4  F015    	movff	tablat,___flmul@a+2
  4551  00DC72  000A               	tblrd		*-
  4552  00DC74  006F FFD4  F016    	movff	tablat,___flmul@a+3
  4553  00DC7A  EC48  F06A         	call	___flmul	;wreg free
  4554  00DC7E  C00F  F028         	movff	?___flmul,?_scale
  4555  00DC82  C010  F029         	movff	?___flmul+1,?_scale+1
  4556  00DC86  C011  F02A         	movff	?___flmul+2,?_scale+2
  4557  00DC8A  C012  F02B         	movff	?___flmul+3,?_scale+3
  4558  00DC8E  EFC8  F06E         	goto	l579
  4559  00DC92                     l3845:
  4560                           
  4561                           ;doprnt.c: 446: else if(scl > 10)
  4562  00DC92  5030               	movf	scale@scl^0,w,c
  4563  00DC94  0A80               	xorlw	128
  4564  00DC96  0F75               	addlw	-139
  4565  00DC98  A0D8               	btfss	status,0,c
  4566  00DC9A  EF51  F06E         	goto	u3491
  4567  00DC9E  EF53  F06E         	goto	u3490
  4568  00DCA2                     u3491:
  4569  00DCA2  EFAD  F06E         	goto	l3851
  4570  00DCA6                     u3490:
  4571  00DCA6                     
  4572                           ;doprnt.c: 447: return _powers_[(unsigned char)(scl/10+9)] * _powers_[(unsigned char)(sc
      +                          l%10)];
  4573  00DCA6  0E00               	movlw	0
  4574  00DCA8  6E0A               	movwf	(___awdiv@divisor+1)^0,c
  4575  00DCAA  0E0A               	movlw	10
  4576  00DCAC  6E09               	movwf	___awdiv@divisor^0,c
  4577  00DCAE  5030               	movf	scale@scl^0,w,c
  4578  00DCB0  6E07               	movwf	___awdiv@dividend^0,c
  4579  00DCB2  6A08               	clrf	(___awdiv@dividend+1)^0,c
  4580  00DCB4  BE07               	btfsc	___awdiv@dividend^0,7,c
  4581  00DCB6  0608               	decf	(___awdiv@dividend+1)^0,f,c
  4582  00DCB8  ECD6  F062         	call	___awdiv	;wreg free
  4583  00DCBC  0E09               	movlw	9
  4584  00DCBE  2607               	addwf	?___awdiv^0,f,c
  4585  00DCC0  5007               	movf	?___awdiv^0,w,c
  4586  00DCC2  0D04               	mullw	4
  4587  00DCC4  0E8D               	movlw	low __powers_
  4588  00DCC6  24F3               	addwf	243,w,c
  4589  00DCC8  6EF6               	movwf	tblptrl,c
  4590  00DCCA  0EFD               	movlw	high __powers_
  4591  00DCCC  20F4               	addwfc	244,w,c
  4592  00DCCE  6EF7               	movwf	tblptrh,c
  4593  00DCD0                     	if	1	;There are 3 active tblptr bytes
  4594  00DCD0  6AF8               	clrf	tblptru,c
  4595  00DCD2  0E00               	movlw	low (__mediumconst shr (0+16))
  4596  00DCD4  22F8               	addwfc	tblptru,f,c
  4597  00DCD6                     	endif
  4598  00DCD6  0009               	tblrd		*+
  4599  00DCD8  006F FFD4  F00F    	movff	tablat,___flmul@b
  4600  00DCDE  0009               	tblrd		*+
  4601  00DCE0  006F FFD4  F010    	movff	tablat,___flmul@b+1
  4602  00DCE6  0009               	tblrd		*+
  4603  00DCE8  006F FFD4  F011    	movff	tablat,___flmul@b+2
  4604  00DCEE  000A               	tblrd		*-
  4605  00DCF0  006F FFD4  F012    	movff	tablat,___flmul@b+3
  4606  00DCF6  0E00               	movlw	0
  4607  00DCF8  6E04               	movwf	(___awmod@divisor+1)^0,c
  4608  00DCFA  0E0A               	movlw	10
  4609  00DCFC  6E03               	movwf	___awmod@divisor^0,c
  4610  00DCFE  5030               	movf	scale@scl^0,w,c
  4611  00DD00  6E01               	movwf	___awmod@dividend^0,c
  4612  00DD02  6A02               	clrf	(___awmod@dividend+1)^0,c
  4613  00DD04  BE01               	btfsc	___awmod@dividend^0,7,c
  4614  00DD06  0602               	decf	(___awmod@dividend+1)^0,f,c
  4615  00DD08  EC1E  F062         	call	___awmod	;wreg free
  4616  00DD0C  5001               	movf	?___awmod^0,w,c
  4617  00DD0E  0D04               	mullw	4
  4618  00DD10  0E8D               	movlw	low __powers_
  4619  00DD12  24F3               	addwf	243,w,c
  4620  00DD14  6EF6               	movwf	tblptrl,c
  4621  00DD16  0EFD               	movlw	high __powers_
  4622  00DD18  20F4               	addwfc	244,w,c
  4623  00DD1A  6EF7               	movwf	tblptrh,c
  4624  00DD1C                     	if	1	;There are 3 active tblptr bytes
  4625  00DD1C  6AF8               	clrf	tblptru,c
  4626  00DD1E  0E00               	movlw	low (__mediumconst shr (0+16))
  4627  00DD20  22F8               	addwfc	tblptru,f,c
  4628  00DD22                     	endif
  4629  00DD22  0009               	tblrd		*+
  4630  00DD24  006F FFD4  F013    	movff	tablat,___flmul@a
  4631  00DD2A  0009               	tblrd		*+
  4632  00DD2C  006F FFD4  F014    	movff	tablat,___flmul@a+1
  4633  00DD32  0009               	tblrd		*+
  4634  00DD34  006F FFD4  F015    	movff	tablat,___flmul@a+2
  4635  00DD3A  000A               	tblrd		*-
  4636  00DD3C  006F FFD4  F016    	movff	tablat,___flmul@a+3
  4637  00DD42  EC48  F06A         	call	___flmul	;wreg free
  4638  00DD46  C00F  F028         	movff	?___flmul,?_scale
  4639  00DD4A  C010  F029         	movff	?___flmul+1,?_scale+1
  4640  00DD4E  C011  F02A         	movff	?___flmul+2,?_scale+2
  4641  00DD52  C012  F02B         	movff	?___flmul+3,?_scale+3
  4642  00DD56  EFC8  F06E         	goto	l579
  4643  00DD5A                     l3851:
  4644                           
  4645                           ;doprnt.c: 448: return _powers_[(unsigned char)scl];
  4646  00DD5A  5030               	movf	scale@scl^0,w,c
  4647  00DD5C  0D04               	mullw	4
  4648  00DD5E  0E8D               	movlw	low __powers_
  4649  00DD60  24F3               	addwf	243,w,c
  4650  00DD62  6EF6               	movwf	tblptrl,c
  4651  00DD64  0EFD               	movlw	high __powers_
  4652  00DD66  20F4               	addwfc	244,w,c
  4653  00DD68  6EF7               	movwf	tblptrh,c
  4654  00DD6A                     	if	1	;There are 3 active tblptr bytes
  4655  00DD6A  6AF8               	clrf	tblptru,c
  4656  00DD6C  0E00               	movlw	low (__mediumconst shr (0+16))
  4657  00DD6E  22F8               	addwfc	tblptru,f,c
  4658  00DD70                     	endif
  4659  00DD70  0009               	tblrd		*+
  4660  00DD72  006F FFD4  F028    	movff	tablat,?_scale
  4661  00DD78  0009               	tblrd		*+
  4662  00DD7A  006F FFD4  F029    	movff	tablat,?_scale+1
  4663  00DD80  0009               	tblrd		*+
  4664  00DD82  006F FFD4  F02A    	movff	tablat,?_scale+2
  4665  00DD88  000A               	tblrd		*-
  4666  00DD8A  006F FFD4  F02B    	movff	tablat,?_scale+3
  4667  00DD90                     l579:
  4668  00DD90  0012               	return		;funcret
  4669  00DD92                     __end_of_scale:
  4670                           	callstack 0
  4671                           
  4672 ;; *************** function ___awmod *****************
  4673 ;; Defined at:
  4674 ;;		line 7 in file "C:\Program Files\Microchip\xc8\v2.30\pic\sources\c90\common\awmod.c"
  4675 ;; Parameters:    Size  Location     Type
  4676 ;;  dividend        2    0[COMRAM] int 
  4677 ;;  divisor         2    2[COMRAM] int 
  4678 ;; Auto vars:     Size  Location     Type
  4679 ;;  sign            1    5[COMRAM] unsigned char 
  4680 ;;  counter         1    4[COMRAM] unsigned char 
  4681 ;; Return value:  Size  Location     Type
  4682 ;;                  2    0[COMRAM] int 
  4683 ;; Registers used:
  4684 ;;		wreg, status,2, status,0
  4685 ;; Tracked objects:
  4686 ;;		On entry : 0/0
  4687 ;;		On exit  : 0/0
  4688 ;;		Unchanged: 0/0
  4689 ;; Data sizes:     COMRAM   BANK0   BANK1   BANK2   BANK3   BANK4   BANK5   BANK6   BANK7   BANK8   BANK9  BANK10  BANK1
      +1  BANK12  BANK13  BANK14  BANK15
  4690 ;;      Params:         4       0       0       0       0       0       0       0       0       0       0       0       
      +0       0       0       0       0
  4691 ;;      Locals:         2       0       0       0       0       0       0       0       0       0       0       0       
      +0       0       0       0       0
  4692 ;;      Temps:          0       0       0       0       0       0       0       0       0       0       0       0       
      +0       0       0       0       0
  4693 ;;      Totals:         6       0       0       0       0       0       0       0       0       0       0       0       
      +0       0       0       0       0
  4694 ;;Total ram usage:        6 bytes
  4695 ;; Hardware stack levels used:    1
  4696 ;; This function calls:
  4697 ;;		Nothing
  4698 ;; This function is called by:
  4699 ;;		_scale
  4700 ;; This function uses a non-reentrant model
  4701 ;;
  4702                           
  4703                           	psect	text4
  4704  00C43C                     __ptext4:
  4705                           	callstack 0
  4706  00C43C                     ___awmod:
  4707                           	callstack 28
  4708  00C43C  0E00               	movlw	0
  4709  00C43E  6E06               	movwf	___awmod@sign^0,c
  4710  00C440  BE02               	btfsc	(___awmod@dividend+1)^0,7,c
  4711  00C442  EF27  F062         	goto	u3310
  4712  00C446  EF25  F062         	goto	u3311
  4713  00C44A                     u3311:
  4714  00C44A  EF2D  F062         	goto	l3725
  4715  00C44E                     u3310:
  4716  00C44E  6C01               	negf	___awmod@dividend^0,c
  4717  00C450  1E02               	comf	(___awmod@dividend+1)^0,f,c
  4718  00C452  B0D8               	btfsc	status,0,c
  4719  00C454  2A02               	incf	(___awmod@dividend+1)^0,f,c
  4720  00C456  0E01               	movlw	1
  4721  00C458  6E06               	movwf	___awmod@sign^0,c
  4722  00C45A                     l3725:
  4723  00C45A  BE04               	btfsc	(___awmod@divisor+1)^0,7,c
  4724  00C45C  EF34  F062         	goto	u3320
  4725  00C460  EF32  F062         	goto	u3321
  4726  00C464                     u3321:
  4727  00C464  EF38  F062         	goto	l3729
  4728  00C468                     u3320:
  4729  00C468  6C03               	negf	___awmod@divisor^0,c
  4730  00C46A  1E04               	comf	(___awmod@divisor+1)^0,f,c
  4731  00C46C  B0D8               	btfsc	status,0,c
  4732  00C46E  2A04               	incf	(___awmod@divisor+1)^0,f,c
  4733  00C470                     l3729:
  4734  00C470  5003               	movf	___awmod@divisor^0,w,c
  4735  00C472  1004               	iorwf	(___awmod@divisor+1)^0,w,c
  4736  00C474  B4D8               	btfsc	status,2,c
  4737  00C476  EF3F  F062         	goto	u3331
  4738  00C47A  EF41  F062         	goto	u3330
  4739  00C47E                     u3331:
  4740  00C47E  EF65  F062         	goto	l3745
  4741  00C482                     u3330:
  4742  00C482  0E01               	movlw	1
  4743  00C484  6E05               	movwf	___awmod@counter^0,c
  4744  00C486  EF49  F062         	goto	l3735
  4745  00C48A                     l3733:
  4746  00C48A  90D8               	bcf	status,0,c
  4747  00C48C  3603               	rlcf	___awmod@divisor^0,f,c
  4748  00C48E  3604               	rlcf	(___awmod@divisor+1)^0,f,c
  4749  00C490  2A05               	incf	___awmod@counter^0,f,c
  4750  00C492                     l3735:
  4751  00C492  AE04               	btfss	(___awmod@divisor+1)^0,7,c
  4752  00C494  EF4E  F062         	goto	u3341
  4753  00C498  EF50  F062         	goto	u3340
  4754  00C49C                     u3341:
  4755  00C49C  EF45  F062         	goto	l3733
  4756  00C4A0                     u3340:
  4757  00C4A0                     l3737:
  4758  00C4A0  5003               	movf	___awmod@divisor^0,w,c
  4759  00C4A2  5C01               	subwf	___awmod@dividend^0,w,c
  4760  00C4A4  5004               	movf	(___awmod@divisor+1)^0,w,c
  4761  00C4A6  5802               	subwfb	(___awmod@dividend+1)^0,w,c
  4762  00C4A8  A0D8               	btfss	status,0,c
  4763  00C4AA  EF59  F062         	goto	u3351
  4764  00C4AE  EF5B  F062         	goto	u3350
  4765  00C4B2                     u3351:
  4766  00C4B2  EF5F  F062         	goto	l3741
  4767  00C4B6                     u3350:
  4768  00C4B6  5003               	movf	___awmod@divisor^0,w,c
  4769  00C4B8  5E01               	subwf	___awmod@dividend^0,f,c
  4770  00C4BA  5004               	movf	(___awmod@divisor+1)^0,w,c
  4771  00C4BC  5A02               	subwfb	(___awmod@dividend+1)^0,f,c
  4772  00C4BE                     l3741:
  4773  00C4BE  90D8               	bcf	status,0,c
  4774  00C4C0  3204               	rrcf	(___awmod@divisor+1)^0,f,c
  4775  00C4C2  3203               	rrcf	___awmod@divisor^0,f,c
  4776  00C4C4  2E05               	decfsz	___awmod@counter^0,f,c
  4777  00C4C6  EF50  F062         	goto	l3737
  4778  00C4CA                     l3745:
  4779  00C4CA  5006               	movf	___awmod@sign^0,w,c
  4780  00C4CC  B4D8               	btfsc	status,2,c
  4781  00C4CE  EF6B  F062         	goto	u3361
  4782  00C4D2  EF6D  F062         	goto	u3360
  4783  00C4D6                     u3361:
  4784  00C4D6  EF71  F062         	goto	l3749
  4785  00C4DA                     u3360:
  4786  00C4DA  6C01               	negf	___awmod@dividend^0,c
  4787  00C4DC  1E02               	comf	(___awmod@dividend+1)^0,f,c
  4788  00C4DE  B0D8               	btfsc	status,0,c
  4789  00C4E0  2A02               	incf	(___awmod@dividend+1)^0,f,c
  4790  00C4E2                     l3749:
  4791  00C4E2  C001  F001         	movff	___awmod@dividend,?___awmod
  4792  00C4E6  C002  F002         	movff	___awmod@dividend+1,?___awmod+1
  4793  00C4EA  0012               	return		;funcret
  4794  00C4EC                     __end_of___awmod:
  4795                           	callstack 0
  4796                           
  4797 ;; *************** function ___awdiv *****************
  4798 ;; Defined at:
  4799 ;;		line 7 in file "C:\Program Files\Microchip\xc8\v2.30\pic\sources\c90\common\awdiv.c"
  4800 ;; Parameters:    Size  Location     Type
  4801 ;;  dividend        2    6[COMRAM] int 
  4802 ;;  divisor         2    8[COMRAM] int 
  4803 ;; Auto vars:     Size  Location     Type
  4804 ;;  quotient        2   12[COMRAM] int 
  4805 ;;  sign            1   11[COMRAM] unsigned char 
  4806 ;;  counter         1   10[COMRAM] unsigned char 
  4807 ;; Return value:  Size  Location     Type
  4808 ;;                  2    6[COMRAM] int 
  4809 ;; Registers used:
  4810 ;;		wreg, status,2, status,0
  4811 ;; Tracked objects:
  4812 ;;		On entry : 0/0
  4813 ;;		On exit  : 0/0
  4814 ;;		Unchanged: 0/0
  4815 ;; Data sizes:     COMRAM   BANK0   BANK1   BANK2   BANK3   BANK4   BANK5   BANK6   BANK7   BANK8   BANK9  BANK10  BANK1
      +1  BANK12  BANK13  BANK14  BANK15
  4816 ;;      Params:         4       0       0       0       0       0       0       0       0       0       0       0       
      +0       0       0       0       0
  4817 ;;      Locals:         4       0       0       0       0       0       0       0       0       0       0       0       
      +0       0       0       0       0
  4818 ;;      Temps:          0       0       0       0       0       0       0       0       0       0       0       0       
      +0       0       0       0       0
  4819 ;;      Totals:         8       0       0       0       0       0       0       0       0       0       0       0       
      +0       0       0       0       0
  4820 ;;Total ram usage:        8 bytes
  4821 ;; Hardware stack levels used:    1
  4822 ;; This function calls:
  4823 ;;		Nothing
  4824 ;; This function is called by:
  4825 ;;		_scale
  4826 ;;		_printf
  4827 ;; This function uses a non-reentrant model
  4828 ;;
  4829                           
  4830                           	psect	text5
  4831  00C5AC                     __ptext5:
  4832                           	callstack 0
  4833  00C5AC                     ___awdiv:
  4834                           	callstack 28
  4835  00C5AC  0E00               	movlw	0
  4836  00C5AE  6E0C               	movwf	___awdiv@sign^0,c
  4837  00C5B0  BE0A               	btfsc	(___awdiv@divisor+1)^0,7,c
  4838  00C5B2  EFDF  F062         	goto	u3250
  4839  00C5B6  EFDD  F062         	goto	u3251
  4840  00C5BA                     u3251:
  4841  00C5BA  EFE5  F062         	goto	l3681
  4842  00C5BE                     u3250:
  4843  00C5BE  6C09               	negf	___awdiv@divisor^0,c
  4844  00C5C0  1E0A               	comf	(___awdiv@divisor+1)^0,f,c
  4845  00C5C2  B0D8               	btfsc	status,0,c
  4846  00C5C4  2A0A               	incf	(___awdiv@divisor+1)^0,f,c
  4847  00C5C6  0E01               	movlw	1
  4848  00C5C8  6E0C               	movwf	___awdiv@sign^0,c
  4849  00C5CA                     l3681:
  4850  00C5CA  BE08               	btfsc	(___awdiv@dividend+1)^0,7,c
  4851  00C5CC  EFEC  F062         	goto	u3260
  4852  00C5D0  EFEA  F062         	goto	u3261
  4853  00C5D4                     u3261:
  4854  00C5D4  EFF2  F062         	goto	l3687
  4855  00C5D8                     u3260:
  4856  00C5D8  6C07               	negf	___awdiv@dividend^0,c
  4857  00C5DA  1E08               	comf	(___awdiv@dividend+1)^0,f,c
  4858  00C5DC  B0D8               	btfsc	status,0,c
  4859  00C5DE  2A08               	incf	(___awdiv@dividend+1)^0,f,c
  4860  00C5E0  0E01               	movlw	1
  4861  00C5E2  1A0C               	xorwf	___awdiv@sign^0,f,c
  4862  00C5E4                     l3687:
  4863  00C5E4  0E00               	movlw	0
  4864  00C5E6  6E0E               	movwf	(___awdiv@quotient+1)^0,c
  4865  00C5E8  0E00               	movlw	0
  4866  00C5EA  6E0D               	movwf	___awdiv@quotient^0,c
  4867  00C5EC  5009               	movf	___awdiv@divisor^0,w,c
  4868  00C5EE  100A               	iorwf	(___awdiv@divisor+1)^0,w,c
  4869  00C5F0  B4D8               	btfsc	status,2,c
  4870  00C5F2  EFFD  F062         	goto	u3271
  4871  00C5F6  EFFF  F062         	goto	u3270
  4872  00C5FA                     u3271:
  4873  00C5FA  EF27  F063         	goto	l3709
  4874  00C5FE                     u3270:
  4875  00C5FE  0E01               	movlw	1
  4876  00C600  6E0B               	movwf	___awdiv@counter^0,c
  4877  00C602  EF07  F063         	goto	l3695
  4878  00C606                     l3693:
  4879  00C606  90D8               	bcf	status,0,c
  4880  00C608  3609               	rlcf	___awdiv@divisor^0,f,c
  4881  00C60A  360A               	rlcf	(___awdiv@divisor+1)^0,f,c
  4882  00C60C  2A0B               	incf	___awdiv@counter^0,f,c
  4883  00C60E                     l3695:
  4884  00C60E  AE0A               	btfss	(___awdiv@divisor+1)^0,7,c
  4885  00C610  EF0C  F063         	goto	u3281
  4886  00C614  EF0E  F063         	goto	u3280
  4887  00C618                     u3281:
  4888  00C618  EF03  F063         	goto	l3693
  4889  00C61C                     u3280:
  4890  00C61C                     l3697:
  4891  00C61C  90D8               	bcf	status,0,c
  4892  00C61E  360D               	rlcf	___awdiv@quotient^0,f,c
  4893  00C620  360E               	rlcf	(___awdiv@quotient+1)^0,f,c
  4894  00C622  5009               	movf	___awdiv@divisor^0,w,c
  4895  00C624  5C07               	subwf	___awdiv@dividend^0,w,c
  4896  00C626  500A               	movf	(___awdiv@divisor+1)^0,w,c
  4897  00C628  5808               	subwfb	(___awdiv@dividend+1)^0,w,c
  4898  00C62A  A0D8               	btfss	status,0,c
  4899  00C62C  EF1A  F063         	goto	u3291
  4900  00C630  EF1C  F063         	goto	u3290
  4901  00C634                     u3291:
  4902  00C634  EF21  F063         	goto	l3705
  4903  00C638                     u3290:
  4904  00C638  5009               	movf	___awdiv@divisor^0,w,c
  4905  00C63A  5E07               	subwf	___awdiv@dividend^0,f,c
  4906  00C63C  500A               	movf	(___awdiv@divisor+1)^0,w,c
  4907  00C63E  5A08               	subwfb	(___awdiv@dividend+1)^0,f,c
  4908  00C640  800D               	bsf	___awdiv@quotient^0,0,c
  4909  00C642                     l3705:
  4910  00C642  90D8               	bcf	status,0,c
  4911  00C644  320A               	rrcf	(___awdiv@divisor+1)^0,f,c
  4912  00C646  3209               	rrcf	___awdiv@divisor^0,f,c
  4913  00C648  2E0B               	decfsz	___awdiv@counter^0,f,c
  4914  00C64A  EF0E  F063         	goto	l3697
  4915  00C64E                     l3709:
  4916  00C64E  500C               	movf	___awdiv@sign^0,w,c
  4917  00C650  B4D8               	btfsc	status,2,c
  4918  00C652  EF2D  F063         	goto	u3301
  4919  00C656  EF2F  F063         	goto	u3300
  4920  00C65A                     u3301:
  4921  00C65A  EF33  F063         	goto	l3713
  4922  00C65E                     u3300:
  4923  00C65E  6C0D               	negf	___awdiv@quotient^0,c
  4924  00C660  1E0E               	comf	(___awdiv@quotient+1)^0,f,c
  4925  00C662  B0D8               	btfsc	status,0,c
  4926  00C664  2A0E               	incf	(___awdiv@quotient+1)^0,f,c
  4927  00C666                     l3713:
  4928  00C666  C00D  F007         	movff	___awdiv@quotient,?___awdiv
  4929  00C66A  C00E  F008         	movff	___awdiv@quotient+1,?___awdiv+1
  4930  00C66E  0012               	return		;funcret
  4931  00C670                     __end_of___awdiv:
  4932                           	callstack 0
  4933                           
  4934 ;; *************** function _putch *****************
  4935 ;; Defined at:
  4936 ;;		line 175 in file "mcc_generated_files/uart2.c"
  4937 ;; Parameters:    Size  Location     Type
  4938 ;;  txData          1    wreg     unsigned char 
  4939 ;; Auto vars:     Size  Location     Type
  4940 ;;  txData          1    1[COMRAM] unsigned char 
  4941 ;; Return value:  Size  Location     Type
  4942 ;;                  1    wreg      void 
  4943 ;; Registers used:
  4944 ;;		wreg, status,2, cstack
  4945 ;; Tracked objects:
  4946 ;;		On entry : 0/0
  4947 ;;		On exit  : 0/0
  4948 ;;		Unchanged: 0/0
  4949 ;; Data sizes:     COMRAM   BANK0   BANK1   BANK2   BANK3   BANK4   BANK5   BANK6   BANK7   BANK8   BANK9  BANK10  BANK1
      +1  BANK12  BANK13  BANK14  BANK15
  4950 ;;      Params:         0       0       0       0       0       0       0       0       0       0       0       0       
      +0       0       0       0       0
  4951 ;;      Locals:         1       0       0       0       0       0       0       0       0       0       0       0       
      +0       0       0       0       0
  4952 ;;      Temps:          0       0       0       0       0       0       0       0       0       0       0       0       
      +0       0       0       0       0
  4953 ;;      Totals:         1       0       0       0       0       0       0       0       0       0       0       0       
      +0       0       0       0       0
  4954 ;;Total ram usage:        1 bytes
  4955 ;; Hardware stack levels used:    1
  4956 ;; Hardware stack levels required when called:    1
  4957 ;; This function calls:
  4958 ;;		_UART2_Write
  4959 ;; This function is called by:
  4960 ;;		_printf
  4961 ;; This function uses a non-reentrant model
  4962 ;;
  4963                           
  4964                           	psect	text6
  4965  00BC94                     __ptext6:
  4966                           	callstack 0
  4967  00BC94                     _putch:
  4968                           	callstack 28
  4969                           
  4970                           ;incstack = 0
  4971                           ;putch@txData stored from wreg
  4972  00BC94  6E02               	movwf	putch@txData^0,c
  4973  00BC96                     
  4974                           ;uart2.c: 177: UART2_Write(txData);
  4975  00BC96  5002               	movf	putch@txData^0,w,c
  4976  00BC98  EC79  F05E         	call	_UART2_Write
  4977  00BC9C  0012               	return		;funcret
  4978  00BC9E                     __end_of_putch:
  4979                           	callstack 0
  4980                           
  4981 ;; *************** function _UART2_Write *****************
  4982 ;; Defined at:
  4983 ;;		line 161 in file "mcc_generated_files/uart2.c"
  4984 ;; Parameters:    Size  Location     Type
  4985 ;;  txData          1    wreg     unsigned char 
  4986 ;; Auto vars:     Size  Location     Type
  4987 ;;  txData          1    0[COMRAM] unsigned char 
  4988 ;; Return value:  Size  Location     Type
  4989 ;;                  1    wreg      void 
  4990 ;; Registers used:
  4991 ;;		wreg
  4992 ;; Tracked objects:
  4993 ;;		On entry : 0/0
  4994 ;;		On exit  : 0/0
  4995 ;;		Unchanged: 0/0
  4996 ;; Data sizes:     COMRAM   BANK0   BANK1   BANK2   BANK3   BANK4   BANK5   BANK6   BANK7   BANK8   BANK9  BANK10  BANK1
      +1  BANK12  BANK13  BANK14  BANK15
  4997 ;;      Params:         0       0       0       0       0       0       0       0       0       0       0       0       
      +0       0       0       0       0
  4998 ;;      Locals:         1       0       0       0       0       0       0       0       0       0       0       0       
      +0       0       0       0       0
  4999 ;;      Temps:          0       0       0       0       0       0       0       0       0       0       0       0       
      +0       0       0       0       0
  5000 ;;      Totals:         1       0       0       0       0       0       0       0       0       0       0       0       
      +0       0       0       0       0
  5001 ;;Total ram usage:        1 bytes
  5002 ;; Hardware stack levels used:    1
  5003 ;; This function calls:
  5004 ;;		Nothing
  5005 ;; This function is called by:
  5006 ;;		_putch
  5007 ;; This function uses a non-reentrant model
  5008 ;;
  5009                           
  5010                           	psect	text7
  5011  00BCF2                     __ptext7:
  5012                           	callstack 0
  5013  00BCF2                     _UART2_Write:
  5014                           	callstack 28
  5015                           
  5016                           ;incstack = 0
  5017                           ;UART2_Write@txData stored from wreg
  5018  00BCF2  6E01               	movwf	UART2_Write@txData^0,c
  5019  00BCF4                     l235:
  5020  00BCF4  0139               	movlb	57	; () banked
  5021  00BCF6  A7A6               	btfss	166,3,b	;volatile
  5022  00BCF8  EF80  F05E         	goto	u2661
  5023  00BCFC  EF82  F05E         	goto	u2660
  5024  00BD00                     u2661:
  5025  00BD00  EF7A  F05E         	goto	l235
  5026  00BD04                     u2660:
  5027  00BD04                     
  5028                           ; BSR set to: 57
  5029                           ;uart2.c: 165: };uart2.c: 167: U2TXB = txData;
  5030  00BD04  0060  F007  FDD2   	movff	UART2_Write@txData,15826	;volatile
  5031  00BD0A                     
  5032                           ; BSR set to: 57
  5033  00BD0A  0012               	return		;funcret
  5034  00BD0C                     __end_of_UART2_Write:
  5035                           	callstack 0
  5036                           
  5037 ;; *************** function _fround *****************
  5038 ;; Defined at:
  5039 ;;		line 417 in file "C:\Program Files\Microchip\xc8\v2.30\pic\sources\c90\common\doprnt.c"
  5040 ;; Parameters:    Size  Location     Type
  5041 ;;  prec            1    wreg     unsigned char 
  5042 ;; Auto vars:     Size  Location     Type
  5043 ;;  prec            1   51[COMRAM] unsigned char 
  5044 ;; Return value:  Size  Location     Type
  5045 ;;                  4   39[COMRAM] unsigned char 
  5046 ;; Registers used:
  5047 ;;		wreg, status,2, status,0, tblptrl, tblptrh, tblptru, prodl, prodh, cstack
  5048 ;; Tracked objects:
  5049 ;;		On entry : 0/0
  5050 ;;		On exit  : 0/0
  5051 ;;		Unchanged: 0/0
  5052 ;; Data sizes:     COMRAM   BANK0   BANK1   BANK2   BANK3   BANK4   BANK5   BANK6   BANK7   BANK8   BANK9  BANK10  BANK1
      +1  BANK12  BANK13  BANK14  BANK15
  5053 ;;      Params:         4       0       0       0       0       0       0       0       0       0       0       0       
      +0       0       0       0       0
  5054 ;;      Locals:         9       0       0       0       0       0       0       0       0       0       0       0       
      +0       0       0       0       0
  5055 ;;      Temps:          0       0       0       0       0       0       0       0       0       0       0       0       
      +0       0       0       0       0
  5056 ;;      Totals:        13       0       0       0       0       0       0       0       0       0       0       0       
      +0       0       0       0       0
  5057 ;;Total ram usage:       13 bytes
  5058 ;; Hardware stack levels used:    1
  5059 ;; Hardware stack levels required when called:    1
  5060 ;; This function calls:
  5061 ;;		___flmul
  5062 ;;		___lwdiv
  5063 ;;		___lwmod
  5064 ;; This function is called by:
  5065 ;;		_printf
  5066 ;; This function uses a non-reentrant model
  5067 ;;
  5068                           
  5069                           	psect	text8
  5070  00CE00                     __ptext8:
  5071                           	callstack 0
  5072  00CE00                     _fround:
  5073                           	callstack 28
  5074                           
  5075                           ; BSR set to: 57
  5076                           ;incstack = 0
  5077                           ;fround@prec stored from wreg
  5078  00CE00  6E34               	movwf	fround@prec^0,c
  5079  00CE02                     
  5080                           ;doprnt.c: 421: if(prec>=110)
  5081  00CE02  0E6D               	movlw	109
  5082  00CE04  6434               	cpfsgt	fround@prec^0,c
  5083  00CE06  EF07  F067         	goto	u3431
  5084  00CE0A  EF09  F067         	goto	u3430
  5085  00CE0E                     u3431:
  5086  00CE0E  EFCB  F067         	goto	l3807
  5087  00CE12                     u3430:
  5088  00CE12                     
  5089                           ;doprnt.c: 422: return 0.5 * _npowers_[prec/100U+18U] * _npowers_[(prec%100U)/10U+9U] * 
      +                          _npowers_[prec%10U];
  5090  00CE12  0E00               	movlw	0
  5091  00CE14  6E13               	movwf	___flmul@a^0,c
  5092  00CE16  0E00               	movlw	0
  5093  00CE18  6E14               	movwf	(___flmul@a+1)^0,c
  5094  00CE1A  0E00               	movlw	0
  5095  00CE1C  6E15               	movwf	(___flmul@a+2)^0,c
  5096  00CE1E  0E3F               	movlw	63
  5097  00CE20  6E16               	movwf	(___flmul@a+3)^0,c
  5098  00CE22  0E00               	movlw	0
  5099  00CE24  6E09               	movwf	(___lwdiv@divisor+1)^0,c
  5100  00CE26  0E64               	movlw	100
  5101  00CE28  6E08               	movwf	___lwdiv@divisor^0,c
  5102  00CE2A  C034  F006         	movff	fround@prec,___lwdiv@dividend
  5103  00CE2E  6A07               	clrf	(___lwdiv@dividend+1)^0,c
  5104  00CE30  EC15  F060         	call	___lwdiv	;wreg free
  5105  00CE34  90D8               	bcf	status,0,c
  5106  00CE36  3606               	rlcf	?___lwdiv^0,f,c
  5107  00CE38  3607               	rlcf	(?___lwdiv+1)^0,f,c
  5108  00CE3A  90D8               	bcf	status,0,c
  5109  00CE3C  3606               	rlcf	?___lwdiv^0,f,c
  5110  00CE3E  3607               	rlcf	(?___lwdiv+1)^0,f,c
  5111  00CE40  0E48               	movlw	72
  5112  00CE42  2606               	addwf	?___lwdiv^0,f,c
  5113  00CE44  0E00               	movlw	0
  5114  00CE46  2207               	addwfc	(?___lwdiv+1)^0,f,c
  5115  00CE48  0EC1               	movlw	low __npowers_
  5116  00CE4A  2406               	addwf	?___lwdiv^0,w,c
  5117  00CE4C  6EF6               	movwf	tblptrl,c
  5118  00CE4E  0EFD               	movlw	high __npowers_
  5119  00CE50  2007               	addwfc	(?___lwdiv+1)^0,w,c
  5120  00CE52  6EF7               	movwf	tblptrh,c
  5121  00CE54                     	if	1	;There are 3 active tblptr bytes
  5122  00CE54  6AF8               	clrf	tblptru,c
  5123  00CE56  0E00               	movlw	low (__mediumconst shr (0+16))
  5124  00CE58  22F8               	addwfc	tblptru,f,c
  5125  00CE5A                     	endif
  5126  00CE5A  0009               	tblrd		*+
  5127  00CE5C  006F FFD4  F00F    	movff	tablat,___flmul@b
  5128  00CE62  0009               	tblrd		*+
  5129  00CE64  006F FFD4  F010    	movff	tablat,___flmul@b+1
  5130  00CE6A  0009               	tblrd		*+
  5131  00CE6C  006F FFD4  F011    	movff	tablat,___flmul@b+2
  5132  00CE72  000A               	tblrd		*-
  5133  00CE74  006F FFD4  F012    	movff	tablat,___flmul@b+3
  5134  00CE7A  EC48  F06A         	call	___flmul	;wreg free
  5135  00CE7E  C00F  F030         	movff	?___flmul,_fround$1937
  5136  00CE82  C010  F031         	movff	?___flmul+1,_fround$1937+1
  5137  00CE86  C011  F032         	movff	?___flmul+2,_fround$1937+2
  5138  00CE8A  C012  F033         	movff	?___flmul+3,_fround$1937+3
  5139                           
  5140                           ;doprnt.c: 422: return 0.5 * _npowers_[prec/100U+18U] * _npowers_[(prec%100U)/10U+9U] * 
      +                          _npowers_[prec%10U];
  5141  00CE8E  0E00               	movlw	0
  5142  00CE90  6E09               	movwf	(___lwdiv@divisor+1)^0,c
  5143  00CE92  0E0A               	movlw	10
  5144  00CE94  6E08               	movwf	___lwdiv@divisor^0,c
  5145  00CE96  0E00               	movlw	0
  5146  00CE98  6E04               	movwf	(___lwmod@divisor+1)^0,c
  5147  00CE9A  0E64               	movlw	100
  5148  00CE9C  6E03               	movwf	___lwmod@divisor^0,c
  5149  00CE9E  C034  F001         	movff	fround@prec,___lwmod@dividend
  5150  00CEA2  6A02               	clrf	(___lwmod@dividend+1)^0,c
  5151  00CEA4  ECAE  F05F         	call	___lwmod	;wreg free
  5152  00CEA8  C001  F006         	movff	?___lwmod,___lwdiv@dividend
  5153  00CEAC  C002  F007         	movff	?___lwmod+1,___lwdiv@dividend+1
  5154  00CEB0  EC15  F060         	call	___lwdiv	;wreg free
  5155  00CEB4  90D8               	bcf	status,0,c
  5156  00CEB6  3606               	rlcf	?___lwdiv^0,f,c
  5157  00CEB8  3607               	rlcf	(?___lwdiv+1)^0,f,c
  5158  00CEBA  90D8               	bcf	status,0,c
  5159  00CEBC  3606               	rlcf	?___lwdiv^0,f,c
  5160  00CEBE  3607               	rlcf	(?___lwdiv+1)^0,f,c
  5161  00CEC0  0E24               	movlw	36
  5162  00CEC2  2606               	addwf	?___lwdiv^0,f,c
  5163  00CEC4  0E00               	movlw	0
  5164  00CEC6  2207               	addwfc	(?___lwdiv+1)^0,f,c
  5165  00CEC8  0EC1               	movlw	low __npowers_
  5166  00CECA  2406               	addwf	?___lwdiv^0,w,c
  5167  00CECC  6EF6               	movwf	tblptrl,c
  5168  00CECE  0EFD               	movlw	high __npowers_
  5169  00CED0  2007               	addwfc	(?___lwdiv+1)^0,w,c
  5170  00CED2  6EF7               	movwf	tblptrh,c
  5171  00CED4                     	if	1	;There are 3 active tblptr bytes
  5172  00CED4  6AF8               	clrf	tblptru,c
  5173  00CED6  0E00               	movlw	low (__mediumconst shr (0+16))
  5174  00CED8  22F8               	addwfc	tblptru,f,c
  5175  00CEDA                     	endif
  5176  00CEDA  0009               	tblrd		*+
  5177  00CEDC  006F FFD4  F013    	movff	tablat,___flmul@a
  5178  00CEE2  0009               	tblrd		*+
  5179  00CEE4  006F FFD4  F014    	movff	tablat,___flmul@a+1
  5180  00CEEA  0009               	tblrd		*+
  5181  00CEEC  006F FFD4  F015    	movff	tablat,___flmul@a+2
  5182  00CEF2  000A               	tblrd		*-
  5183  00CEF4  006F FFD4  F016    	movff	tablat,___flmul@a+3
  5184  00CEFA  C030  F00F         	movff	_fround$1937,___flmul@b
  5185  00CEFE  C031  F010         	movff	_fround$1937+1,___flmul@b+1
  5186  00CF02  C032  F011         	movff	_fround$1937+2,___flmul@b+2
  5187  00CF06  C033  F012         	movff	_fround$1937+3,___flmul@b+3
  5188  00CF0A  EC48  F06A         	call	___flmul	;wreg free
  5189  00CF0E  C00F  F02C         	movff	?___flmul,_fround$1938
  5190  00CF12  C010  F02D         	movff	?___flmul+1,_fround$1938+1
  5191  00CF16  C011  F02E         	movff	?___flmul+2,_fround$1938+2
  5192  00CF1A  C012  F02F         	movff	?___flmul+3,_fround$1938+3
  5193                           
  5194                           ;doprnt.c: 422: return 0.5 * _npowers_[prec/100U+18U] * _npowers_[(prec%100U)/10U+9U] * 
      +                          _npowers_[prec%10U];
  5195  00CF1E  C02C  F00F         	movff	_fround$1938,___flmul@b
  5196  00CF22  C02D  F010         	movff	_fround$1938+1,___flmul@b+1
  5197  00CF26  C02E  F011         	movff	_fround$1938+2,___flmul@b+2
  5198  00CF2A  C02F  F012         	movff	_fround$1938+3,___flmul@b+3
  5199  00CF2E  0E00               	movlw	0
  5200  00CF30  6E04               	movwf	(___lwmod@divisor+1)^0,c
  5201  00CF32  0E0A               	movlw	10
  5202  00CF34  6E03               	movwf	___lwmod@divisor^0,c
  5203  00CF36  C034  F001         	movff	fround@prec,___lwmod@dividend
  5204  00CF3A  6A02               	clrf	(___lwmod@dividend+1)^0,c
  5205  00CF3C  ECAE  F05F         	call	___lwmod	;wreg free
  5206  00CF40  90D8               	bcf	status,0,c
  5207  00CF42  3601               	rlcf	?___lwmod^0,f,c
  5208  00CF44  3602               	rlcf	(?___lwmod+1)^0,f,c
  5209  00CF46  90D8               	bcf	status,0,c
  5210  00CF48  3601               	rlcf	?___lwmod^0,f,c
  5211  00CF4A  3602               	rlcf	(?___lwmod+1)^0,f,c
  5212  00CF4C  0EC1               	movlw	low __npowers_
  5213  00CF4E  2401               	addwf	?___lwmod^0,w,c
  5214  00CF50  6EF6               	movwf	tblptrl,c
  5215  00CF52  0EFD               	movlw	high __npowers_
  5216  00CF54  2002               	addwfc	(?___lwmod+1)^0,w,c
  5217  00CF56  6EF7               	movwf	tblptrh,c
  5218  00CF58                     	if	1	;There are 3 active tblptr bytes
  5219  00CF58  6AF8               	clrf	tblptru,c
  5220  00CF5A  0E00               	movlw	low (__mediumconst shr (0+16))
  5221  00CF5C  22F8               	addwfc	tblptru,f,c
  5222  00CF5E                     	endif
  5223  00CF5E  0009               	tblrd		*+
  5224  00CF60  006F FFD4  F013    	movff	tablat,___flmul@a
  5225  00CF66  0009               	tblrd		*+
  5226  00CF68  006F FFD4  F014    	movff	tablat,___flmul@a+1
  5227  00CF6E  0009               	tblrd		*+
  5228  00CF70  006F FFD4  F015    	movff	tablat,___flmul@a+2
  5229  00CF76  000A               	tblrd		*-
  5230  00CF78  006F FFD4  F016    	movff	tablat,___flmul@a+3
  5231  00CF7E  EC48  F06A         	call	___flmul	;wreg free
  5232  00CF82  C00F  F028         	movff	?___flmul,?_fround
  5233  00CF86  C010  F029         	movff	?___flmul+1,?_fround+1
  5234  00CF8A  C011  F02A         	movff	?___flmul+2,?_fround+2
  5235  00CF8E  C012  F02B         	movff	?___flmul+3,?_fround+3
  5236  00CF92  EF7A  F068         	goto	l572
  5237  00CF96                     l3807:
  5238                           
  5239                           ;doprnt.c: 423: else if(prec > 10)
  5240  00CF96  0E0A               	movlw	10
  5241  00CF98  6434               	cpfsgt	fround@prec^0,c
  5242  00CF9A  EFD1  F067         	goto	u3441
  5243  00CF9E  EFD3  F067         	goto	u3440
  5244  00CFA2                     u3441:
  5245  00CFA2  EF4D  F068         	goto	l3813
  5246  00CFA6                     u3440:
  5247  00CFA6                     
  5248                           ;doprnt.c: 424: return 0.5 * _npowers_[prec/10U+9U] * _npowers_[prec%10U];
  5249  00CFA6  0E00               	movlw	0
  5250  00CFA8  6E13               	movwf	___flmul@a^0,c
  5251  00CFAA  0E00               	movlw	0
  5252  00CFAC  6E14               	movwf	(___flmul@a+1)^0,c
  5253  00CFAE  0E00               	movlw	0
  5254  00CFB0  6E15               	movwf	(___flmul@a+2)^0,c
  5255  00CFB2  0E3F               	movlw	63
  5256  00CFB4  6E16               	movwf	(___flmul@a+3)^0,c
  5257  00CFB6  0E00               	movlw	0
  5258  00CFB8  6E09               	movwf	(___lwdiv@divisor+1)^0,c
  5259  00CFBA  0E0A               	movlw	10
  5260  00CFBC  6E08               	movwf	___lwdiv@divisor^0,c
  5261  00CFBE  C034  F006         	movff	fround@prec,___lwdiv@dividend
  5262  00CFC2  6A07               	clrf	(___lwdiv@dividend+1)^0,c
  5263  00CFC4  EC15  F060         	call	___lwdiv	;wreg free
  5264  00CFC8  90D8               	bcf	status,0,c
  5265  00CFCA  3606               	rlcf	?___lwdiv^0,f,c
  5266  00CFCC  3607               	rlcf	(?___lwdiv+1)^0,f,c
  5267  00CFCE  90D8               	bcf	status,0,c
  5268  00CFD0  3606               	rlcf	?___lwdiv^0,f,c
  5269  00CFD2  3607               	rlcf	(?___lwdiv+1)^0,f,c
  5270  00CFD4  0E24               	movlw	36
  5271  00CFD6  2606               	addwf	?___lwdiv^0,f,c
  5272  00CFD8  0E00               	movlw	0
  5273  00CFDA  2207               	addwfc	(?___lwdiv+1)^0,f,c
  5274  00CFDC  0EC1               	movlw	low __npowers_
  5275  00CFDE  2406               	addwf	?___lwdiv^0,w,c
  5276  00CFE0  6EF6               	movwf	tblptrl,c
  5277  00CFE2  0EFD               	movlw	high __npowers_
  5278  00CFE4  2007               	addwfc	(?___lwdiv+1)^0,w,c
  5279  00CFE6  6EF7               	movwf	tblptrh,c
  5280  00CFE8                     	if	1	;There are 3 active tblptr bytes
  5281  00CFE8  6AF8               	clrf	tblptru,c
  5282  00CFEA  0E00               	movlw	low (__mediumconst shr (0+16))
  5283  00CFEC  22F8               	addwfc	tblptru,f,c
  5284  00CFEE                     	endif
  5285  00CFEE  0009               	tblrd		*+
  5286  00CFF0  006F FFD4  F00F    	movff	tablat,___flmul@b
  5287  00CFF6  0009               	tblrd		*+
  5288  00CFF8  006F FFD4  F010    	movff	tablat,___flmul@b+1
  5289  00CFFE  0009               	tblrd		*+
  5290  00D000  006F FFD4  F011    	movff	tablat,___flmul@b+2
  5291  00D006  000A               	tblrd		*-
  5292  00D008  006F FFD4  F012    	movff	tablat,___flmul@b+3
  5293  00D00E  EC48  F06A         	call	___flmul	;wreg free
  5294  00D012  C00F  F030         	movff	?___flmul,_fround$1937
  5295  00D016  C010  F031         	movff	?___flmul+1,_fround$1937+1
  5296  00D01A  C011  F032         	movff	?___flmul+2,_fround$1937+2
  5297  00D01E  C012  F033         	movff	?___flmul+3,_fround$1937+3
  5298                           
  5299                           ;doprnt.c: 424: return 0.5 * _npowers_[prec/10U+9U] * _npowers_[prec%10U];
  5300  00D022  C030  F00F         	movff	_fround$1937,___flmul@b
  5301  00D026  C031  F010         	movff	_fround$1937+1,___flmul@b+1
  5302  00D02A  C032  F011         	movff	_fround$1937+2,___flmul@b+2
  5303  00D02E  C033  F012         	movff	_fround$1937+3,___flmul@b+3
  5304  00D032  0E00               	movlw	0
  5305  00D034  6E04               	movwf	(___lwmod@divisor+1)^0,c
  5306  00D036  0E0A               	movlw	10
  5307  00D038  6E03               	movwf	___lwmod@divisor^0,c
  5308  00D03A  C034  F001         	movff	fround@prec,___lwmod@dividend
  5309  00D03E  6A02               	clrf	(___lwmod@dividend+1)^0,c
  5310  00D040  ECAE  F05F         	call	___lwmod	;wreg free
  5311  00D044  90D8               	bcf	status,0,c
  5312  00D046  3601               	rlcf	?___lwmod^0,f,c
  5313  00D048  3602               	rlcf	(?___lwmod+1)^0,f,c
  5314  00D04A  90D8               	bcf	status,0,c
  5315  00D04C  3601               	rlcf	?___lwmod^0,f,c
  5316  00D04E  3602               	rlcf	(?___lwmod+1)^0,f,c
  5317  00D050  0EC1               	movlw	low __npowers_
  5318  00D052  2401               	addwf	?___lwmod^0,w,c
  5319  00D054  6EF6               	movwf	tblptrl,c
  5320  00D056  0EFD               	movlw	high __npowers_
  5321  00D058  2002               	addwfc	(?___lwmod+1)^0,w,c
  5322  00D05A  6EF7               	movwf	tblptrh,c
  5323  00D05C                     	if	1	;There are 3 active tblptr bytes
  5324  00D05C  6AF8               	clrf	tblptru,c
  5325  00D05E  0E00               	movlw	low (__mediumconst shr (0+16))
  5326  00D060  22F8               	addwfc	tblptru,f,c
  5327  00D062                     	endif
  5328  00D062  0009               	tblrd		*+
  5329  00D064  006F FFD4  F013    	movff	tablat,___flmul@a
  5330  00D06A  0009               	tblrd		*+
  5331  00D06C  006F FFD4  F014    	movff	tablat,___flmul@a+1
  5332  00D072  0009               	tblrd		*+
  5333  00D074  006F FFD4  F015    	movff	tablat,___flmul@a+2
  5334  00D07A  000A               	tblrd		*-
  5335  00D07C  006F FFD4  F016    	movff	tablat,___flmul@a+3
  5336  00D082  EC48  F06A         	call	___flmul	;wreg free
  5337  00D086  C00F  F028         	movff	?___flmul,?_fround
  5338  00D08A  C010  F029         	movff	?___flmul+1,?_fround+1
  5339  00D08E  C011  F02A         	movff	?___flmul+2,?_fround+2
  5340  00D092  C012  F02B         	movff	?___flmul+3,?_fround+3
  5341  00D096  EF7A  F068         	goto	l572
  5342  00D09A                     l3813:
  5343                           
  5344                           ;doprnt.c: 425: return 0.5 * _npowers_[prec];
  5345  00D09A  5034               	movf	fround@prec^0,w,c
  5346  00D09C  0D04               	mullw	4
  5347  00D09E  0EC1               	movlw	low __npowers_
  5348  00D0A0  24F3               	addwf	243,w,c
  5349  00D0A2  6EF6               	movwf	tblptrl,c
  5350  00D0A4  0EFD               	movlw	high __npowers_
  5351  00D0A6  20F4               	addwfc	244,w,c
  5352  00D0A8  6EF7               	movwf	tblptrh,c
  5353  00D0AA                     	if	1	;There are 3 active tblptr bytes
  5354  00D0AA  6AF8               	clrf	tblptru,c
  5355  00D0AC  0E00               	movlw	low (__mediumconst shr (0+16))
  5356  00D0AE  22F8               	addwfc	tblptru,f,c
  5357  00D0B0                     	endif
  5358  00D0B0  0009               	tblrd		*+
  5359  00D0B2  006F FFD4  F00F    	movff	tablat,___flmul@b
  5360  00D0B8  0009               	tblrd		*+
  5361  00D0BA  006F FFD4  F010    	movff	tablat,___flmul@b+1
  5362  00D0C0  0009               	tblrd		*+
  5363  00D0C2  006F FFD4  F011    	movff	tablat,___flmul@b+2
  5364  00D0C8  000A               	tblrd		*-
  5365  00D0CA  006F FFD4  F012    	movff	tablat,___flmul@b+3
  5366  00D0D0  0E00               	movlw	0
  5367  00D0D2  6E13               	movwf	___flmul@a^0,c
  5368  00D0D4  0E00               	movlw	0
  5369  00D0D6  6E14               	movwf	(___flmul@a+1)^0,c
  5370  00D0D8  0E00               	movlw	0
  5371  00D0DA  6E15               	movwf	(___flmul@a+2)^0,c
  5372  00D0DC  0E3F               	movlw	63
  5373  00D0DE  6E16               	movwf	(___flmul@a+3)^0,c
  5374  00D0E0  EC48  F06A         	call	___flmul	;wreg free
  5375  00D0E4  C00F  F028         	movff	?___flmul,?_fround
  5376  00D0E8  C010  F029         	movff	?___flmul+1,?_fround+1
  5377  00D0EC  C011  F02A         	movff	?___flmul+2,?_fround+2
  5378  00D0F0  C012  F02B         	movff	?___flmul+3,?_fround+3
  5379  00D0F4                     l572:
  5380  00D0F4  0012               	return		;funcret
  5381  00D0F6                     __end_of_fround:
  5382                           	callstack 0
  5383                           
  5384 ;; *************** function ___lwmod *****************
  5385 ;; Defined at:
  5386 ;;		line 7 in file "C:\Program Files\Microchip\xc8\v2.30\pic\sources\c90\common\lwmod.c"
  5387 ;; Parameters:    Size  Location     Type
  5388 ;;  dividend        2    0[COMRAM] unsigned int 
  5389 ;;  divisor         2    2[COMRAM] unsigned int 
  5390 ;; Auto vars:     Size  Location     Type
  5391 ;;  counter         1    4[COMRAM] unsigned char 
  5392 ;; Return value:  Size  Location     Type
  5393 ;;                  2    0[COMRAM] unsigned int 
  5394 ;; Registers used:
  5395 ;;		wreg, status,2, status,0
  5396 ;; Tracked objects:
  5397 ;;		On entry : 0/0
  5398 ;;		On exit  : 0/0
  5399 ;;		Unchanged: 0/0
  5400 ;; Data sizes:     COMRAM   BANK0   BANK1   BANK2   BANK3   BANK4   BANK5   BANK6   BANK7   BANK8   BANK9  BANK10  BANK1
      +1  BANK12  BANK13  BANK14  BANK15
  5401 ;;      Params:         4       0       0       0       0       0       0       0       0       0       0       0       
      +0       0       0       0       0
  5402 ;;      Locals:         1       0       0       0       0       0       0       0       0       0       0       0       
      +0       0       0       0       0
  5403 ;;      Temps:          0       0       0       0       0       0       0       0       0       0       0       0       
      +0       0       0       0       0
  5404 ;;      Totals:         5       0       0       0       0       0       0       0       0       0       0       0       
      +0       0       0       0       0
  5405 ;;Total ram usage:        5 bytes
  5406 ;; Hardware stack levels used:    1
  5407 ;; This function calls:
  5408 ;;		Nothing
  5409 ;; This function is called by:
  5410 ;;		_fround
  5411 ;; This function uses a non-reentrant model
  5412 ;;
  5413                           
  5414                           	psect	text9
  5415  00BF5C                     __ptext9:
  5416                           	callstack 0
  5417  00BF5C                     ___lwmod:
  5418                           	callstack 28
  5419  00BF5C  5003               	movf	___lwmod@divisor^0,w,c
  5420  00BF5E  1004               	iorwf	(___lwmod@divisor+1)^0,w,c
  5421  00BF60  B4D8               	btfsc	status,2,c
  5422  00BF62  EFB5  F05F         	goto	u3401
  5423  00BF66  EFB7  F05F         	goto	u3400
  5424  00BF6A                     u3401:
  5425  00BF6A  EFDB  F05F         	goto	l1173
  5426  00BF6E                     u3400:
  5427  00BF6E  0E01               	movlw	1
  5428  00BF70  6E05               	movwf	___lwmod@counter^0,c
  5429  00BF72  EFBF  F05F         	goto	l3781
  5430  00BF76                     l3779:
  5431  00BF76  90D8               	bcf	status,0,c
  5432  00BF78  3603               	rlcf	___lwmod@divisor^0,f,c
  5433  00BF7A  3604               	rlcf	(___lwmod@divisor+1)^0,f,c
  5434  00BF7C  2A05               	incf	___lwmod@counter^0,f,c
  5435  00BF7E                     l3781:
  5436  00BF7E  AE04               	btfss	(___lwmod@divisor+1)^0,7,c
  5437  00BF80  EFC4  F05F         	goto	u3411
  5438  00BF84  EFC6  F05F         	goto	u3410
  5439  00BF88                     u3411:
  5440  00BF88  EFBB  F05F         	goto	l3779
  5441  00BF8C                     u3410:
  5442  00BF8C                     l3783:
  5443  00BF8C  5003               	movf	___lwmod@divisor^0,w,c
  5444  00BF8E  5C01               	subwf	___lwmod@dividend^0,w,c
  5445  00BF90  5004               	movf	(___lwmod@divisor+1)^0,w,c
  5446  00BF92  5802               	subwfb	(___lwmod@dividend+1)^0,w,c
  5447  00BF94  A0D8               	btfss	status,0,c
  5448  00BF96  EFCF  F05F         	goto	u3421
  5449  00BF9A  EFD1  F05F         	goto	u3420
  5450  00BF9E                     u3421:
  5451  00BF9E  EFD5  F05F         	goto	l3787
  5452  00BFA2                     u3420:
  5453  00BFA2  5003               	movf	___lwmod@divisor^0,w,c
  5454  00BFA4  5E01               	subwf	___lwmod@dividend^0,f,c
  5455  00BFA6  5004               	movf	(___lwmod@divisor+1)^0,w,c
  5456  00BFA8  5A02               	subwfb	(___lwmod@dividend+1)^0,f,c
  5457  00BFAA                     l3787:
  5458  00BFAA  90D8               	bcf	status,0,c
  5459  00BFAC  3204               	rrcf	(___lwmod@divisor+1)^0,f,c
  5460  00BFAE  3203               	rrcf	___lwmod@divisor^0,f,c
  5461  00BFB0  2E05               	decfsz	___lwmod@counter^0,f,c
  5462  00BFB2  EFC6  F05F         	goto	l3783
  5463  00BFB6                     l1173:
  5464  00BFB6  C001  F001         	movff	___lwmod@dividend,?___lwmod
  5465  00BFBA  C002  F002         	movff	___lwmod@dividend+1,?___lwmod+1
  5466  00BFBE  0012               	return		;funcret
  5467  00BFC0                     __end_of___lwmod:
  5468                           	callstack 0
  5469                           
  5470 ;; *************** function ___lwdiv *****************
  5471 ;; Defined at:
  5472 ;;		line 7 in file "C:\Program Files\Microchip\xc8\v2.30\pic\sources\c90\common\lwdiv.c"
  5473 ;; Parameters:    Size  Location     Type
  5474 ;;  dividend        2    5[COMRAM] unsigned int 
  5475 ;;  divisor         2    7[COMRAM] unsigned int 
  5476 ;; Auto vars:     Size  Location     Type
  5477 ;;  quotient        2    9[COMRAM] unsigned int 
  5478 ;;  counter         1   11[COMRAM] unsigned char 
  5479 ;; Return value:  Size  Location     Type
  5480 ;;                  2    5[COMRAM] unsigned int 
  5481 ;; Registers used:
  5482 ;;		wreg, status,2, status,0
  5483 ;; Tracked objects:
  5484 ;;		On entry : 0/0
  5485 ;;		On exit  : 0/0
  5486 ;;		Unchanged: 0/0
  5487 ;; Data sizes:     COMRAM   BANK0   BANK1   BANK2   BANK3   BANK4   BANK5   BANK6   BANK7   BANK8   BANK9  BANK10  BANK1
      +1  BANK12  BANK13  BANK14  BANK15
  5488 ;;      Params:         4       0       0       0       0       0       0       0       0       0       0       0       
      +0       0       0       0       0
  5489 ;;      Locals:         3       0       0       0       0       0       0       0       0       0       0       0       
      +0       0       0       0       0
  5490 ;;      Temps:          0       0       0       0       0       0       0       0       0       0       0       0       
      +0       0       0       0       0
  5491 ;;      Totals:         7       0       0       0       0       0       0       0       0       0       0       0       
      +0       0       0       0       0
  5492 ;;Total ram usage:        7 bytes
  5493 ;; Hardware stack levels used:    1
  5494 ;; This function calls:
  5495 ;;		Nothing
  5496 ;; This function is called by:
  5497 ;;		_fround
  5498 ;; This function uses a non-reentrant model
  5499 ;;
  5500                           
  5501                           	psect	text10
  5502  00C02A                     __ptext10:
  5503                           	callstack 0
  5504  00C02A                     ___lwdiv:
  5505                           	callstack 28
  5506  00C02A  0E00               	movlw	0
  5507  00C02C  6E0B               	movwf	(___lwdiv@quotient+1)^0,c
  5508  00C02E  0E00               	movlw	0
  5509  00C030  6E0A               	movwf	___lwdiv@quotient^0,c
  5510  00C032  5008               	movf	___lwdiv@divisor^0,w,c
  5511  00C034  1009               	iorwf	(___lwdiv@divisor+1)^0,w,c
  5512  00C036  B4D8               	btfsc	status,2,c
  5513  00C038  EF20  F060         	goto	u3371
  5514  00C03C  EF22  F060         	goto	u3370
  5515  00C040                     u3371:
  5516  00C040  EF4A  F060         	goto	l1163
  5517  00C044                     u3370:
  5518  00C044  0E01               	movlw	1
  5519  00C046  6E0C               	movwf	___lwdiv@counter^0,c
  5520  00C048  EF2A  F060         	goto	l3761
  5521  00C04C                     l3759:
  5522  00C04C  90D8               	bcf	status,0,c
  5523  00C04E  3608               	rlcf	___lwdiv@divisor^0,f,c
  5524  00C050  3609               	rlcf	(___lwdiv@divisor+1)^0,f,c
  5525  00C052  2A0C               	incf	___lwdiv@counter^0,f,c
  5526  00C054                     l3761:
  5527  00C054  AE09               	btfss	(___lwdiv@divisor+1)^0,7,c
  5528  00C056  EF2F  F060         	goto	u3381
  5529  00C05A  EF31  F060         	goto	u3380
  5530  00C05E                     u3381:
  5531  00C05E  EF26  F060         	goto	l3759
  5532  00C062                     u3380:
  5533  00C062                     l3763:
  5534  00C062  90D8               	bcf	status,0,c
  5535  00C064  360A               	rlcf	___lwdiv@quotient^0,f,c
  5536  00C066  360B               	rlcf	(___lwdiv@quotient+1)^0,f,c
  5537  00C068  5008               	movf	___lwdiv@divisor^0,w,c
  5538  00C06A  5C06               	subwf	___lwdiv@dividend^0,w,c
  5539  00C06C  5009               	movf	(___lwdiv@divisor+1)^0,w,c
  5540  00C06E  5807               	subwfb	(___lwdiv@dividend+1)^0,w,c
  5541  00C070  A0D8               	btfss	status,0,c
  5542  00C072  EF3D  F060         	goto	u3391
  5543  00C076  EF3F  F060         	goto	u3390
  5544  00C07A                     u3391:
  5545  00C07A  EF44  F060         	goto	l3771
  5546  00C07E                     u3390:
  5547  00C07E  5008               	movf	___lwdiv@divisor^0,w,c
  5548  00C080  5E06               	subwf	___lwdiv@dividend^0,f,c
  5549  00C082  5009               	movf	(___lwdiv@divisor+1)^0,w,c
  5550  00C084  5A07               	subwfb	(___lwdiv@dividend+1)^0,f,c
  5551  00C086  800A               	bsf	___lwdiv@quotient^0,0,c
  5552  00C088                     l3771:
  5553  00C088  90D8               	bcf	status,0,c
  5554  00C08A  3209               	rrcf	(___lwdiv@divisor+1)^0,f,c
  5555  00C08C  3208               	rrcf	___lwdiv@divisor^0,f,c
  5556  00C08E  2E0C               	decfsz	___lwdiv@counter^0,f,c
  5557  00C090  EF31  F060         	goto	l3763
  5558  00C094                     l1163:
  5559  00C094  C00A  F006         	movff	___lwdiv@quotient,?___lwdiv
  5560  00C098  C00B  F007         	movff	___lwdiv@quotient+1,?___lwdiv+1
  5561  00C09C  0012               	return		;funcret
  5562  00C09E                     __end_of___lwdiv:
  5563                           	callstack 0
  5564                           
  5565 ;; *************** function __tdiv_to_l_ *****************
  5566 ;; Defined at:
  5567 ;;		line 60 in file "C:\Program Files\Microchip\xc8\v2.30\pic\sources\c90\common\ftdivl.c"
  5568 ;; Parameters:    Size  Location     Type
  5569 ;;  f1              4    0[COMRAM] float 
  5570 ;;  f2              4    4[COMRAM] float 
  5571 ;; Auto vars:     Size  Location     Type
  5572 ;;  quot            4   11[COMRAM] unsigned long 
  5573 ;;  exp1            1   16[COMRAM] unsigned char 
  5574 ;;  cntr            1   15[COMRAM] unsigned char 
  5575 ;; Return value:  Size  Location     Type
  5576 ;;                  4    0[COMRAM] unsigned long 
  5577 ;; Registers used:
  5578 ;;		wreg, status,2, status,0
  5579 ;; Tracked objects:
  5580 ;;		On entry : 0/0
  5581 ;;		On exit  : 0/0
  5582 ;;		Unchanged: 0/0
  5583 ;; Data sizes:     COMRAM   BANK0   BANK1   BANK2   BANK3   BANK4   BANK5   BANK6   BANK7   BANK8   BANK9  BANK10  BANK1
      +1  BANK12  BANK13  BANK14  BANK15
  5584 ;;      Params:         8       0       0       0       0       0       0       0       0       0       0       0       
      +0       0       0       0       0
  5585 ;;      Locals:         6       0       0       0       0       0       0       0       0       0       0       0       
      +0       0       0       0       0
  5586 ;;      Temps:          3       0       0       0       0       0       0       0       0       0       0       0       
      +0       0       0       0       0
  5587 ;;      Totals:        17       0       0       0       0       0       0       0       0       0       0       0       
      +0       0       0       0       0
  5588 ;;Total ram usage:       17 bytes
  5589 ;; Hardware stack levels used:    1
  5590 ;; This function calls:
  5591 ;;		Nothing
  5592 ;; This function is called by:
  5593 ;;		_printf
  5594 ;; This function uses a non-reentrant model
  5595 ;;
  5596                           
  5597                           	psect	text11
  5598  00CAF6                     __ptext11:
  5599                           	callstack 0
  5600  00CAF6                     __tdiv_to_l_:
  5601                           	callstack 29
  5602  00CAF6  C003  F009         	movff	__tdiv_to_l_@f1+2,??__tdiv_to_l_
  5603  00CAFA  6A0A               	clrf	(??__tdiv_to_l_+1)^0,c
  5604  00CAFC  6A0B               	clrf	(??__tdiv_to_l_+2)^0,c
  5605  00CAFE  3402               	rlcf	(__tdiv_to_l_@f1+1)^0,w,c
  5606  00CB00  3609               	rlcf	??__tdiv_to_l_^0,f,c
  5607  00CB02  E301               	bnc	u3501
  5608  00CB04  800A               	bsf	(??__tdiv_to_l_+1)^0,0,c
  5609  00CB06                     u3501:
  5610  00CB06  5009               	movf	??__tdiv_to_l_^0,w,c
  5611  00CB08  6E11               	movwf	__tdiv_to_l_@exp1^0,c
  5612  00CB0A  5011               	movf	__tdiv_to_l_@exp1^0,w,c
  5613  00CB0C  A4D8               	btfss	status,2,c
  5614  00CB0E  EF8B  F065         	goto	u3511
  5615  00CB12  EF8D  F065         	goto	u3510
  5616  00CB16                     u3511:
  5617  00CB16  EF97  F065         	goto	l3861
  5618  00CB1A                     u3510:
  5619  00CB1A                     l3857:
  5620  00CB1A  0E00               	movlw	0
  5621  00CB1C  6E01               	movwf	?__tdiv_to_l_^0,c
  5622  00CB1E  0E00               	movlw	0
  5623  00CB20  6E02               	movwf	(?__tdiv_to_l_+1)^0,c
  5624  00CB22  0E00               	movlw	0
  5625  00CB24  6E03               	movwf	(?__tdiv_to_l_+2)^0,c
  5626  00CB26  0E00               	movlw	0
  5627  00CB28  6E04               	movwf	(?__tdiv_to_l_+3)^0,c
  5628  00CB2A  EF25  F066         	goto	l1013
  5629  00CB2E                     l3861:
  5630  00CB2E  C007  F009         	movff	__tdiv_to_l_@f2+2,??__tdiv_to_l_
  5631  00CB32  6A0A               	clrf	(??__tdiv_to_l_+1)^0,c
  5632  00CB34  6A0B               	clrf	(??__tdiv_to_l_+2)^0,c
  5633  00CB36  3406               	rlcf	(__tdiv_to_l_@f2+1)^0,w,c
  5634  00CB38  3609               	rlcf	??__tdiv_to_l_^0,f,c
  5635  00CB3A  E301               	bnc	u3521
  5636  00CB3C  800A               	bsf	(??__tdiv_to_l_+1)^0,0,c
  5637  00CB3E                     u3521:
  5638  00CB3E  5009               	movf	??__tdiv_to_l_^0,w,c
  5639  00CB40  6E10               	movwf	__tdiv_to_l_@cntr^0,c
  5640  00CB42  5010               	movf	__tdiv_to_l_@cntr^0,w,c
  5641  00CB44  A4D8               	btfss	status,2,c
  5642  00CB46  EFA7  F065         	goto	u3531
  5643  00CB4A  EFA9  F065         	goto	u3530
  5644  00CB4E                     u3531:
  5645  00CB4E  EFAB  F065         	goto	l3867
  5646  00CB52                     u3530:
  5647  00CB52  EF8D  F065         	goto	l3857
  5648  00CB56                     l3867:
  5649  00CB56  8E02               	bsf	(__tdiv_to_l_@f1+1)^0,7,c
  5650  00CB58  0EFF               	movlw	255
  5651  00CB5A  1601               	andwf	__tdiv_to_l_@f1^0,f,c
  5652  00CB5C  0EFF               	movlw	255
  5653  00CB5E  1602               	andwf	(__tdiv_to_l_@f1+1)^0,f,c
  5654  00CB60  0E00               	movlw	0
  5655  00CB62  1603               	andwf	(__tdiv_to_l_@f1+2)^0,f,c
  5656  00CB64  8E06               	bsf	(__tdiv_to_l_@f2+1)^0,7,c
  5657  00CB66  0EFF               	movlw	255
  5658  00CB68  1605               	andwf	__tdiv_to_l_@f2^0,f,c
  5659  00CB6A  0EFF               	movlw	255
  5660  00CB6C  1606               	andwf	(__tdiv_to_l_@f2+1)^0,f,c
  5661  00CB6E  0E00               	movlw	0
  5662  00CB70  1607               	andwf	(__tdiv_to_l_@f2+2)^0,f,c
  5663  00CB72  0E00               	movlw	0
  5664  00CB74  6E0C               	movwf	__tdiv_to_l_@quot^0,c
  5665  00CB76  0E00               	movlw	0
  5666  00CB78  6E0D               	movwf	(__tdiv_to_l_@quot+1)^0,c
  5667  00CB7A  0E00               	movlw	0
  5668  00CB7C  6E0E               	movwf	(__tdiv_to_l_@quot+2)^0,c
  5669  00CB7E  0E00               	movlw	0
  5670  00CB80  6E0F               	movwf	(__tdiv_to_l_@quot+3)^0,c
  5671  00CB82  0E7F               	movlw	127
  5672  00CB84  5E11               	subwf	__tdiv_to_l_@exp1^0,f,c
  5673  00CB86  5010               	movf	__tdiv_to_l_@cntr^0,w,c
  5674  00CB88  0F98               	addlw	152
  5675  00CB8A  5E11               	subwf	__tdiv_to_l_@exp1^0,f,c
  5676  00CB8C  0E18               	movlw	24
  5677  00CB8E  6E10               	movwf	__tdiv_to_l_@cntr^0,c
  5678  00CB90                     l1015:
  5679  00CB90  90D8               	bcf	status,0,c
  5680  00CB92  360C               	rlcf	__tdiv_to_l_@quot^0,f,c
  5681  00CB94  360D               	rlcf	(__tdiv_to_l_@quot+1)^0,f,c
  5682  00CB96  360E               	rlcf	(__tdiv_to_l_@quot+2)^0,f,c
  5683  00CB98  360F               	rlcf	(__tdiv_to_l_@quot+3)^0,f,c
  5684  00CB9A  5005               	movf	__tdiv_to_l_@f2^0,w,c
  5685  00CB9C  5C01               	subwf	__tdiv_to_l_@f1^0,w,c
  5686  00CB9E  5006               	movf	(__tdiv_to_l_@f2+1)^0,w,c
  5687  00CBA0  5802               	subwfb	(__tdiv_to_l_@f1+1)^0,w,c
  5688  00CBA2  5007               	movf	(__tdiv_to_l_@f2+2)^0,w,c
  5689  00CBA4  5803               	subwfb	(__tdiv_to_l_@f1+2)^0,w,c
  5690  00CBA6  A0D8               	btfss	status,0,c
  5691  00CBA8  EFD8  F065         	goto	u3541
  5692  00CBAC  EFDA  F065         	goto	u3540
  5693  00CBB0                     u3541:
  5694  00CBB0  EFE1  F065         	goto	l1016
  5695  00CBB4                     u3540:
  5696  00CBB4  5005               	movf	__tdiv_to_l_@f2^0,w,c
  5697  00CBB6  5E01               	subwf	__tdiv_to_l_@f1^0,f,c
  5698  00CBB8  5006               	movf	(__tdiv_to_l_@f2+1)^0,w,c
  5699  00CBBA  5A02               	subwfb	(__tdiv_to_l_@f1+1)^0,f,c
  5700  00CBBC  5007               	movf	(__tdiv_to_l_@f2+2)^0,w,c
  5701  00CBBE  5A03               	subwfb	(__tdiv_to_l_@f1+2)^0,f,c
  5702  00CBC0  800C               	bsf	__tdiv_to_l_@quot^0,0,c
  5703  00CBC2                     l1016:
  5704  00CBC2  90D8               	bcf	status,0,c
  5705  00CBC4  3601               	rlcf	__tdiv_to_l_@f1^0,f,c
  5706  00CBC6  3602               	rlcf	(__tdiv_to_l_@f1+1)^0,f,c
  5707  00CBC8  3603               	rlcf	(__tdiv_to_l_@f1+2)^0,f,c
  5708  00CBCA  2E10               	decfsz	__tdiv_to_l_@cntr^0,f,c
  5709  00CBCC  EFC8  F065         	goto	l1015
  5710  00CBD0  BE11               	btfsc	__tdiv_to_l_@exp1^0,7,c
  5711  00CBD2  EFEF  F065         	goto	u3550
  5712  00CBD6  EFED  F065         	goto	u3551
  5713  00CBDA                     u3551:
  5714  00CBDA  EF05  F066         	goto	l3901
  5715  00CBDE                     u3550:
  5716  00CBDE  5011               	movf	__tdiv_to_l_@exp1^0,w,c
  5717  00CBE0  0A80               	xorlw	128
  5718  00CBE2  0F97               	addlw	151
  5719  00CBE4  B0D8               	btfsc	status,0,c
  5720  00CBE6  EFF7  F065         	goto	u3561
  5721  00CBEA  EFF9  F065         	goto	u3560
  5722  00CBEE                     u3561:
  5723  00CBEE  EFFB  F065         	goto	l3897
  5724  00CBF2                     u3560:
  5725  00CBF2  EF8D  F065         	goto	l3857
  5726  00CBF6                     l3897:
  5727  00CBF6  90D8               	bcf	status,0,c
  5728  00CBF8  320F               	rrcf	(__tdiv_to_l_@quot+3)^0,f,c
  5729  00CBFA  320E               	rrcf	(__tdiv_to_l_@quot+2)^0,f,c
  5730  00CBFC  320D               	rrcf	(__tdiv_to_l_@quot+1)^0,f,c
  5731  00CBFE  320C               	rrcf	__tdiv_to_l_@quot^0,f,c
  5732  00CC00  3E11               	incfsz	__tdiv_to_l_@exp1^0,f,c
  5733  00CC02  EFFB  F065         	goto	l3897
  5734  00CC06  EF1D  F066         	goto	l1022
  5735  00CC0A                     l3901:
  5736  00CC0A  0E17               	movlw	23
  5737  00CC0C  6411               	cpfsgt	__tdiv_to_l_@exp1^0,c
  5738  00CC0E  EF0B  F066         	goto	u3571
  5739  00CC12  EF0D  F066         	goto	u3570
  5740  00CC16                     u3571:
  5741  00CC16  EF15  F066         	goto	l3909
  5742  00CC1A                     u3570:
  5743  00CC1A  EF8D  F065         	goto	l3857
  5744  00CC1E                     l3907:
  5745  00CC1E  90D8               	bcf	status,0,c
  5746  00CC20  360C               	rlcf	__tdiv_to_l_@quot^0,f,c
  5747  00CC22  360D               	rlcf	(__tdiv_to_l_@quot+1)^0,f,c
  5748  00CC24  360E               	rlcf	(__tdiv_to_l_@quot+2)^0,f,c
  5749  00CC26  360F               	rlcf	(__tdiv_to_l_@quot+3)^0,f,c
  5750  00CC28  0611               	decf	__tdiv_to_l_@exp1^0,f,c
  5751  00CC2A                     l3909:
  5752  00CC2A  5011               	movf	__tdiv_to_l_@exp1^0,w,c
  5753  00CC2C  A4D8               	btfss	status,2,c
  5754  00CC2E  EF1B  F066         	goto	u3581
  5755  00CC32  EF1D  F066         	goto	u3580
  5756  00CC36                     u3581:
  5757  00CC36  EF0F  F066         	goto	l3907
  5758  00CC3A                     u3580:
  5759  00CC3A                     l1022:
  5760  00CC3A  C00C  F001         	movff	__tdiv_to_l_@quot,?__tdiv_to_l_
  5761  00CC3E  C00D  F002         	movff	__tdiv_to_l_@quot+1,?__tdiv_to_l_+1
  5762  00CC42  C00E  F003         	movff	__tdiv_to_l_@quot+2,?__tdiv_to_l_+2
  5763  00CC46  C00F  F004         	movff	__tdiv_to_l_@quot+3,?__tdiv_to_l_+3
  5764  00CC4A                     l1013:
  5765  00CC4A  0012               	return		;funcret
  5766  00CC4C                     __end_of__tdiv_to_l_:
  5767                           	callstack 0
  5768                           
  5769 ;; *************** function __div_to_l_ *****************
  5770 ;; Defined at:
  5771 ;;		line 60 in file "C:\Program Files\Microchip\xc8\v2.30\pic\sources\c90\common\fldivl.c"
  5772 ;; Parameters:    Size  Location     Type
  5773 ;;  f1              4    0[COMRAM] unsigned long 
  5774 ;;  f2              4    4[COMRAM] unsigned long 
  5775 ;; Auto vars:     Size  Location     Type
  5776 ;;  quot            4    8[COMRAM] unsigned long 
  5777 ;;  exp1            1   13[COMRAM] unsigned char 
  5778 ;;  cntr            1   12[COMRAM] unsigned char 
  5779 ;; Return value:  Size  Location     Type
  5780 ;;                  4    0[COMRAM] unsigned long 
  5781 ;; Registers used:
  5782 ;;		wreg, status,2, status,0
  5783 ;; Tracked objects:
  5784 ;;		On entry : 0/0
  5785 ;;		On exit  : 0/0
  5786 ;;		Unchanged: 0/0
  5787 ;; Data sizes:     COMRAM   BANK0   BANK1   BANK2   BANK3   BANK4   BANK5   BANK6   BANK7   BANK8   BANK9  BANK10  BANK1
      +1  BANK12  BANK13  BANK14  BANK15
  5788 ;;      Params:         8       0       0       0       0       0       0       0       0       0       0       0       
      +0       0       0       0       0
  5789 ;;      Locals:         6       0       0       0       0       0       0       0       0       0       0       0       
      +0       0       0       0       0
  5790 ;;      Temps:          0       0       0       0       0       0       0       0       0       0       0       0       
      +0       0       0       0       0
  5791 ;;      Totals:        14       0       0       0       0       0       0       0       0       0       0       0       
      +0       0       0       0       0
  5792 ;;Total ram usage:       14 bytes
  5793 ;; Hardware stack levels used:    1
  5794 ;; This function calls:
  5795 ;;		Nothing
  5796 ;; This function is called by:
  5797 ;;		_printf
  5798 ;; This function uses a non-reentrant model
  5799 ;;
  5800                           
  5801                           	psect	text12
  5802  00C9AA                     __ptext12:
  5803                           	callstack 0
  5804  00C9AA                     __div_to_l_:
  5805                           	callstack 29
  5806  00C9AA  3403               	rlcf	(__div_to_l_@f1+2)^0,w,c
  5807  00C9AC  3404               	rlcf	(__div_to_l_@f1+3)^0,w,c
  5808  00C9AE  6E0E               	movwf	__div_to_l_@exp1^0,c
  5809  00C9B0  500E               	movf	__div_to_l_@exp1^0,w,c
  5810  00C9B2  A4D8               	btfss	status,2,c
  5811  00C9B4  EFDE  F064         	goto	u3591
  5812  00C9B8  EFE0  F064         	goto	u3590
  5813  00C9BC                     u3591:
  5814  00C9BC  EFEA  F064         	goto	l3917
  5815  00C9C0                     u3590:
  5816  00C9C0                     l3913:
  5817  00C9C0  0E00               	movlw	0
  5818  00C9C2  6E01               	movwf	?__div_to_l_^0,c
  5819  00C9C4  0E00               	movlw	0
  5820  00C9C6  6E02               	movwf	(?__div_to_l_+1)^0,c
  5821  00C9C8  0E00               	movlw	0
  5822  00C9CA  6E03               	movwf	(?__div_to_l_+2)^0,c
  5823  00C9CC  0E00               	movlw	0
  5824  00C9CE  6E04               	movwf	(?__div_to_l_+3)^0,c
  5825  00C9D0  EF7A  F065         	goto	l904
  5826  00C9D4                     l3917:
  5827  00C9D4  3407               	rlcf	(__div_to_l_@f2+2)^0,w,c
  5828  00C9D6  3408               	rlcf	(__div_to_l_@f2+3)^0,w,c
  5829  00C9D8  6E0D               	movwf	__div_to_l_@cntr^0,c
  5830  00C9DA  500D               	movf	__div_to_l_@cntr^0,w,c
  5831  00C9DC  A4D8               	btfss	status,2,c
  5832  00C9DE  EFF3  F064         	goto	u3601
  5833  00C9E2  EFF5  F064         	goto	u3600
  5834  00C9E6                     u3601:
  5835  00C9E6  EFF7  F064         	goto	l3923
  5836  00C9EA                     u3600:
  5837  00C9EA  EFE0  F064         	goto	l3913
  5838  00C9EE                     l3923:
  5839  00C9EE  8E03               	bsf	(__div_to_l_@f1+2)^0,7,c
  5840  00C9F0  0EFF               	movlw	255
  5841  00C9F2  1601               	andwf	__div_to_l_@f1^0,f,c
  5842  00C9F4  0EFF               	movlw	255
  5843  00C9F6  1602               	andwf	(__div_to_l_@f1+1)^0,f,c
  5844  00C9F8  0EFF               	movlw	255
  5845  00C9FA  1603               	andwf	(__div_to_l_@f1+2)^0,f,c
  5846  00C9FC  0E00               	movlw	0
  5847  00C9FE  1604               	andwf	(__div_to_l_@f1+3)^0,f,c
  5848  00CA00  8E07               	bsf	(__div_to_l_@f2+2)^0,7,c
  5849  00CA02  0EFF               	movlw	255
  5850  00CA04  1605               	andwf	__div_to_l_@f2^0,f,c
  5851  00CA06  0EFF               	movlw	255
  5852  00CA08  1606               	andwf	(__div_to_l_@f2+1)^0,f,c
  5853  00CA0A  0EFF               	movlw	255
  5854  00CA0C  1607               	andwf	(__div_to_l_@f2+2)^0,f,c
  5855  00CA0E  0E00               	movlw	0
  5856  00CA10  1608               	andwf	(__div_to_l_@f2+3)^0,f,c
  5857  00CA12  0E00               	movlw	0
  5858  00CA14  6E09               	movwf	__div_to_l_@quot^0,c
  5859  00CA16  0E00               	movlw	0
  5860  00CA18  6E0A               	movwf	(__div_to_l_@quot+1)^0,c
  5861  00CA1A  0E00               	movlw	0
  5862  00CA1C  6E0B               	movwf	(__div_to_l_@quot+2)^0,c
  5863  00CA1E  0E00               	movlw	0
  5864  00CA20  6E0C               	movwf	(__div_to_l_@quot+3)^0,c
  5865  00CA22  0E7F               	movlw	127
  5866  00CA24  5E0E               	subwf	__div_to_l_@exp1^0,f,c
  5867  00CA26  500D               	movf	__div_to_l_@cntr^0,w,c
  5868  00CA28  0FA0               	addlw	160
  5869  00CA2A  5E0E               	subwf	__div_to_l_@exp1^0,f,c
  5870  00CA2C  0E20               	movlw	32
  5871  00CA2E  6E0D               	movwf	__div_to_l_@cntr^0,c
  5872  00CA30                     l3937:
  5873  00CA30  90D8               	bcf	status,0,c
  5874  00CA32  3609               	rlcf	__div_to_l_@quot^0,f,c
  5875  00CA34  360A               	rlcf	(__div_to_l_@quot+1)^0,f,c
  5876  00CA36  360B               	rlcf	(__div_to_l_@quot+2)^0,f,c
  5877  00CA38  360C               	rlcf	(__div_to_l_@quot+3)^0,f,c
  5878  00CA3A  5005               	movf	__div_to_l_@f2^0,w,c
  5879  00CA3C  5C01               	subwf	__div_to_l_@f1^0,w,c
  5880  00CA3E  5006               	movf	(__div_to_l_@f2+1)^0,w,c
  5881  00CA40  5802               	subwfb	(__div_to_l_@f1+1)^0,w,c
  5882  00CA42  5007               	movf	(__div_to_l_@f2+2)^0,w,c
  5883  00CA44  5803               	subwfb	(__div_to_l_@f1+2)^0,w,c
  5884  00CA46  5008               	movf	(__div_to_l_@f2+3)^0,w,c
  5885  00CA48  5804               	subwfb	(__div_to_l_@f1+3)^0,w,c
  5886  00CA4A  A0D8               	btfss	status,0,c
  5887  00CA4C  EF2A  F065         	goto	u3611
  5888  00CA50  EF2C  F065         	goto	u3610
  5889  00CA54                     u3611:
  5890  00CA54  EF35  F065         	goto	l3945
  5891  00CA58                     u3610:
  5892  00CA58  5005               	movf	__div_to_l_@f2^0,w,c
  5893  00CA5A  5E01               	subwf	__div_to_l_@f1^0,f,c
  5894  00CA5C  5006               	movf	(__div_to_l_@f2+1)^0,w,c
  5895  00CA5E  5A02               	subwfb	(__div_to_l_@f1+1)^0,f,c
  5896  00CA60  5007               	movf	(__div_to_l_@f2+2)^0,w,c
  5897  00CA62  5A03               	subwfb	(__div_to_l_@f1+2)^0,f,c
  5898  00CA64  5008               	movf	(__div_to_l_@f2+3)^0,w,c
  5899  00CA66  5A04               	subwfb	(__div_to_l_@f1+3)^0,f,c
  5900  00CA68  8009               	bsf	__div_to_l_@quot^0,0,c
  5901  00CA6A                     l3945:
  5902  00CA6A  90D8               	bcf	status,0,c
  5903  00CA6C  3601               	rlcf	__div_to_l_@f1^0,f,c
  5904  00CA6E  3602               	rlcf	(__div_to_l_@f1+1)^0,f,c
  5905  00CA70  3603               	rlcf	(__div_to_l_@f1+2)^0,f,c
  5906  00CA72  3604               	rlcf	(__div_to_l_@f1+3)^0,f,c
  5907  00CA74  2E0D               	decfsz	__div_to_l_@cntr^0,f,c
  5908  00CA76  EF18  F065         	goto	l3937
  5909  00CA7A  BE0E               	btfsc	__div_to_l_@exp1^0,7,c
  5910  00CA7C  EF44  F065         	goto	u3620
  5911  00CA80  EF42  F065         	goto	u3621
  5912  00CA84                     u3621:
  5913  00CA84  EF5A  F065         	goto	l3961
  5914  00CA88                     u3620:
  5915  00CA88  500E               	movf	__div_to_l_@exp1^0,w,c
  5916  00CA8A  0A80               	xorlw	128
  5917  00CA8C  0F9F               	addlw	159
  5918  00CA8E  B0D8               	btfsc	status,0,c
  5919  00CA90  EF4C  F065         	goto	u3631
  5920  00CA94  EF4E  F065         	goto	u3630
  5921  00CA98                     u3631:
  5922  00CA98  EF50  F065         	goto	l3957
  5923  00CA9C                     u3630:
  5924  00CA9C  EFE0  F064         	goto	l3913
  5925  00CAA0                     l3957:
  5926  00CAA0  90D8               	bcf	status,0,c
  5927  00CAA2  320C               	rrcf	(__div_to_l_@quot+3)^0,f,c
  5928  00CAA4  320B               	rrcf	(__div_to_l_@quot+2)^0,f,c
  5929  00CAA6  320A               	rrcf	(__div_to_l_@quot+1)^0,f,c
  5930  00CAA8  3209               	rrcf	__div_to_l_@quot^0,f,c
  5931  00CAAA  3E0E               	incfsz	__div_to_l_@exp1^0,f,c
  5932  00CAAC  EF50  F065         	goto	l3957
  5933  00CAB0  EF72  F065         	goto	l913
  5934  00CAB4                     l3961:
  5935  00CAB4  0E1F               	movlw	31
  5936  00CAB6  640E               	cpfsgt	__div_to_l_@exp1^0,c
  5937  00CAB8  EF60  F065         	goto	u3641
  5938  00CABC  EF62  F065         	goto	u3640
  5939  00CAC0                     u3641:
  5940  00CAC0  EF6A  F065         	goto	l3969
  5941  00CAC4                     u3640:
  5942  00CAC4  EFE0  F064         	goto	l3913
  5943  00CAC8                     l3967:
  5944  00CAC8  90D8               	bcf	status,0,c
  5945  00CACA  3609               	rlcf	__div_to_l_@quot^0,f,c
  5946  00CACC  360A               	rlcf	(__div_to_l_@quot+1)^0,f,c
  5947  00CACE  360B               	rlcf	(__div_to_l_@quot+2)^0,f,c
  5948  00CAD0  360C               	rlcf	(__div_to_l_@quot+3)^0,f,c
  5949  00CAD2  060E               	decf	__div_to_l_@exp1^0,f,c
  5950  00CAD4                     l3969:
  5951  00CAD4  500E               	movf	__div_to_l_@exp1^0,w,c
  5952  00CAD6  A4D8               	btfss	status,2,c
  5953  00CAD8  EF70  F065         	goto	u3651
  5954  00CADC  EF72  F065         	goto	u3650
  5955  00CAE0                     u3651:
  5956  00CAE0  EF64  F065         	goto	l3967
  5957  00CAE4                     u3650:
  5958  00CAE4                     l913:
  5959  00CAE4  C009  F001         	movff	__div_to_l_@quot,?__div_to_l_
  5960  00CAE8  C00A  F002         	movff	__div_to_l_@quot+1,?__div_to_l_+1
  5961  00CAEC  C00B  F003         	movff	__div_to_l_@quot+2,?__div_to_l_+2
  5962  00CAF0  C00C  F004         	movff	__div_to_l_@quot+3,?__div_to_l_+3
  5963  00CAF4                     l904:
  5964  00CAF4  0012               	return		;funcret
  5965  00CAF6                     __end_of__div_to_l_:
  5966                           	callstack 0
  5967                           
  5968 ;; *************** function ___llmod *****************
  5969 ;; Defined at:
  5970 ;;		line 7 in file "C:\Program Files\Microchip\xc8\v2.30\pic\sources\c90\common\llmod.c"
  5971 ;; Parameters:    Size  Location     Type
  5972 ;;  dividend        4   13[COMRAM] unsigned long 
  5973 ;;  divisor         4   17[COMRAM] unsigned long 
  5974 ;; Auto vars:     Size  Location     Type
  5975 ;;  counter         1   21[COMRAM] unsigned char 
  5976 ;; Return value:  Size  Location     Type
  5977 ;;                  4   13[COMRAM] unsigned long 
  5978 ;; Registers used:
  5979 ;;		wreg, status,2, status,0
  5980 ;; Tracked objects:
  5981 ;;		On entry : 0/0
  5982 ;;		On exit  : 0/0
  5983 ;;		Unchanged: 0/0
  5984 ;; Data sizes:     COMRAM   BANK0   BANK1   BANK2   BANK3   BANK4   BANK5   BANK6   BANK7   BANK8   BANK9  BANK10  BANK1
      +1  BANK12  BANK13  BANK14  BANK15
  5985 ;;      Params:         8       0       0       0       0       0       0       0       0       0       0       0       
      +0       0       0       0       0
  5986 ;;      Locals:         1       0       0       0       0       0       0       0       0       0       0       0       
      +0       0       0       0       0
  5987 ;;      Temps:          0       0       0       0       0       0       0       0       0       0       0       0       
      +0       0       0       0       0
  5988 ;;      Totals:         9       0       0       0       0       0       0       0       0       0       0       0       
      +0       0       0       0       0
  5989 ;;Total ram usage:        9 bytes
  5990 ;; Hardware stack levels used:    1
  5991 ;; This function calls:
  5992 ;;		Nothing
  5993 ;; This function is called by:
  5994 ;;		_printf
  5995 ;; This function uses a non-reentrant model
  5996 ;;
  5997                           
  5998                           	psect	text13
  5999  00C122                     __ptext13:
  6000                           	callstack 0
  6001  00C122                     ___llmod:
  6002                           	callstack 29
  6003  00C122  5012               	movf	___llmod@divisor^0,w,c
  6004  00C124  1013               	iorwf	(___llmod@divisor+1)^0,w,c
  6005  00C126  1014               	iorwf	(___llmod@divisor+2)^0,w,c
  6006  00C128  1015               	iorwf	(___llmod@divisor+3)^0,w,c
  6007  00C12A  B4D8               	btfsc	status,2,c
  6008  00C12C  EF9A  F060         	goto	u4101
  6009  00C130  EF9C  F060         	goto	u4100
  6010  00C134                     u4101:
  6011  00C134  EFCC  F060         	goto	l1092
  6012  00C138                     u4100:
  6013  00C138  0E01               	movlw	1
  6014  00C13A  6E16               	movwf	___llmod@counter^0,c
  6015  00C13C  EFA6  F060         	goto	l4249
  6016  00C140                     l4247:
  6017  00C140  90D8               	bcf	status,0,c
  6018  00C142  3612               	rlcf	___llmod@divisor^0,f,c
  6019  00C144  3613               	rlcf	(___llmod@divisor+1)^0,f,c
  6020  00C146  3614               	rlcf	(___llmod@divisor+2)^0,f,c
  6021  00C148  3615               	rlcf	(___llmod@divisor+3)^0,f,c
  6022  00C14A  2A16               	incf	___llmod@counter^0,f,c
  6023  00C14C                     l4249:
  6024  00C14C  AE15               	btfss	(___llmod@divisor+3)^0,7,c
  6025  00C14E  EFAB  F060         	goto	u4111
  6026  00C152  EFAD  F060         	goto	u4110
  6027  00C156                     u4111:
  6028  00C156  EFA0  F060         	goto	l4247
  6029  00C15A                     u4110:
  6030  00C15A                     l4251:
  6031  00C15A  5012               	movf	___llmod@divisor^0,w,c
  6032  00C15C  5C0E               	subwf	___llmod@dividend^0,w,c
  6033  00C15E  5013               	movf	(___llmod@divisor+1)^0,w,c
  6034  00C160  580F               	subwfb	(___llmod@dividend+1)^0,w,c
  6035  00C162  5014               	movf	(___llmod@divisor+2)^0,w,c
  6036  00C164  5810               	subwfb	(___llmod@dividend+2)^0,w,c
  6037  00C166  5015               	movf	(___llmod@divisor+3)^0,w,c
  6038  00C168  5811               	subwfb	(___llmod@dividend+3)^0,w,c
  6039  00C16A  A0D8               	btfss	status,0,c
  6040  00C16C  EFBA  F060         	goto	u4121
  6041  00C170  EFBC  F060         	goto	u4120
  6042  00C174                     u4121:
  6043  00C174  EFC4  F060         	goto	l4255
  6044  00C178                     u4120:
  6045  00C178  5012               	movf	___llmod@divisor^0,w,c
  6046  00C17A  5E0E               	subwf	___llmod@dividend^0,f,c
  6047  00C17C  5013               	movf	(___llmod@divisor+1)^0,w,c
  6048  00C17E  5A0F               	subwfb	(___llmod@dividend+1)^0,f,c
  6049  00C180  5014               	movf	(___llmod@divisor+2)^0,w,c
  6050  00C182  5A10               	subwfb	(___llmod@dividend+2)^0,f,c
  6051  00C184  5015               	movf	(___llmod@divisor+3)^0,w,c
  6052  00C186  5A11               	subwfb	(___llmod@dividend+3)^0,f,c
  6053  00C188                     l4255:
  6054  00C188  90D8               	bcf	status,0,c
  6055  00C18A  3215               	rrcf	(___llmod@divisor+3)^0,f,c
  6056  00C18C  3214               	rrcf	(___llmod@divisor+2)^0,f,c
  6057  00C18E  3213               	rrcf	(___llmod@divisor+1)^0,f,c
  6058  00C190  3212               	rrcf	___llmod@divisor^0,f,c
  6059  00C192  2E16               	decfsz	___llmod@counter^0,f,c
  6060  00C194  EFAD  F060         	goto	l4251
  6061  00C198                     l1092:
  6062  00C198  C00E  F00E         	movff	___llmod@dividend,?___llmod
  6063  00C19C  C00F  F00F         	movff	___llmod@dividend+1,?___llmod+1
  6064  00C1A0  C010  F010         	movff	___llmod@dividend+2,?___llmod+2
  6065  00C1A4  C011  F011         	movff	___llmod@dividend+3,?___llmod+3
  6066  00C1A8  0012               	return		;funcret
  6067  00C1AA                     __end_of___llmod:
  6068                           	callstack 0
  6069                           
  6070 ;; *************** function ___lldiv *****************
  6071 ;; Defined at:
  6072 ;;		line 7 in file "C:\Program Files\Microchip\xc8\v2.30\pic\sources\c90\common\__lldiv.c"
  6073 ;; Parameters:    Size  Location     Type
  6074 ;;  dividend        4    0[COMRAM] unsigned long 
  6075 ;;  divisor         4    4[COMRAM] unsigned long 
  6076 ;; Auto vars:     Size  Location     Type
  6077 ;;  quotient        4    8[COMRAM] unsigned long 
  6078 ;;  counter         1   12[COMRAM] unsigned char 
  6079 ;; Return value:  Size  Location     Type
  6080 ;;                  4    0[COMRAM] unsigned long 
  6081 ;; Registers used:
  6082 ;;		wreg, status,2, status,0
  6083 ;; Tracked objects:
  6084 ;;		On entry : 0/0
  6085 ;;		On exit  : 0/0
  6086 ;;		Unchanged: 0/0
  6087 ;; Data sizes:     COMRAM   BANK0   BANK1   BANK2   BANK3   BANK4   BANK5   BANK6   BANK7   BANK8   BANK9  BANK10  BANK1
      +1  BANK12  BANK13  BANK14  BANK15
  6088 ;;      Params:         8       0       0       0       0       0       0       0       0       0       0       0       
      +0       0       0       0       0
  6089 ;;      Locals:         5       0       0       0       0       0       0       0       0       0       0       0       
      +0       0       0       0       0
  6090 ;;      Temps:          0       0       0       0       0       0       0       0       0       0       0       0       
      +0       0       0       0       0
  6091 ;;      Totals:        13       0       0       0       0       0       0       0       0       0       0       0       
      +0       0       0       0       0
  6092 ;;Total ram usage:       13 bytes
  6093 ;; Hardware stack levels used:    1
  6094 ;; This function calls:
  6095 ;;		Nothing
  6096 ;; This function is called by:
  6097 ;;		_main
  6098 ;;		_printf
  6099 ;; This function uses a non-reentrant model
  6100 ;;
  6101                           
  6102                           	psect	text14
  6103  00C246                     __ptext14:
  6104                           	callstack 0
  6105  00C246                     ___lldiv:
  6106                           	callstack 29
  6107  00C246  0E00               	movlw	0
  6108  00C248  6E09               	movwf	___lldiv@quotient^0,c
  6109  00C24A  0E00               	movlw	0
  6110  00C24C  6E0A               	movwf	(___lldiv@quotient+1)^0,c
  6111  00C24E  0E00               	movlw	0
  6112  00C250  6E0B               	movwf	(___lldiv@quotient+2)^0,c
  6113  00C252  0E00               	movlw	0
  6114  00C254  6E0C               	movwf	(___lldiv@quotient+3)^0,c
  6115  00C256  5005               	movf	___lldiv@divisor^0,w,c
  6116  00C258  1006               	iorwf	(___lldiv@divisor+1)^0,w,c
  6117  00C25A  1007               	iorwf	(___lldiv@divisor+2)^0,w,c
  6118  00C25C  1008               	iorwf	(___lldiv@divisor+3)^0,w,c
  6119  00C25E  B4D8               	btfsc	status,2,c
  6120  00C260  EF34  F061         	goto	u3681
  6121  00C264  EF36  F061         	goto	u3680
  6122  00C268                     u3681:
  6123  00C268  EF6C  F061         	goto	l677
  6124  00C26C                     u3680:
  6125  00C26C  0E01               	movlw	1
  6126  00C26E  6E0D               	movwf	___lldiv@counter^0,c
  6127  00C270  EF40  F061         	goto	l3995
  6128  00C274                     l3993:
  6129  00C274  90D8               	bcf	status,0,c
  6130  00C276  3605               	rlcf	___lldiv@divisor^0,f,c
  6131  00C278  3606               	rlcf	(___lldiv@divisor+1)^0,f,c
  6132  00C27A  3607               	rlcf	(___lldiv@divisor+2)^0,f,c
  6133  00C27C  3608               	rlcf	(___lldiv@divisor+3)^0,f,c
  6134  00C27E  2A0D               	incf	___lldiv@counter^0,f,c
  6135  00C280                     l3995:
  6136  00C280  AE08               	btfss	(___lldiv@divisor+3)^0,7,c
  6137  00C282  EF45  F061         	goto	u3691
  6138  00C286  EF47  F061         	goto	u3690
  6139  00C28A                     u3691:
  6140  00C28A  EF3A  F061         	goto	l3993
  6141  00C28E                     u3690:
  6142  00C28E                     l3997:
  6143  00C28E  90D8               	bcf	status,0,c
  6144  00C290  3609               	rlcf	___lldiv@quotient^0,f,c
  6145  00C292  360A               	rlcf	(___lldiv@quotient+1)^0,f,c
  6146  00C294  360B               	rlcf	(___lldiv@quotient+2)^0,f,c
  6147  00C296  360C               	rlcf	(___lldiv@quotient+3)^0,f,c
  6148  00C298  5005               	movf	___lldiv@divisor^0,w,c
  6149  00C29A  5C01               	subwf	___lldiv@dividend^0,w,c
  6150  00C29C  5006               	movf	(___lldiv@divisor+1)^0,w,c
  6151  00C29E  5802               	subwfb	(___lldiv@dividend+1)^0,w,c
  6152  00C2A0  5007               	movf	(___lldiv@divisor+2)^0,w,c
  6153  00C2A2  5803               	subwfb	(___lldiv@dividend+2)^0,w,c
  6154  00C2A4  5008               	movf	(___lldiv@divisor+3)^0,w,c
  6155  00C2A6  5804               	subwfb	(___lldiv@dividend+3)^0,w,c
  6156  00C2A8  A0D8               	btfss	status,0,c
  6157  00C2AA  EF59  F061         	goto	u3701
  6158  00C2AE  EF5B  F061         	goto	u3700
  6159  00C2B2                     u3701:
  6160  00C2B2  EF64  F061         	goto	l4005
  6161  00C2B6                     u3700:
  6162  00C2B6  5005               	movf	___lldiv@divisor^0,w,c
  6163  00C2B8  5E01               	subwf	___lldiv@dividend^0,f,c
  6164  00C2BA  5006               	movf	(___lldiv@divisor+1)^0,w,c
  6165  00C2BC  5A02               	subwfb	(___lldiv@dividend+1)^0,f,c
  6166  00C2BE  5007               	movf	(___lldiv@divisor+2)^0,w,c
  6167  00C2C0  5A03               	subwfb	(___lldiv@dividend+2)^0,f,c
  6168  00C2C2  5008               	movf	(___lldiv@divisor+3)^0,w,c
  6169  00C2C4  5A04               	subwfb	(___lldiv@dividend+3)^0,f,c
  6170  00C2C6  8009               	bsf	___lldiv@quotient^0,0,c
  6171  00C2C8                     l4005:
  6172  00C2C8  90D8               	bcf	status,0,c
  6173  00C2CA  3208               	rrcf	(___lldiv@divisor+3)^0,f,c
  6174  00C2CC  3207               	rrcf	(___lldiv@divisor+2)^0,f,c
  6175  00C2CE  3206               	rrcf	(___lldiv@divisor+1)^0,f,c
  6176  00C2D0  3205               	rrcf	___lldiv@divisor^0,f,c
  6177  00C2D2  2E0D               	decfsz	___lldiv@counter^0,f,c
  6178  00C2D4  EF47  F061         	goto	l3997
  6179  00C2D8                     l677:
  6180  00C2D8  C009  F001         	movff	___lldiv@quotient,?___lldiv
  6181  00C2DC  C00A  F002         	movff	___lldiv@quotient+1,?___lldiv+1
  6182  00C2E0  C00B  F003         	movff	___lldiv@quotient+2,?___lldiv+2
  6183  00C2E4  C00C  F004         	movff	___lldiv@quotient+3,?___lldiv+3
  6184  00C2E8  0012               	return		;funcret
  6185  00C2EA                     __end_of___lldiv:
  6186                           	callstack 0
  6187                           
  6188 ;; *************** function ___fltol *****************
  6189 ;; Defined at:
  6190 ;;		line 43 in file "C:\Program Files\Microchip\xc8\v2.30\pic\sources\c90\common\fltol.c"
  6191 ;; Parameters:    Size  Location     Type
  6192 ;;  f1              4   48[COMRAM] unsigned long 
  6193 ;; Auto vars:     Size  Location     Type
  6194 ;;  exp1            1   57[COMRAM] unsigned char 
  6195 ;;  sign1           1   56[COMRAM] unsigned char 
  6196 ;; Return value:  Size  Location     Type
  6197 ;;                  4   48[COMRAM] long 
  6198 ;; Registers used:
  6199 ;;		wreg, status,2, status,0
  6200 ;; Tracked objects:
  6201 ;;		On entry : 0/0
  6202 ;;		On exit  : 0/0
  6203 ;;		Unchanged: 0/0
  6204 ;; Data sizes:     COMRAM   BANK0   BANK1   BANK2   BANK3   BANK4   BANK5   BANK6   BANK7   BANK8   BANK9  BANK10  BANK1
      +1  BANK12  BANK13  BANK14  BANK15
  6205 ;;      Params:         4       0       0       0       0       0       0       0       0       0       0       0       
      +0       0       0       0       0
  6206 ;;      Locals:         2       0       0       0       0       0       0       0       0       0       0       0       
      +0       0       0       0       0
  6207 ;;      Temps:          4       0       0       0       0       0       0       0       0       0       0       0       
      +0       0       0       0       0
  6208 ;;      Totals:        10       0       0       0       0       0       0       0       0       0       0       0       
      +0       0       0       0       0
  6209 ;;Total ram usage:       10 bytes
  6210 ;; Hardware stack levels used:    1
  6211 ;; This function calls:
  6212 ;;		Nothing
  6213 ;; This function is called by:
  6214 ;;		_printf
  6215 ;; This function uses a non-reentrant model
  6216 ;;
  6217                           
  6218                           	psect	text15
  6219  00C774                     __ptext15:
  6220                           	callstack 0
  6221  00C774                     ___fltol:
  6222                           	callstack 29
  6223  00C774  3433               	rlcf	(___fltol@f1+2)^0,w,c
  6224  00C776  3434               	rlcf	(___fltol@f1+3)^0,w,c
  6225  00C778  6E3A               	movwf	___fltol@exp1^0,c
  6226  00C77A  503A               	movf	___fltol@exp1^0,w,c
  6227  00C77C  A4D8               	btfss	status,2,c
  6228  00C77E  EFC3  F063         	goto	u4031
  6229  00C782  EFC5  F063         	goto	u4030
  6230  00C786                     u4031:
  6231  00C786  EFCF  F063         	goto	l4205
  6232  00C78A                     u4030:
  6233  00C78A                     l4201:
  6234  00C78A  0E00               	movlw	0
  6235  00C78C  6E31               	movwf	?___fltol^0,c
  6236  00C78E  0E00               	movlw	0
  6237  00C790  6E32               	movwf	(?___fltol+1)^0,c
  6238  00C792  0E00               	movlw	0
  6239  00C794  6E33               	movwf	(?___fltol+2)^0,c
  6240  00C796  0E00               	movlw	0
  6241  00C798  6E34               	movwf	(?___fltol+3)^0,c
  6242  00C79A  EF3C  F064         	goto	l956
  6243  00C79E                     l4205:
  6244  00C79E  C031  F035         	movff	___fltol@f1,??___fltol
  6245  00C7A2  C032  F036         	movff	___fltol@f1+1,??___fltol+1
  6246  00C7A6  C033  F037         	movff	___fltol@f1+2,??___fltol+2
  6247  00C7AA  C034  F038         	movff	___fltol@f1+3,??___fltol+3
  6248  00C7AE  0E20               	movlw	32
  6249  00C7B0  EFDF  F063         	goto	u4040
  6250  00C7B4                     u4045:
  6251  00C7B4  90D8               	bcf	status,0,c
  6252  00C7B6  3238               	rrcf	(??___fltol+3)^0,f,c
  6253  00C7B8  3237               	rrcf	(??___fltol+2)^0,f,c
  6254  00C7BA  3236               	rrcf	(??___fltol+1)^0,f,c
  6255  00C7BC  3235               	rrcf	??___fltol^0,f,c
  6256  00C7BE                     u4040:
  6257  00C7BE  2EE8               	decfsz	wreg,f,c
  6258  00C7C0  EFDA  F063         	goto	u4045
  6259  00C7C4  5035               	movf	??___fltol^0,w,c
  6260  00C7C6  6E39               	movwf	___fltol@sign1^0,c
  6261  00C7C8  8E33               	bsf	(___fltol@f1+2)^0,7,c
  6262  00C7CA  0EFF               	movlw	255
  6263  00C7CC  1631               	andwf	___fltol@f1^0,f,c
  6264  00C7CE  0EFF               	movlw	255
  6265  00C7D0  1632               	andwf	(___fltol@f1+1)^0,f,c
  6266  00C7D2  0EFF               	movlw	255
  6267  00C7D4  1633               	andwf	(___fltol@f1+2)^0,f,c
  6268  00C7D6  0E00               	movlw	0
  6269  00C7D8  1634               	andwf	(___fltol@f1+3)^0,f,c
  6270  00C7DA  0E96               	movlw	150
  6271  00C7DC  5E3A               	subwf	___fltol@exp1^0,f,c
  6272  00C7DE  BE3A               	btfsc	___fltol@exp1^0,7,c
  6273  00C7E0  EFF6  F063         	goto	u4050
  6274  00C7E4  EFF4  F063         	goto	u4051
  6275  00C7E8                     u4051:
  6276  00C7E8  EF0C  F064         	goto	l4225
  6277  00C7EC                     u4050:
  6278  00C7EC  503A               	movf	___fltol@exp1^0,w,c
  6279  00C7EE  0A80               	xorlw	128
  6280  00C7F0  0F97               	addlw	151
  6281  00C7F2  B0D8               	btfsc	status,0,c
  6282  00C7F4  EFFE  F063         	goto	u4061
  6283  00C7F8  EF00  F064         	goto	u4060
  6284  00C7FC                     u4061:
  6285  00C7FC  EF02  F064         	goto	l4221
  6286  00C800                     u4060:
  6287  00C800  EFC5  F063         	goto	l4201
  6288  00C804                     l4221:
  6289  00C804  90D8               	bcf	status,0,c
  6290  00C806  3234               	rrcf	(___fltol@f1+3)^0,f,c
  6291  00C808  3233               	rrcf	(___fltol@f1+2)^0,f,c
  6292  00C80A  3232               	rrcf	(___fltol@f1+1)^0,f,c
  6293  00C80C  3231               	rrcf	___fltol@f1^0,f,c
  6294  00C80E  3E3A               	incfsz	___fltol@exp1^0,f,c
  6295  00C810  EF02  F064         	goto	l4221
  6296  00C814  EF24  F064         	goto	l4235
  6297  00C818                     l4225:
  6298  00C818  0E1F               	movlw	31
  6299  00C81A  643A               	cpfsgt	___fltol@exp1^0,c
  6300  00C81C  EF12  F064         	goto	u4071
  6301  00C820  EF14  F064         	goto	u4070
  6302  00C824                     u4071:
  6303  00C824  EF1C  F064         	goto	l4233
  6304  00C828                     u4070:
  6305  00C828  EFC5  F063         	goto	l4201
  6306  00C82C                     l4231:
  6307  00C82C  90D8               	bcf	status,0,c
  6308  00C82E  3631               	rlcf	___fltol@f1^0,f,c
  6309  00C830  3632               	rlcf	(___fltol@f1+1)^0,f,c
  6310  00C832  3633               	rlcf	(___fltol@f1+2)^0,f,c
  6311  00C834  3634               	rlcf	(___fltol@f1+3)^0,f,c
  6312  00C836  063A               	decf	___fltol@exp1^0,f,c
  6313  00C838                     l4233:
  6314  00C838  503A               	movf	___fltol@exp1^0,w,c
  6315  00C83A  A4D8               	btfss	status,2,c
  6316  00C83C  EF22  F064         	goto	u4081
  6317  00C840  EF24  F064         	goto	u4080
  6318  00C844                     u4081:
  6319  00C844  EF16  F064         	goto	l4231
  6320  00C848                     u4080:
  6321  00C848                     l4235:
  6322  00C848  5039               	movf	___fltol@sign1^0,w,c
  6323  00C84A  B4D8               	btfsc	status,2,c
  6324  00C84C  EF2A  F064         	goto	u4091
  6325  00C850  EF2C  F064         	goto	u4090
  6326  00C854                     u4091:
  6327  00C854  EF34  F064         	goto	l4239
  6328  00C858                     u4090:
  6329  00C858  1E34               	comf	(___fltol@f1+3)^0,f,c
  6330  00C85A  1E33               	comf	(___fltol@f1+2)^0,f,c
  6331  00C85C  1E32               	comf	(___fltol@f1+1)^0,f,c
  6332  00C85E  6C31               	negf	___fltol@f1^0,c
  6333  00C860  0E00               	movlw	0
  6334  00C862  2232               	addwfc	(___fltol@f1+1)^0,f,c
  6335  00C864  2233               	addwfc	(___fltol@f1+2)^0,f,c
  6336  00C866  2234               	addwfc	(___fltol@f1+3)^0,f,c
  6337  00C868                     l4239:
  6338  00C868  C031  F031         	movff	___fltol@f1,?___fltol
  6339  00C86C  C032  F032         	movff	___fltol@f1+1,?___fltol+1
  6340  00C870  C033  F033         	movff	___fltol@f1+2,?___fltol+2
  6341  00C874  C034  F034         	movff	___fltol@f1+3,?___fltol+3
  6342  00C878                     l956:
  6343  00C878  0012               	return		;funcret
  6344  00C87A                     __end_of___fltol:
  6345                           	callstack 0
  6346                           
  6347 ;; *************** function ___flsub *****************
  6348 ;; Defined at:
  6349 ;;		line 245 in file "C:\Program Files\Microchip\xc8\v2.30\pic\sources\c90\common\sprcadd.c"
  6350 ;; Parameters:    Size  Location     Type
  6351 ;;  b               4   68[COMRAM] long 
  6352 ;;  a               4   72[COMRAM] long 
  6353 ;; Auto vars:     Size  Location     Type
  6354 ;;		None
  6355 ;; Return value:  Size  Location     Type
  6356 ;;                  4   68[COMRAM] long 
  6357 ;; Registers used:
  6358 ;;		wreg, status,2, status,0, cstack
  6359 ;; Tracked objects:
  6360 ;;		On entry : 0/0
  6361 ;;		On exit  : 0/0
  6362 ;;		Unchanged: 0/0
  6363 ;; Data sizes:     COMRAM   BANK0   BANK1   BANK2   BANK3   BANK4   BANK5   BANK6   BANK7   BANK8   BANK9  BANK10  BANK1
      +1  BANK12  BANK13  BANK14  BANK15
  6364 ;;      Params:         8       0       0       0       0       0       0       0       0       0       0       0       
      +0       0       0       0       0
  6365 ;;      Locals:         0       0       0       0       0       0       0       0       0       0       0       0       
      +0       0       0       0       0
  6366 ;;      Temps:          0       0       0       0       0       0       0       0       0       0       0       0       
      +0       0       0       0       0
  6367 ;;      Totals:         8       0       0       0       0       0       0       0       0       0       0       0       
      +0       0       0       0       0
  6368 ;;Total ram usage:        8 bytes
  6369 ;; Hardware stack levels used:    1
  6370 ;; Hardware stack levels required when called:    1
  6371 ;; This function calls:
  6372 ;;		___fladd
  6373 ;; This function is called by:
  6374 ;;		_main
  6375 ;;		_printf
  6376 ;; This function uses a non-reentrant model
  6377 ;;
  6378                           
  6379                           	psect	text16
  6380  00BEBA                     __ptext16:
  6381                           	callstack 0
  6382  00BEBA                     ___flsub:
  6383                           	callstack 28
  6384  00BEBA  0E00               	movlw	0
  6385  00BEBC  1A49               	xorwf	___flsub@a^0,f,c
  6386  00BEBE  0E00               	movlw	0
  6387  00BEC0  1A4A               	xorwf	(___flsub@a+1)^0,f,c
  6388  00BEC2  0E00               	movlw	0
  6389  00BEC4  1A4B               	xorwf	(___flsub@a+2)^0,f,c
  6390  00BEC6  0E80               	movlw	128
  6391  00BEC8  1A4C               	xorwf	(___flsub@a+3)^0,f,c
  6392  00BECA  C045  F035         	movff	___flsub@b,___fladd@b
  6393  00BECE  C046  F036         	movff	___flsub@b+1,___fladd@b+1
  6394  00BED2  C047  F037         	movff	___flsub@b+2,___fladd@b+2
  6395  00BED6  C048  F038         	movff	___flsub@b+3,___fladd@b+3
  6396  00BEDA  C049  F039         	movff	___flsub@a,___fladd@a
  6397  00BEDE  C04A  F03A         	movff	___flsub@a+1,___fladd@a+1
  6398  00BEE2  C04B  F03B         	movff	___flsub@a+2,___fladd@a+2
  6399  00BEE6  C04C  F03C         	movff	___flsub@a+3,___fladd@a+3
  6400  00BEEA  ECC9  F06E         	call	___fladd	;wreg free
  6401  00BEEE  C035  F045         	movff	?___fladd,?___flsub
  6402  00BEF2  C036  F046         	movff	?___fladd+1,?___flsub+1
  6403  00BEF6  C037  F047         	movff	?___fladd+2,?___flsub+2
  6404  00BEFA  C038  F048         	movff	?___fladd+3,?___flsub+3
  6405  00BEFE  0012               	return		;funcret
  6406  00BF00                     __end_of___flsub:
  6407                           	callstack 0
  6408                           
  6409 ;; *************** function ___fladd *****************
  6410 ;; Defined at:
  6411 ;;		line 10 in file "C:\Program Files\Microchip\xc8\v2.30\pic\sources\c90\common\sprcadd.c"
  6412 ;; Parameters:    Size  Location     Type
  6413 ;;  b               4   52[COMRAM] long 
  6414 ;;  a               4   56[COMRAM] long 
  6415 ;; Auto vars:     Size  Location     Type
  6416 ;;  grs             1   67[COMRAM] unsigned char 
  6417 ;;  bexp            1   66[COMRAM] unsigned char 
  6418 ;;  aexp            1   65[COMRAM] unsigned char 
  6419 ;;  signs           1   64[COMRAM] unsigned char 
  6420 ;; Return value:  Size  Location     Type
  6421 ;;                  4   52[COMRAM] unsigned char 
  6422 ;; Registers used:
  6423 ;;		wreg, status,2, status,0
  6424 ;; Tracked objects:
  6425 ;;		On entry : 0/0
  6426 ;;		On exit  : 0/0
  6427 ;;		Unchanged: 0/0
  6428 ;; Data sizes:     COMRAM   BANK0   BANK1   BANK2   BANK3   BANK4   BANK5   BANK6   BANK7   BANK8   BANK9  BANK10  BANK1
      +1  BANK12  BANK13  BANK14  BANK15
  6429 ;;      Params:         8       0       0       0       0       0       0       0       0       0       0       0       
      +0       0       0       0       0
  6430 ;;      Locals:         4       0       0       0       0       0       0       0       0       0       0       0       
      +0       0       0       0       0
  6431 ;;      Temps:          4       0       0       0       0       0       0       0       0       0       0       0       
      +0       0       0       0       0
  6432 ;;      Totals:        16       0       0       0       0       0       0       0       0       0       0       0       
      +0       0       0       0       0
  6433 ;;Total ram usage:       16 bytes
  6434 ;; Hardware stack levels used:    1
  6435 ;; This function calls:
  6436 ;;		Nothing
  6437 ;; This function is called by:
  6438 ;;		_main
  6439 ;;		_printf
  6440 ;;		___flsub
  6441 ;; This function uses a non-reentrant model
  6442 ;;
  6443                           
  6444                           	psect	text17
  6445  00DD92                     __ptext17:
  6446                           	callstack 0
  6447  00DD92                     ___fladd:
  6448                           	callstack 28
  6449  00DD92  5038               	movf	(___fladd@b+3)^0,w,c
  6450  00DD94  0B80               	andlw	128
  6451  00DD96  6E41               	movwf	___fladd@signs^0,c
  6452  00DD98  5038               	movf	(___fladd@b+3)^0,w,c
  6453  00DD9A  2438               	addwf	(___fladd@b+3)^0,w,c
  6454  00DD9C  6E43               	movwf	___fladd@bexp^0,c
  6455  00DD9E  AE37               	btfss	(___fladd@b+2)^0,7,c
  6456  00DDA0  EFD4  F06E         	goto	u2671
  6457  00DDA4  EFD6  F06E         	goto	u2670
  6458  00DDA8                     u2671:
  6459  00DDA8  EFD7  F06E         	goto	l3347
  6460  00DDAC                     u2670:
  6461  00DDAC  8043               	bsf	___fladd@bexp^0,0,c
  6462  00DDAE                     l3347:
  6463  00DDAE  5043               	movf	___fladd@bexp^0,w,c
  6464  00DDB0  B4D8               	btfsc	status,2,c
  6465  00DDB2  EFDD  F06E         	goto	u2681
  6466  00DDB6  EFDF  F06E         	goto	u2680
  6467  00DDBA                     u2681:
  6468  00DDBA  EFF4  F06E         	goto	l3357
  6469  00DDBE                     u2680:
  6470  00DDBE  2843               	incf	___fladd@bexp^0,w,c
  6471  00DDC0  A4D8               	btfss	status,2,c
  6472  00DDC2  EFE5  F06E         	goto	u2691
  6473  00DDC6  EFE7  F06E         	goto	u2690
  6474  00DDCA                     u2691:
  6475  00DDCA  EFEF  F06E         	goto	l3353
  6476  00DDCE                     u2690:
  6477  00DDCE  0E00               	movlw	0
  6478  00DDD0  6E35               	movwf	___fladd@b^0,c
  6479  00DDD2  0E00               	movlw	0
  6480  00DDD4  6E36               	movwf	(___fladd@b+1)^0,c
  6481  00DDD6  0E00               	movlw	0
  6482  00DDD8  6E37               	movwf	(___fladd@b+2)^0,c
  6483  00DDDA  0E00               	movlw	0
  6484  00DDDC  6E38               	movwf	(___fladd@b+3)^0,c
  6485  00DDDE                     l3353:
  6486  00DDDE  8E37               	bsf	(___fladd@b+2)^0,7,c
  6487  00DDE0  0E00               	movlw	0
  6488  00DDE2  6E38               	movwf	(___fladd@b+3)^0,c
  6489  00DDE4  EFFC  F06E         	goto	l3359
  6490  00DDE8                     l3357:
  6491  00DDE8  0E00               	movlw	0
  6492  00DDEA  6E35               	movwf	___fladd@b^0,c
  6493  00DDEC  0E00               	movlw	0
  6494  00DDEE  6E36               	movwf	(___fladd@b+1)^0,c
  6495  00DDF0  0E00               	movlw	0
  6496  00DDF2  6E37               	movwf	(___fladd@b+2)^0,c
  6497  00DDF4  0E00               	movlw	0
  6498  00DDF6  6E38               	movwf	(___fladd@b+3)^0,c
  6499  00DDF8                     l3359:
  6500  00DDF8  503C               	movf	(___fladd@a+3)^0,w,c
  6501  00DDFA  0B80               	andlw	128
  6502  00DDFC  6E42               	movwf	___fladd@aexp^0,c
  6503  00DDFE  5041               	movf	___fladd@signs^0,w,c
  6504  00DE00  1842               	xorwf	___fladd@aexp^0,w,c
  6505  00DE02  B4D8               	btfsc	status,2,c
  6506  00DE04  EF06  F06F         	goto	u2701
  6507  00DE08  EF08  F06F         	goto	u2700
  6508  00DE0C                     u2701:
  6509  00DE0C  EF09  F06F         	goto	l3365
  6510  00DE10                     u2700:
  6511  00DE10  8C41               	bsf	___fladd@signs^0,6,c
  6512  00DE12                     l3365:
  6513  00DE12  503C               	movf	(___fladd@a+3)^0,w,c
  6514  00DE14  243C               	addwf	(___fladd@a+3)^0,w,c
  6515  00DE16  6E42               	movwf	___fladd@aexp^0,c
  6516  00DE18  AE3B               	btfss	(___fladd@a+2)^0,7,c
  6517  00DE1A  EF11  F06F         	goto	u2711
  6518  00DE1E  EF13  F06F         	goto	u2710
  6519  00DE22                     u2711:
  6520  00DE22  EF14  F06F         	goto	l3371
  6521  00DE26                     u2710:
  6522  00DE26  8042               	bsf	___fladd@aexp^0,0,c
  6523  00DE28                     l3371:
  6524  00DE28  5042               	movf	___fladd@aexp^0,w,c
  6525  00DE2A  B4D8               	btfsc	status,2,c
  6526  00DE2C  EF1A  F06F         	goto	u2721
  6527  00DE30  EF1C  F06F         	goto	u2720
  6528  00DE34                     u2721:
  6529  00DE34  EF31  F06F         	goto	l3381
  6530  00DE38                     u2720:
  6531  00DE38  2842               	incf	___fladd@aexp^0,w,c
  6532  00DE3A  A4D8               	btfss	status,2,c
  6533  00DE3C  EF22  F06F         	goto	u2731
  6534  00DE40  EF24  F06F         	goto	u2730
  6535  00DE44                     u2731:
  6536  00DE44  EF2C  F06F         	goto	l3377
  6537  00DE48                     u2730:
  6538  00DE48  0E00               	movlw	0
  6539  00DE4A  6E39               	movwf	___fladd@a^0,c
  6540  00DE4C  0E00               	movlw	0
  6541  00DE4E  6E3A               	movwf	(___fladd@a+1)^0,c
  6542  00DE50  0E00               	movlw	0
  6543  00DE52  6E3B               	movwf	(___fladd@a+2)^0,c
  6544  00DE54  0E00               	movlw	0
  6545  00DE56  6E3C               	movwf	(___fladd@a+3)^0,c
  6546  00DE58                     l3377:
  6547  00DE58  8E3B               	bsf	(___fladd@a+2)^0,7,c
  6548  00DE5A  0E00               	movlw	0
  6549  00DE5C  6E3C               	movwf	(___fladd@a+3)^0,c
  6550  00DE5E  EF39  F06F         	goto	l3383
  6551  00DE62                     l3381:
  6552  00DE62  0E00               	movlw	0
  6553  00DE64  6E39               	movwf	___fladd@a^0,c
  6554  00DE66  0E00               	movlw	0
  6555  00DE68  6E3A               	movwf	(___fladd@a+1)^0,c
  6556  00DE6A  0E00               	movlw	0
  6557  00DE6C  6E3B               	movwf	(___fladd@a+2)^0,c
  6558  00DE6E  0E00               	movlw	0
  6559  00DE70  6E3C               	movwf	(___fladd@a+3)^0,c
  6560  00DE72                     l3383:
  6561  00DE72  5043               	movf	___fladd@bexp^0,w,c
  6562  00DE74  5C42               	subwf	___fladd@aexp^0,w,c
  6563  00DE76  B0D8               	btfsc	status,0,c
  6564  00DE78  EF40  F06F         	goto	u2741
  6565  00DE7C  EF42  F06F         	goto	u2740
  6566  00DE80                     u2741:
  6567  00DE80  EF69  F06F         	goto	l3419
  6568  00DE84                     u2740:
  6569  00DE84  AC41               	btfss	___fladd@signs^0,6,c
  6570  00DE86  EF47  F06F         	goto	u2751
  6571  00DE8A  EF49  F06F         	goto	u2750
  6572  00DE8E                     u2751:
  6573  00DE8E  EF4B  F06F         	goto	l3389
  6574  00DE92                     u2750:
  6575  00DE92  0E80               	movlw	128
  6576  00DE94  1A41               	xorwf	___fladd@signs^0,f,c
  6577  00DE96                     l3389:
  6578  00DE96  C043  F044         	movff	___fladd@bexp,___fladd@grs
  6579  00DE9A  C042  F043         	movff	___fladd@aexp,___fladd@bexp
  6580  00DE9E  C044  F042         	movff	___fladd@grs,___fladd@aexp
  6581  00DEA2  C035  F044         	movff	___fladd@b,___fladd@grs
  6582  00DEA6  C039  F035         	movff	___fladd@a,___fladd@b
  6583  00DEAA  C044  F039         	movff	___fladd@grs,___fladd@a
  6584  00DEAE  C036  F044         	movff	___fladd@b+1,___fladd@grs
  6585  00DEB2  C03A  F036         	movff	___fladd@a+1,___fladd@b+1
  6586  00DEB6  C044  F03A         	movff	___fladd@grs,___fladd@a+1
  6587  00DEBA  C037  F044         	movff	___fladd@b+2,___fladd@grs
  6588  00DEBE  C03B  F037         	movff	___fladd@a+2,___fladd@b+2
  6589  00DEC2  C044  F03B         	movff	___fladd@grs,___fladd@a+2
  6590  00DEC6  C038  F044         	movff	___fladd@b+3,___fladd@grs
  6591  00DECA  C03C  F038         	movff	___fladd@a+3,___fladd@b+3
  6592  00DECE  C044  F03C         	movff	___fladd@grs,___fladd@a+3
  6593  00DED2                     l3419:
  6594  00DED2  0E00               	movlw	0
  6595  00DED4  6E44               	movwf	___fladd@grs^0,c
  6596  00DED6  5043               	movf	___fladd@bexp^0,w,c
  6597  00DED8  C042  F03D         	movff	___fladd@aexp,??___fladd
  6598  00DEDC  6A3E               	clrf	(??___fladd+1)^0,c
  6599  00DEDE  5E3D               	subwf	??___fladd^0,f,c
  6600  00DEE0  0E00               	movlw	0
  6601  00DEE2  5A3E               	subwfb	(??___fladd+1)^0,f,c
  6602  00DEE4  BE3E               	btfsc	(??___fladd+1)^0,7,c
  6603  00DEE6  EF7E  F06F         	goto	u2761
  6604  00DEEA  503E               	movf	(??___fladd+1)^0,w,c
  6605  00DEEC  E109               	bnz	u2760
  6606  00DEEE  0E1A               	movlw	26
  6607  00DEF0  5C3D               	subwf	??___fladd^0,w,c
  6608  00DEF2  A0D8               	btfss	status,0,c
  6609  00DEF4  EF7E  F06F         	goto	u2761
  6610  00DEF8  EF80  F06F         	goto	u2760
  6611  00DEFC                     u2761:
  6612  00DEFC  EFB7  F06F         	goto	l1201
  6613  00DF00                     u2760:
  6614  00DF00  5035               	movf	___fladd@b^0,w,c
  6615  00DF02  1036               	iorwf	(___fladd@b+1)^0,w,c
  6616  00DF04  1037               	iorwf	(___fladd@b+2)^0,w,c
  6617  00DF06  1038               	iorwf	(___fladd@b+3)^0,w,c
  6618  00DF08  A4D8               	btfss	status,2,c
  6619  00DF0A  EF89  F06F         	goto	u2771
  6620  00DF0E  EF8C  F06F         	goto	u2770
  6621  00DF12                     u2771:
  6622  00DF12  0E01               	movlw	1
  6623  00DF14  EF8D  F06F         	goto	u2780
  6624  00DF18                     u2770:
  6625  00DF18  0E00               	movlw	0
  6626  00DF1A                     u2780:
  6627  00DF1A  6E44               	movwf	___fladd@grs^0,c
  6628  00DF1C  0E00               	movlw	0
  6629  00DF1E  6E35               	movwf	___fladd@b^0,c
  6630  00DF20  0E00               	movlw	0
  6631  00DF22  6E36               	movwf	(___fladd@b+1)^0,c
  6632  00DF24  0E00               	movlw	0
  6633  00DF26  6E37               	movwf	(___fladd@b+2)^0,c
  6634  00DF28  0E00               	movlw	0
  6635  00DF2A  6E38               	movwf	(___fladd@b+3)^0,c
  6636  00DF2C  C042  F043         	movff	___fladd@aexp,___fladd@bexp
  6637  00DF30  EFC0  F06F         	goto	l1200
  6638  00DF34                     l1202:
  6639  00DF34  A044               	btfss	___fladd@grs^0,0,c
  6640  00DF36  EF9F  F06F         	goto	u2791
  6641  00DF3A  EFA1  F06F         	goto	u2790
  6642  00DF3E                     u2791:
  6643  00DF3E  EFA7  F06F         	goto	l3431
  6644  00DF42                     u2790:
  6645  00DF42  90D8               	bcf	status,0,c
  6646  00DF44  3044               	rrcf	___fladd@grs^0,w,c
  6647  00DF46  0901               	iorlw	1
  6648  00DF48  6E44               	movwf	___fladd@grs^0,c
  6649  00DF4A  EFA9  F06F         	goto	l3433
  6650  00DF4E                     l3431:
  6651  00DF4E  90D8               	bcf	status,0,c
  6652  00DF50  3244               	rrcf	___fladd@grs^0,f,c
  6653  00DF52                     l3433:
  6654  00DF52  A035               	btfss	___fladd@b^0,0,c
  6655  00DF54  EFAE  F06F         	goto	u2801
  6656  00DF58  EFB0  F06F         	goto	u2800
  6657  00DF5C                     u2801:
  6658  00DF5C  EFB1  F06F         	goto	l3437
  6659  00DF60                     u2800:
  6660  00DF60  8E44               	bsf	___fladd@grs^0,7,c
  6661  00DF62                     l3437:
  6662  00DF62  3438               	rlcf	(___fladd@b+3)^0,w,c
  6663  00DF64  3238               	rrcf	(___fladd@b+3)^0,f,c
  6664  00DF66  3237               	rrcf	(___fladd@b+2)^0,f,c
  6665  00DF68  3236               	rrcf	(___fladd@b+1)^0,f,c
  6666  00DF6A  3235               	rrcf	___fladd@b^0,f,c
  6667  00DF6C  2A43               	incf	___fladd@bexp^0,f,c
  6668  00DF6E                     l1201:
  6669  00DF6E  5042               	movf	___fladd@aexp^0,w,c
  6670  00DF70  5C43               	subwf	___fladd@bexp^0,w,c
  6671  00DF72  A0D8               	btfss	status,0,c
  6672  00DF74  EFBE  F06F         	goto	u2811
  6673  00DF78  EFC0  F06F         	goto	u2810
  6674  00DF7C                     u2811:
  6675  00DF7C  EF9A  F06F         	goto	l1202
  6676  00DF80                     u2810:
  6677  00DF80                     l1200:
  6678  00DF80  BC41               	btfsc	___fladd@signs^0,6,c
  6679  00DF82  EFC5  F06F         	goto	u2821
  6680  00DF86  EFC7  F06F         	goto	u2820
  6681  00DF8A                     u2821:
  6682  00DF8A  EF07  F070         	goto	l3465
  6683  00DF8E                     u2820:
  6684  00DF8E  5043               	movf	___fladd@bexp^0,w,c
  6685  00DF90  A4D8               	btfss	status,2,c
  6686  00DF92  EFCD  F06F         	goto	u2831
  6687  00DF96  EFCF  F06F         	goto	u2830
  6688  00DF9A                     u2831:
  6689  00DF9A  EFD9  F06F         	goto	l3447
  6690  00DF9E                     u2830:
  6691  00DF9E  0E00               	movlw	0
  6692  00DFA0  6E35               	movwf	?___fladd^0,c
  6693  00DFA2  0E00               	movlw	0
  6694  00DFA4  6E36               	movwf	(?___fladd+1)^0,c
  6695  00DFA6  0E00               	movlw	0
  6696  00DFA8  6E37               	movwf	(?___fladd+2)^0,c
  6697  00DFAA  0E00               	movlw	0
  6698  00DFAC  6E38               	movwf	(?___fladd+3)^0,c
  6699  00DFAE  EF28  F071         	goto	l1209
  6700  00DFB2                     l3447:
  6701  00DFB2  5039               	movf	___fladd@a^0,w,c
  6702  00DFB4  2635               	addwf	___fladd@b^0,f,c
  6703  00DFB6  503A               	movf	(___fladd@a+1)^0,w,c
  6704  00DFB8  2236               	addwfc	(___fladd@b+1)^0,f,c
  6705  00DFBA  503B               	movf	(___fladd@a+2)^0,w,c
  6706  00DFBC  2237               	addwfc	(___fladd@b+2)^0,f,c
  6707  00DFBE  503C               	movf	(___fladd@a+3)^0,w,c
  6708  00DFC0  2238               	addwfc	(___fladd@b+3)^0,f,c
  6709  00DFC2  A038               	btfss	(___fladd@b+3)^0,0,c
  6710  00DFC4  EFE6  F06F         	goto	u2841
  6711  00DFC8  EFE8  F06F         	goto	u2840
  6712  00DFCC                     u2841:
  6713  00DFCC  EF94  F070         	goto	l3501
  6714  00DFD0                     u2840:
  6715  00DFD0  A044               	btfss	___fladd@grs^0,0,c
  6716  00DFD2  EFED  F06F         	goto	u2851
  6717  00DFD6  EFEF  F06F         	goto	u2850
  6718  00DFDA                     u2851:
  6719  00DFDA  EFF5  F06F         	goto	l3455
  6720  00DFDE                     u2850:
  6721  00DFDE  90D8               	bcf	status,0,c
  6722  00DFE0  3044               	rrcf	___fladd@grs^0,w,c
  6723  00DFE2  0901               	iorlw	1
  6724  00DFE4  6E44               	movwf	___fladd@grs^0,c
  6725  00DFE6  EFF7  F06F         	goto	l3457
  6726  00DFEA                     l3455:
  6727  00DFEA  90D8               	bcf	status,0,c
  6728  00DFEC  3244               	rrcf	___fladd@grs^0,f,c
  6729  00DFEE                     l3457:
  6730  00DFEE  A035               	btfss	___fladd@b^0,0,c
  6731  00DFF0  EFFC  F06F         	goto	u2861
  6732  00DFF4  EFFE  F06F         	goto	u2860
  6733  00DFF8                     u2861:
  6734  00DFF8  EFFF  F06F         	goto	l3461
  6735  00DFFC                     u2860:
  6736  00DFFC  8E44               	bsf	___fladd@grs^0,7,c
  6737  00DFFE                     l3461:
  6738  00DFFE  3438               	rlcf	(___fladd@b+3)^0,w,c
  6739  00E000  3238               	rrcf	(___fladd@b+3)^0,f,c
  6740  00E002  3237               	rrcf	(___fladd@b+2)^0,f,c
  6741  00E004  3236               	rrcf	(___fladd@b+1)^0,f,c
  6742  00E006  3235               	rrcf	___fladd@b^0,f,c
  6743  00E008  2A43               	incf	___fladd@bexp^0,f,c
  6744  00E00A  EF94  F070         	goto	l3501
  6745  00E00E                     l3465:
  6746  00E00E  5039               	movf	___fladd@a^0,w,c
  6747  00E010  5C35               	subwf	___fladd@b^0,w,c
  6748  00E012  503A               	movf	(___fladd@a+1)^0,w,c
  6749  00E014  5836               	subwfb	(___fladd@b+1)^0,w,c
  6750  00E016  503B               	movf	(___fladd@a+2)^0,w,c
  6751  00E018  5837               	subwfb	(___fladd@b+2)^0,w,c
  6752  00E01A  5038               	movf	(___fladd@b+3)^0,w,c
  6753  00E01C  0A80               	xorlw	128
  6754  00E01E  6E3D               	movwf	??___fladd^0,c
  6755  00E020  503C               	movf	(___fladd@a+3)^0,w,c
  6756  00E022  0A80               	xorlw	128
  6757  00E024  583D               	subwfb	??___fladd^0,w,c
  6758  00E026  B0D8               	btfsc	status,0,c
  6759  00E028  EF18  F070         	goto	u2871
  6760  00E02C  EF1A  F070         	goto	u2870
  6761  00E030                     u2871:
  6762  00E030  EF45  F070         	goto	l3475
  6763  00E034                     u2870:
  6764  00E034  5035               	movf	___fladd@b^0,w,c
  6765  00E036  5C39               	subwf	___fladd@a^0,w,c
  6766  00E038  6E3D               	movwf	??___fladd^0,c
  6767  00E03A  5036               	movf	(___fladd@b+1)^0,w,c
  6768  00E03C  583A               	subwfb	(___fladd@a+1)^0,w,c
  6769  00E03E  6E3E               	movwf	(??___fladd+1)^0,c
  6770  00E040  5037               	movf	(___fladd@b+2)^0,w,c
  6771  00E042  583B               	subwfb	(___fladd@a+2)^0,w,c
  6772  00E044  6E3F               	movwf	(??___fladd+2)^0,c
  6773  00E046  5038               	movf	(___fladd@b+3)^0,w,c
  6774  00E048  583C               	subwfb	(___fladd@a+3)^0,w,c
  6775  00E04A  6E40               	movwf	(??___fladd+3)^0,c
  6776  00E04C  0EFF               	movlw	255
  6777  00E04E  243D               	addwf	??___fladd^0,w,c
  6778  00E050  6E35               	movwf	___fladd@b^0,c
  6779  00E052  0EFF               	movlw	255
  6780  00E054  203E               	addwfc	(??___fladd+1)^0,w,c
  6781  00E056  6E36               	movwf	(___fladd@b+1)^0,c
  6782  00E058  0EFF               	movlw	255
  6783  00E05A  203F               	addwfc	(??___fladd+2)^0,w,c
  6784  00E05C  6E37               	movwf	(___fladd@b+2)^0,c
  6785  00E05E  0EFF               	movlw	255
  6786  00E060  2040               	addwfc	(??___fladd+3)^0,w,c
  6787  00E062  6E38               	movwf	(___fladd@b+3)^0,c
  6788  00E064  0E80               	movlw	128
  6789  00E066  1A41               	xorwf	___fladd@signs^0,f,c
  6790  00E068  6C44               	negf	___fladd@grs^0,c
  6791  00E06A  5044               	movf	___fladd@grs^0,w,c
  6792  00E06C  A4D8               	btfss	status,2,c
  6793  00E06E  EF3B  F070         	goto	u2881
  6794  00E072  EF3D  F070         	goto	u2880
  6795  00E076                     u2881:
  6796  00E076  EF4D  F070         	goto	l1217
  6797  00E07A                     u2880:
  6798  00E07A  0E01               	movlw	1
  6799  00E07C  2635               	addwf	___fladd@b^0,f,c
  6800  00E07E  0E00               	movlw	0
  6801  00E080  2236               	addwfc	(___fladd@b+1)^0,f,c
  6802  00E082  2237               	addwfc	(___fladd@b+2)^0,f,c
  6803  00E084  2238               	addwfc	(___fladd@b+3)^0,f,c
  6804  00E086  EF4D  F070         	goto	l1217
  6805  00E08A                     l3475:
  6806  00E08A  5039               	movf	___fladd@a^0,w,c
  6807  00E08C  5E35               	subwf	___fladd@b^0,f,c
  6808  00E08E  503A               	movf	(___fladd@a+1)^0,w,c
  6809  00E090  5A36               	subwfb	(___fladd@b+1)^0,f,c
  6810  00E092  503B               	movf	(___fladd@a+2)^0,w,c
  6811  00E094  5A37               	subwfb	(___fladd@b+2)^0,f,c
  6812  00E096  503C               	movf	(___fladd@a+3)^0,w,c
  6813  00E098  5A38               	subwfb	(___fladd@b+3)^0,f,c
  6814  00E09A                     l1217:
  6815  00E09A  5035               	movf	___fladd@b^0,w,c
  6816  00E09C  1036               	iorwf	(___fladd@b+1)^0,w,c
  6817  00E09E  1037               	iorwf	(___fladd@b+2)^0,w,c
  6818  00E0A0  1038               	iorwf	(___fladd@b+3)^0,w,c
  6819  00E0A2  A4D8               	btfss	status,2,c
  6820  00E0A4  EF56  F070         	goto	u2891
  6821  00E0A8  EF58  F070         	goto	u2890
  6822  00E0AC                     u2891:
  6823  00E0AC  EF8D  F070         	goto	l3499
  6824  00E0B0                     u2890:
  6825  00E0B0  5044               	movf	___fladd@grs^0,w,c
  6826  00E0B2  A4D8               	btfss	status,2,c
  6827  00E0B4  EF5E  F070         	goto	u2901
  6828  00E0B8  EF60  F070         	goto	u2900
  6829  00E0BC                     u2901:
  6830  00E0BC  EF8D  F070         	goto	l3499
  6831  00E0C0                     u2900:
  6832  00E0C0  0E00               	movlw	0
  6833  00E0C2  6E35               	movwf	?___fladd^0,c
  6834  00E0C4  0E00               	movlw	0
  6835  00E0C6  6E36               	movwf	(?___fladd+1)^0,c
  6836  00E0C8  0E00               	movlw	0
  6837  00E0CA  6E37               	movwf	(?___fladd+2)^0,c
  6838  00E0CC  0E00               	movlw	0
  6839  00E0CE  6E38               	movwf	(?___fladd+3)^0,c
  6840  00E0D0  EF28  F071         	goto	l1209
  6841  00E0D4                     l3483:
  6842  00E0D4  90D8               	bcf	status,0,c
  6843  00E0D6  3635               	rlcf	___fladd@b^0,f,c
  6844  00E0D8  3636               	rlcf	(___fladd@b+1)^0,f,c
  6845  00E0DA  3637               	rlcf	(___fladd@b+2)^0,f,c
  6846  00E0DC  3638               	rlcf	(___fladd@b+3)^0,f,c
  6847  00E0DE  AE44               	btfss	___fladd@grs^0,7,c
  6848  00E0E0  EF74  F070         	goto	u2911
  6849  00E0E4  EF76  F070         	goto	u2910
  6850  00E0E8                     u2911:
  6851  00E0E8  EF77  F070         	goto	l3489
  6852  00E0EC                     u2910:
  6853  00E0EC  8035               	bsf	___fladd@b^0,0,c
  6854  00E0EE                     l3489:
  6855  00E0EE  A044               	btfss	___fladd@grs^0,0,c
  6856  00E0F0  EF7C  F070         	goto	u2921
  6857  00E0F4  EF7E  F070         	goto	u2920
  6858  00E0F8                     u2921:
  6859  00E0F8  EF82  F070         	goto	l3493
  6860  00E0FC                     u2920:
  6861  00E0FC  80D8               	bsf	status,0,c
  6862  00E0FE  3644               	rlcf	___fladd@grs^0,f,c
  6863  00E100  EF84  F070         	goto	l3495
  6864  00E104                     l3493:
  6865  00E104  90D8               	bcf	status,0,c
  6866  00E106  3644               	rlcf	___fladd@grs^0,f,c
  6867  00E108                     l3495:
  6868  00E108  5043               	movf	___fladd@bexp^0,w,c
  6869  00E10A  B4D8               	btfsc	status,2,c
  6870  00E10C  EF8A  F070         	goto	u2931
  6871  00E110  EF8C  F070         	goto	u2930
  6872  00E114                     u2931:
  6873  00E114  EF8D  F070         	goto	l3499
  6874  00E118                     u2930:
  6875  00E118  0643               	decf	___fladd@bexp^0,f,c
  6876  00E11A                     l3499:
  6877  00E11A  AE37               	btfss	(___fladd@b+2)^0,7,c
  6878  00E11C  EF92  F070         	goto	u2941
  6879  00E120  EF94  F070         	goto	u2940
  6880  00E124                     u2941:
  6881  00E124  EF6A  F070         	goto	l3483
  6882  00E128                     u2940:
  6883  00E128                     l3501:
  6884  00E128  0E00               	movlw	0
  6885  00E12A  6E42               	movwf	___fladd@aexp^0,c
  6886  00E12C  AE44               	btfss	___fladd@grs^0,7,c
  6887  00E12E  EF9B  F070         	goto	u2951
  6888  00E132  EF9D  F070         	goto	u2950
  6889  00E136                     u2951:
  6890  00E136  EFB5  F070         	goto	l1226
  6891  00E13A                     u2950:
  6892  00E13A  C044  F03D         	movff	___fladd@grs,??___fladd
  6893  00E13E  0E7F               	movlw	127
  6894  00E140  163D               	andwf	??___fladd^0,f,c
  6895  00E142  B4D8               	btfsc	status,2,c
  6896  00E144  EFA6  F070         	goto	u2961
  6897  00E148  EFA8  F070         	goto	u2960
  6898  00E14C                     u2961:
  6899  00E14C  EFAC  F070         	goto	l1227
  6900  00E150                     u2960:
  6901  00E150                     l3507:
  6902  00E150  0E01               	movlw	1
  6903  00E152  6E42               	movwf	___fladd@aexp^0,c
  6904  00E154  EFB5  F070         	goto	l1226
  6905  00E158                     l1227:
  6906  00E158  A035               	btfss	___fladd@b^0,0,c
  6907  00E15A  EFB1  F070         	goto	u2971
  6908  00E15E  EFB3  F070         	goto	u2970
  6909  00E162                     u2971:
  6910  00E162  EFB5  F070         	goto	l1226
  6911  00E166                     u2970:
  6912  00E166  EFA8  F070         	goto	l3507
  6913  00E16A                     l1226:
  6914  00E16A  5042               	movf	___fladd@aexp^0,w,c
  6915  00E16C  B4D8               	btfsc	status,2,c
  6916  00E16E  EFBB  F070         	goto	u2981
  6917  00E172  EFBD  F070         	goto	u2980
  6918  00E176                     u2981:
  6919  00E176  EFE8  F070         	goto	l3519
  6920  00E17A                     u2980:
  6921  00E17A  0E01               	movlw	1
  6922  00E17C  2635               	addwf	___fladd@b^0,f,c
  6923  00E17E  0E00               	movlw	0
  6924  00E180  2236               	addwfc	(___fladd@b+1)^0,f,c
  6925  00E182  2237               	addwfc	(___fladd@b+2)^0,f,c
  6926  00E184  2238               	addwfc	(___fladd@b+3)^0,f,c
  6927  00E186  A038               	btfss	(___fladd@b+3)^0,0,c
  6928  00E188  EFC8  F070         	goto	u2991
  6929  00E18C  EFCA  F070         	goto	u2990
  6930  00E190                     u2991:
  6931  00E190  EFE8  F070         	goto	l3519
  6932  00E194                     u2990:
  6933  00E194  C035  F03D         	movff	___fladd@b,??___fladd
  6934  00E198  C036  F03E         	movff	___fladd@b+1,??___fladd+1
  6935  00E19C  C037  F03F         	movff	___fladd@b+2,??___fladd+2
  6936  00E1A0  C038  F040         	movff	___fladd@b+3,??___fladd+3
  6937  00E1A4  3440               	rlcf	(??___fladd+3)^0,w,c
  6938  00E1A6  3240               	rrcf	(??___fladd+3)^0,f,c
  6939  00E1A8  323F               	rrcf	(??___fladd+2)^0,f,c
  6940  00E1AA  323E               	rrcf	(??___fladd+1)^0,f,c
  6941  00E1AC  323D               	rrcf	??___fladd^0,f,c
  6942  00E1AE  C03D  F035         	movff	??___fladd,___fladd@b
  6943  00E1B2  C03E  F036         	movff	??___fladd+1,___fladd@b+1
  6944  00E1B6  C03F  F037         	movff	??___fladd+2,___fladd@b+2
  6945  00E1BA  C040  F038         	movff	??___fladd+3,___fladd@b+3
  6946  00E1BE  2843               	incf	___fladd@bexp^0,w,c
  6947  00E1C0  B4D8               	btfsc	status,2,c
  6948  00E1C2  EFE5  F070         	goto	u3001
  6949  00E1C6  EFE7  F070         	goto	u3000
  6950  00E1CA                     u3001:
  6951  00E1CA  EFE8  F070         	goto	l3519
  6952  00E1CE                     u3000:
  6953  00E1CE  2A43               	incf	___fladd@bexp^0,f,c
  6954  00E1D0                     l3519:
  6955  00E1D0  2843               	incf	___fladd@bexp^0,w,c
  6956  00E1D2  B4D8               	btfsc	status,2,c
  6957  00E1D4  EFEE  F070         	goto	u3011
  6958  00E1D8  EFF0  F070         	goto	u3010
  6959  00E1DC                     u3011:
  6960  00E1DC  EFF8  F070         	goto	l3523
  6961  00E1E0                     u3010:
  6962  00E1E0  5043               	movf	___fladd@bexp^0,w,c
  6963  00E1E2  A4D8               	btfss	status,2,c
  6964  00E1E4  EFF6  F070         	goto	u3021
  6965  00E1E8  EFF8  F070         	goto	u3020
  6966  00E1EC                     u3021:
  6967  00E1EC  EF0A  F071         	goto	l3527
  6968  00E1F0                     u3020:
  6969  00E1F0                     l3523:
  6970  00E1F0  0E00               	movlw	0
  6971  00E1F2  6E35               	movwf	___fladd@b^0,c
  6972  00E1F4  0E00               	movlw	0
  6973  00E1F6  6E36               	movwf	(___fladd@b+1)^0,c
  6974  00E1F8  0E00               	movlw	0
  6975  00E1FA  6E37               	movwf	(___fladd@b+2)^0,c
  6976  00E1FC  0E00               	movlw	0
  6977  00E1FE  6E38               	movwf	(___fladd@b+3)^0,c
  6978  00E200  5043               	movf	___fladd@bexp^0,w,c
  6979  00E202  A4D8               	btfss	status,2,c
  6980  00E204  EF06  F071         	goto	u3031
  6981  00E208  EF08  F071         	goto	u3030
  6982  00E20C                     u3031:
  6983  00E20C  EF0A  F071         	goto	l3527
  6984  00E210                     u3030:
  6985  00E210  0E00               	movlw	0
  6986  00E212  6E41               	movwf	___fladd@signs^0,c
  6987  00E214                     l3527:
  6988  00E214  A043               	btfss	___fladd@bexp^0,0,c
  6989  00E216  EF0F  F071         	goto	u3041
  6990  00E21A  EF11  F071         	goto	u3040
  6991  00E21E                     u3041:
  6992  00E21E  EF14  F071         	goto	l3531
  6993  00E222                     u3040:
  6994  00E222  8E37               	bsf	(___fladd@b+2)^0,7,c
  6995  00E224  EF15  F071         	goto	l3533
  6996  00E228                     l3531:
  6997  00E228  9E37               	bcf	(___fladd@b+2)^0,7,c
  6998  00E22A                     l3533:
  6999  00E22A  90D8               	bcf	status,0,c
  7000  00E22C  3043               	rrcf	___fladd@bexp^0,w,c
  7001  00E22E  6E38               	movwf	(___fladd@b+3)^0,c
  7002  00E230  AE41               	btfss	___fladd@signs^0,7,c
  7003  00E232  EF1D  F071         	goto	u3051
  7004  00E236  EF1F  F071         	goto	u3050
  7005  00E23A                     u3051:
  7006  00E23A  EF20  F071         	goto	l3539
  7007  00E23E                     u3050:
  7008  00E23E  8E38               	bsf	(___fladd@b+3)^0,7,c
  7009  00E240                     l3539:
  7010  00E240  C035  F035         	movff	___fladd@b,?___fladd
  7011  00E244  C036  F036         	movff	___fladd@b+1,?___fladd+1
  7012  00E248  C037  F037         	movff	___fladd@b+2,?___fladd+2
  7013  00E24C  C038  F038         	movff	___fladd@b+3,?___fladd+3
  7014  00E250                     l1209:
  7015  00E250  0012               	return		;funcret
  7016  00E252                     __end_of___fladd:
  7017                           	callstack 0
  7018                           
  7019 ;; *************** function _atoi *****************
  7020 ;; Defined at:
  7021 ;;		line 5 in file "C:\Program Files\Microchip\xc8\v2.30\pic\sources\c90\common\atoi.c"
  7022 ;; Parameters:    Size  Location     Type
  7023 ;;  s               2    6[COMRAM] PTR const unsigned char 
  7024 ;;		 -> main@gap1(3), 
  7025 ;; Auto vars:     Size  Location     Type
  7026 ;;  a               2   11[COMRAM] int 
  7027 ;;  sign            1   10[COMRAM] unsigned char 
  7028 ;; Return value:  Size  Location     Type
  7029 ;;                  2    6[COMRAM] int 
  7030 ;; Registers used:
  7031 ;;		wreg, fsr2l, fsr2h, status,2, status,0, prodl, prodh, cstack
  7032 ;; Tracked objects:
  7033 ;;		On entry : 0/0
  7034 ;;		On exit  : 0/0
  7035 ;;		Unchanged: 0/0
  7036 ;; Data sizes:     COMRAM   BANK0   BANK1   BANK2   BANK3   BANK4   BANK5   BANK6   BANK7   BANK8   BANK9  BANK10  BANK1
      +1  BANK12  BANK13  BANK14  BANK15
  7037 ;;      Params:         2       0       0       0       0       0       0       0       0       0       0       0       
      +0       0       0       0       0
  7038 ;;      Locals:         3       0       0       0       0       0       0       0       0       0       0       0       
      +0       0       0       0       0
  7039 ;;      Temps:          2       0       0       0       0       0       0       0       0       0       0       0       
      +0       0       0       0       0
  7040 ;;      Totals:         7       0       0       0       0       0       0       0       0       0       0       0       
      +0       0       0       0       0
  7041 ;;Total ram usage:        7 bytes
  7042 ;; Hardware stack levels used:    1
  7043 ;; Hardware stack levels required when called:    1
  7044 ;; This function calls:
  7045 ;;		___wmul
  7046 ;;		_isdigit
  7047 ;; This function is called by:
  7048 ;;		_main
  7049 ;; This function uses a non-reentrant model
  7050 ;;
  7051                           
  7052                           	psect	text18
  7053  00C87A                     __ptext18:
  7054                           	callstack 0
  7055  00C87A                     _atoi:
  7056                           	callstack 29
  7057  00C87A  EF41  F064         	goto	l4807
  7058  00C87E                     l4805:
  7059  00C87E  4A07               	infsnz	atoi@s^0,f,c
  7060  00C880  2A08               	incf	(atoi@s+1)^0,f,c
  7061  00C882                     l4807:
  7062  00C882  0060  F01F  FFD9   	movff	atoi@s,fsr2l
  7063  00C888  0060  F023  FFDA   	movff	atoi@s+1,fsr2h
  7064  00C88E  0E20               	movlw	32
  7065  00C890  18DE               	xorwf	postinc2,w,c
  7066  00C892  B4D8               	btfsc	status,2,c
  7067  00C894  EF4E  F064         	goto	u5021
  7068  00C898  EF50  F064         	goto	u5020
  7069  00C89C                     u5021:
  7070  00C89C  EF3F  F064         	goto	l4805
  7071  00C8A0                     u5020:
  7072  00C8A0  0060  F01F  FFD9   	movff	atoi@s,fsr2l
  7073  00C8A6  0060  F023  FFDA   	movff	atoi@s+1,fsr2h
  7074  00C8AC  0E09               	movlw	9
  7075  00C8AE  18DE               	xorwf	postinc2,w,c
  7076  00C8B0  B4D8               	btfsc	status,2,c
  7077  00C8B2  EF5D  F064         	goto	u5031
  7078  00C8B6  EF5F  F064         	goto	u5030
  7079  00C8BA                     u5031:
  7080  00C8BA  EF3F  F064         	goto	l4805
  7081  00C8BE                     u5030:
  7082  00C8BE  0E00               	movlw	0
  7083  00C8C0  6E0D               	movwf	(atoi@a+1)^0,c
  7084  00C8C2  0E00               	movlw	0
  7085  00C8C4  6E0C               	movwf	atoi@a^0,c
  7086  00C8C6  0E00               	movlw	0
  7087  00C8C8  6E0B               	movwf	atoi@sign^0,c
  7088  00C8CA  0060  F01F  FFD9   	movff	atoi@s,fsr2l
  7089  00C8D0  0060  F023  FFDA   	movff	atoi@s+1,fsr2h
  7090  00C8D6  0E2D               	movlw	45
  7091  00C8D8  18DE               	xorwf	postinc2,w,c
  7092  00C8DA  A4D8               	btfss	status,2,c
  7093  00C8DC  EF72  F064         	goto	u5041
  7094  00C8E0  EF74  F064         	goto	u5040
  7095  00C8E4                     u5041:
  7096  00C8E4  EF79  F064         	goto	l4817
  7097  00C8E8                     u5040:
  7098  00C8E8  2A0B               	incf	atoi@sign^0,f,c
  7099  00C8EA  4A07               	infsnz	atoi@s^0,f,c
  7100  00C8EC  2A08               	incf	(atoi@s+1)^0,f,c
  7101  00C8EE  EFAA  F064         	goto	l4825
  7102  00C8F2                     l4817:
  7103  00C8F2  0060  F01F  FFD9   	movff	atoi@s,fsr2l
  7104  00C8F8  0060  F023  FFDA   	movff	atoi@s+1,fsr2h
  7105  00C8FE  0E2B               	movlw	43
  7106  00C900  18DE               	xorwf	postinc2,w,c
  7107  00C902  A4D8               	btfss	status,2,c
  7108  00C904  EF86  F064         	goto	u5051
  7109  00C908  EF88  F064         	goto	u5050
  7110  00C90C                     u5051:
  7111  00C90C  EFAA  F064         	goto	l4825
  7112  00C910                     u5050:
  7113  00C910                     l4819:
  7114  00C910  4A07               	infsnz	atoi@s^0,f,c
  7115  00C912  2A08               	incf	(atoi@s+1)^0,f,c
  7116  00C914  EFAA  F064         	goto	l4825
  7117  00C918                     l4821:
  7118  00C918  C00C  F001         	movff	atoi@a,___wmul@multiplier
  7119  00C91C  C00D  F002         	movff	atoi@a+1,___wmul@multiplier+1
  7120  00C920  0E00               	movlw	0
  7121  00C922  6E04               	movwf	(___wmul@multiplicand+1)^0,c
  7122  00C924  0E0A               	movlw	10
  7123  00C926  6E03               	movwf	___wmul@multiplicand^0,c
  7124  00C928  ECF1  F05E         	call	___wmul	;wreg free
  7125  00C92C  0060  F01F  FFD9   	movff	atoi@s,fsr2l
  7126  00C932  0060  F023  FFDA   	movff	atoi@s+1,fsr2h
  7127  00C938  50DF               	movf	indf2,w,c
  7128  00C93A  6E09               	movwf	??_atoi^0,c
  7129  00C93C  5009               	movf	??_atoi^0,w,c
  7130  00C93E  2601               	addwf	?___wmul^0,f,c
  7131  00C940  0E00               	movlw	0
  7132  00C942  2202               	addwfc	(?___wmul+1)^0,f,c
  7133  00C944  0ED0               	movlw	208
  7134  00C946  2401               	addwf	?___wmul^0,w,c
  7135  00C948  6E0C               	movwf	atoi@a^0,c
  7136  00C94A  0EFF               	movlw	255
  7137  00C94C  2002               	addwfc	(?___wmul+1)^0,w,c
  7138  00C94E  6E0D               	movwf	(atoi@a+1)^0,c
  7139  00C950  EF88  F064         	goto	l4819
  7140  00C954                     l4825:
  7141  00C954  0060  F01F  FFD9   	movff	atoi@s,fsr2l
  7142  00C95A  0060  F023  FFDA   	movff	atoi@s+1,fsr2h
  7143  00C960  50DF               	movf	indf2,w,c
  7144  00C962  EC06  F05F         	call	_isdigit
  7145  00C966  B0D8               	btfsc	status,0,c
  7146  00C968  EFB8  F064         	goto	u5061
  7147  00C96C  EFBA  F064         	goto	u5060
  7148  00C970                     u5061:
  7149  00C970  EF8C  F064         	goto	l4821
  7150  00C974                     u5060:
  7151  00C974  500B               	movf	atoi@sign^0,w,c
  7152  00C976  B4D8               	btfsc	status,2,c
  7153  00C978  EFC0  F064         	goto	u5071
  7154  00C97C  EFC2  F064         	goto	u5070
  7155  00C980                     u5071:
  7156  00C980  EFD0  F064         	goto	l1418
  7157  00C984                     u5070:
  7158  00C984  C00C  F009         	movff	atoi@a,??_atoi
  7159  00C988  C00D  F00A         	movff	atoi@a+1,??_atoi+1
  7160  00C98C  1E09               	comf	??_atoi^0,f,c
  7161  00C98E  1E0A               	comf	(??_atoi+1)^0,f,c
  7162  00C990  4A09               	infsnz	??_atoi^0,f,c
  7163  00C992  2A0A               	incf	(??_atoi+1)^0,f,c
  7164  00C994  C009  F007         	movff	??_atoi,?_atoi
  7165  00C998  C00A  F008         	movff	??_atoi+1,?_atoi+1
  7166  00C99C  EFD4  F064         	goto	l1419
  7167  00C9A0                     l1418:
  7168  00C9A0  C00C  F007         	movff	atoi@a,?_atoi
  7169  00C9A4  C00D  F008         	movff	atoi@a+1,?_atoi+1
  7170  00C9A8                     l1419:
  7171  00C9A8  0012               	return		;funcret
  7172  00C9AA                     __end_of_atoi:
  7173                           	callstack 0
  7174                           
  7175 ;; *************** function ___wmul *****************
  7176 ;; Defined at:
  7177 ;;		line 15 in file "C:\Program Files\Microchip\xc8\v2.30\pic\sources\c90\common\Umul16.c"
  7178 ;; Parameters:    Size  Location     Type
  7179 ;;  multiplier      2    0[COMRAM] unsigned int 
  7180 ;;  multiplicand    2    2[COMRAM] unsigned int 
  7181 ;; Auto vars:     Size  Location     Type
  7182 ;;  product         2    4[COMRAM] unsigned int 
  7183 ;; Return value:  Size  Location     Type
  7184 ;;                  2    0[COMRAM] unsigned int 
  7185 ;; Registers used:
  7186 ;;		wreg, status,2, status,0, prodl, prodh
  7187 ;; Tracked objects:
  7188 ;;		On entry : 0/0
  7189 ;;		On exit  : 0/0
  7190 ;;		Unchanged: 0/0
  7191 ;; Data sizes:     COMRAM   BANK0   BANK1   BANK2   BANK3   BANK4   BANK5   BANK6   BANK7   BANK8   BANK9  BANK10  BANK1
      +1  BANK12  BANK13  BANK14  BANK15
  7192 ;;      Params:         4       0       0       0       0       0       0       0       0       0       0       0       
      +0       0       0       0       0
  7193 ;;      Locals:         2       0       0       0       0       0       0       0       0       0       0       0       
      +0       0       0       0       0
  7194 ;;      Temps:          0       0       0       0       0       0       0       0       0       0       0       0       
      +0       0       0       0       0
  7195 ;;      Totals:         6       0       0       0       0       0       0       0       0       0       0       0       
      +0       0       0       0       0
  7196 ;;Total ram usage:        6 bytes
  7197 ;; Hardware stack levels used:    1
  7198 ;; This function calls:
  7199 ;;		Nothing
  7200 ;; This function is called by:
  7201 ;;		_printf
  7202 ;;		_atoi
  7203 ;; This function uses a non-reentrant model
  7204 ;;
  7205                           
  7206                           	psect	text19
  7207  00BDE2                     __ptext19:
  7208                           	callstack 0
  7209  00BDE2                     ___wmul:
  7210                           	callstack 29
  7211  00BDE2  5001               	movf	___wmul@multiplier^0,w,c
  7212  00BDE4  0203               	mulwf	___wmul@multiplicand^0,c
  7213  00BDE6  006F FFCC  F005    	movff	prodl,___wmul@product
  7214  00BDEC  006F FFD0  F006    	movff	prodh,___wmul@product+1
  7215  00BDF2  5001               	movf	___wmul@multiplier^0,w,c
  7216  00BDF4  0204               	mulwf	(___wmul@multiplicand+1)^0,c
  7217  00BDF6  50F3               	movf	243,w,c
  7218  00BDF8  2606               	addwf	(___wmul@product+1)^0,f,c
  7219  00BDFA  5002               	movf	(___wmul@multiplier+1)^0,w,c
  7220  00BDFC  0203               	mulwf	___wmul@multiplicand^0,c
  7221  00BDFE  50F3               	movf	243,w,c
  7222  00BE00  2606               	addwf	(___wmul@product+1)^0,f,c
  7223  00BE02  C005  F001         	movff	___wmul@product,?___wmul
  7224  00BE06  C006  F002         	movff	___wmul@product+1,?___wmul+1
  7225  00BE0A  0012               	return		;funcret
  7226  00BE0C                     __end_of___wmul:
  7227                           	callstack 0
  7228                           
  7229 ;; *************** function _atof *****************
  7230 ;; Defined at:
  7231 ;;		line 200 in file "C:\Program Files\Microchip\xc8\v2.30\pic\sources\c90\common\atof.c"
  7232 ;; Parameters:    Size  Location     Type
  7233 ;;  s               2   51[COMRAM] PTR const unsigned char 
  7234 ;;		 -> main@length1(5), 
  7235 ;; Auto vars:     Size  Location     Type
  7236 ;;		None
  7237 ;; Return value:  Size  Location     Type
  7238 ;;                  4   51[COMRAM] PTR const unsigned char 
  7239 ;; Registers used:
  7240 ;;		wreg, fsr2l, fsr2h, status,2, status,0, prodl, prodh, cstack
  7241 ;; Tracked objects:
  7242 ;;		On entry : 0/0
  7243 ;;		On exit  : 0/0
  7244 ;;		Unchanged: 0/0
  7245 ;; Data sizes:     COMRAM   BANK0   BANK1   BANK2   BANK3   BANK4   BANK5   BANK6   BANK7   BANK8   BANK9  BANK10  BANK1
      +1  BANK12  BANK13  BANK14  BANK15
  7246 ;;      Params:         4       0       0       0       0       0       0       0       0       0       0       0       
      +0       0       0       0       0
  7247 ;;      Locals:         0       0       0       0       0       0       0       0       0       0       0       0       
      +0       0       0       0       0
  7248 ;;      Temps:          0       0       0       0       0       0       0       0       0       0       0       0       
      +0       0       0       0       0
  7249 ;;      Totals:         4       0       0       0       0       0       0       0       0       0       0       0       
      +0       0       0       0       0
  7250 ;;Total ram usage:        4 bytes
  7251 ;; Hardware stack levels used:    1
  7252 ;; Hardware stack levels required when called:    2
  7253 ;; This function calls:
  7254 ;;		_strtod
  7255 ;; This function is called by:
  7256 ;;		_main
  7257 ;; This function uses a non-reentrant model
  7258 ;;
  7259                           
  7260                           	psect	text20
  7261  00BD92                     __ptext20:
  7262                           	callstack 0
  7263  00BD92                     _atof:
  7264                           	callstack 28
  7265  00BD92  C034  F028         	movff	atof@s,strtod@s
  7266  00BD96  C035  F029         	movff	atof@s+1,strtod@s+1
  7267  00BD9A  0E00               	movlw	0
  7268  00BD9C  6E2A               	movwf	strtod@res^0,c
  7269  00BD9E  0E00               	movlw	0
  7270  00BDA0  6E2B               	movwf	(strtod@res+1)^0,c
  7271  00BDA2  EC29  F071         	call	_strtod	;wreg free
  7272  00BDA6  C028  F034         	movff	?_strtod,?_atof
  7273  00BDAA  C029  F035         	movff	?_strtod+1,?_atof+1
  7274  00BDAE  C02A  F036         	movff	?_strtod+2,?_atof+2
  7275  00BDB2  C02B  F037         	movff	?_strtod+3,?_atof+3
  7276  00BDB6  0012               	return		;funcret
  7277  00BDB8                     __end_of_atof:
  7278                           	callstack 0
  7279                           
  7280 ;; *************** function _strtod *****************
  7281 ;; Defined at:
  7282 ;;		line 35 in file "C:\Program Files\Microchip\xc8\v2.30\pic\sources\c90\common\atof.c"
  7283 ;; Parameters:    Size  Location     Type
  7284 ;;  s               2   39[COMRAM] PTR const unsigned char 
  7285 ;;		 -> main@length1(5), 
  7286 ;;  res             2   41[COMRAM] PTR PTR const unsigned c
  7287 ;;		 -> NULL(0), 
  7288 ;; Auto vars:     Size  Location     Type
  7289 ;;  _u              4   47[COMRAM] struct .
  7290 ;;  expon           1   46[COMRAM] char 
  7291 ;;  flags           1   45[COMRAM] unsigned char 
  7292 ;;  eexp            1   44[COMRAM] char 
  7293 ;; Return value:  Size  Location     Type
  7294 ;;                  4   39[COMRAM] char 
  7295 ;; Registers used:
  7296 ;;		wreg, fsr2l, fsr2h, status,2, status,0, prodl, prodh, cstack
  7297 ;; Tracked objects:
  7298 ;;		On entry : 0/0
  7299 ;;		On exit  : 0/0
  7300 ;;		Unchanged: 0/0
  7301 ;; Data sizes:     COMRAM   BANK0   BANK1   BANK2   BANK3   BANK4   BANK5   BANK6   BANK7   BANK8   BANK9  BANK10  BANK1
      +1  BANK12  BANK13  BANK14  BANK15
  7302 ;;      Params:         4       0       0       0       0       0       0       0       0       0       0       0       
      +0       0       0       0       0
  7303 ;;      Locals:         7       0       0       0       0       0       0       0       0       0       0       0       
      +0       0       0       0       0
  7304 ;;      Temps:          1       0       0       0       0       0       0       0       0       0       0       0       
      +0       0       0       0       0
  7305 ;;      Totals:        12       0       0       0       0       0       0       0       0       0       0       0       
      +0       0       0       0       0
  7306 ;;Total ram usage:       12 bytes
  7307 ;; Hardware stack levels used:    1
  7308 ;; Hardware stack levels required when called:    1
  7309 ;; This function calls:
  7310 ;;		___fldiv
  7311 ;;		___fleq
  7312 ;;		___flge
  7313 ;;		___flmul
  7314 ;;		___flneg
  7315 ;;		___lmul
  7316 ;;		___xxtofl
  7317 ;;		_isdigit
  7318 ;;		_isspace
  7319 ;; This function is called by:
  7320 ;;		_atof
  7321 ;; This function uses a non-reentrant model
  7322 ;;
  7323                           
  7324                           	psect	text21
  7325  00E252                     __ptext21:
  7326                           	callstack 0
  7327  00E252                     _strtod:
  7328                           	callstack 28
  7329  00E252  502A               	movf	strtod@res^0,w,c
  7330  00E254  102B               	iorwf	(strtod@res+1)^0,w,c
  7331  00E256  B4D8               	btfsc	status,2,c
  7332  00E258  EF30  F071         	goto	u4641
  7333  00E25C  EF32  F071         	goto	u4640
  7334  00E260                     u4641:
  7335  00E260  EF42  F071         	goto	l4603
  7336  00E264                     u4640:
  7337  00E264  0060  F0AB  FFD9   	movff	strtod@res,fsr2l
  7338  00E26A  0060  F0AF  FFDA   	movff	strtod@res+1,fsr2h
  7339  00E270  0060  F0A3  FFDE   	movff	strtod@s,postinc2
  7340  00E276  0060  F0A7  FFDD   	movff	strtod@s+1,postdec2
  7341  00E27C  EF42  F071         	goto	l4603
  7342  00E280                     l4601:
  7343  00E280  4A28               	infsnz	strtod@s^0,f,c
  7344  00E282  2A29               	incf	(strtod@s+1)^0,f,c
  7345  00E284                     l4603:
  7346  00E284  0060  F0A3  FFD9   	movff	strtod@s,fsr2l
  7347  00E28A  0060  F0A7  FFDA   	movff	strtod@s+1,fsr2h
  7348  00E290  50DF               	movf	indf2,w,c
  7349  00E292  6E2D               	movwf	strtod@eexp^0,c
  7350  00E294  502D               	movf	strtod@eexp^0,w,c
  7351  00E296  EC3B  F05F         	call	_isspace
  7352  00E29A  B0D8               	btfsc	status,0,c
  7353  00E29C  EF52  F071         	goto	u4651
  7354  00E2A0  EF54  F071         	goto	u4650
  7355  00E2A4                     u4651:
  7356  00E2A4  EF40  F071         	goto	l4601
  7357  00E2A8                     u4650:
  7358  00E2A8  0E00               	movlw	0
  7359  00E2AA  6E2E               	movwf	strtod@flags^0,c
  7360  00E2AC  0E2D               	movlw	45
  7361  00E2AE  182D               	xorwf	strtod@eexp^0,w,c
  7362  00E2B0  A4D8               	btfss	status,2,c
  7363  00E2B2  EF5D  F071         	goto	u4661
  7364  00E2B6  EF5F  F071         	goto	u4660
  7365  00E2BA                     u4661:
  7366  00E2BA  EF65  F071         	goto	l4613
  7367  00E2BE                     u4660:
  7368  00E2BE  0E01               	movlw	1
  7369  00E2C0  6E2E               	movwf	strtod@flags^0,c
  7370  00E2C2                     l4611:
  7371  00E2C2  4A28               	infsnz	strtod@s^0,f,c
  7372  00E2C4  2A29               	incf	(strtod@s+1)^0,f,c
  7373  00E2C6  EF70  F071         	goto	l4617
  7374  00E2CA                     l4613:
  7375  00E2CA  0E2B               	movlw	43
  7376  00E2CC  182D               	xorwf	strtod@eexp^0,w,c
  7377  00E2CE  A4D8               	btfss	status,2,c
  7378  00E2D0  EF6C  F071         	goto	u4671
  7379  00E2D4  EF6E  F071         	goto	u4670
  7380  00E2D8                     u4671:
  7381  00E2D8  EF70  F071         	goto	l4617
  7382  00E2DC                     u4670:
  7383  00E2DC  EF61  F071         	goto	l4611
  7384  00E2E0                     l4617:
  7385  00E2E0  0E00               	movlw	0
  7386  00E2E2  6E2D               	movwf	strtod@eexp^0,c
  7387  00E2E4  0E00               	movlw	0
  7388  00E2E6  6E30               	movwf	strtod@_u^0,c
  7389  00E2E8  0E00               	movlw	0
  7390  00E2EA  6E31               	movwf	(strtod@_u+1)^0,c
  7391  00E2EC  0E00               	movlw	0
  7392  00E2EE  6E32               	movwf	(strtod@_u+2)^0,c
  7393  00E2F0  0E00               	movlw	0
  7394  00E2F2  6E33               	movwf	(strtod@_u+3)^0,c
  7395  00E2F4  0E00               	movlw	0
  7396  00E2F6  6E2F               	movwf	strtod@expon^0,c
  7397  00E2F8                     l4623:
  7398  00E2F8  B82E               	btfsc	strtod@flags^0,4,c
  7399  00E2FA  EF81  F071         	goto	u4681
  7400  00E2FE  EF83  F071         	goto	u4680
  7401  00E302                     u4681:
  7402  00E302  EF97  F071         	goto	l4629
  7403  00E306                     u4680:
  7404  00E306  0060  F0A3  FFD9   	movff	strtod@s,fsr2l
  7405  00E30C  0060  F0A7  FFDA   	movff	strtod@s+1,fsr2h
  7406  00E312  0E2E               	movlw	46
  7407  00E314  18DE               	xorwf	postinc2,w,c
  7408  00E316  A4D8               	btfss	status,2,c
  7409  00E318  EF90  F071         	goto	u4691
  7410  00E31C  EF92  F071         	goto	u4690
  7411  00E320                     u4691:
  7412  00E320  EF97  F071         	goto	l4629
  7413  00E324                     u4690:
  7414  00E324  882E               	bsf	strtod@flags^0,4,c
  7415  00E326  4A28               	infsnz	strtod@s^0,f,c
  7416  00E328  2A29               	incf	(strtod@s+1)^0,f,c
  7417  00E32A  EF7C  F071         	goto	l4623
  7418  00E32E                     l4629:
  7419  00E32E  0060  F0A3  FFD9   	movff	strtod@s,fsr2l
  7420  00E334  0060  F0A7  FFDA   	movff	strtod@s+1,fsr2h
  7421  00E33A  50DF               	movf	indf2,w,c
  7422  00E33C  EC06  F05F         	call	_isdigit
  7423  00E340  B0D8               	btfsc	status,0,c
  7424  00E342  EFA5  F071         	goto	u4701
  7425  00E346  EFA7  F071         	goto	u4700
  7426  00E34A                     u4701:
  7427  00E34A  EFA9  F071         	goto	l4633
  7428  00E34E                     u4700:
  7429  00E34E  EFF4  F071         	goto	l4647
  7430  00E352                     l4633:
  7431  00E352  822E               	bsf	strtod@flags^0,1,c
  7432  00E354  0E09               	movlw	9
  7433  00E356  182D               	xorwf	strtod@eexp^0,w,c
  7434  00E358  B4D8               	btfsc	status,2,c
  7435  00E35A  EFB1  F071         	goto	u4711
  7436  00E35E  EFB3  F071         	goto	u4710
  7437  00E362                     u4711:
  7438  00E362  EFE8  F071         	goto	l1362
  7439  00E366                     u4710:
  7440  00E366  A82E               	btfss	strtod@flags^0,4,c
  7441  00E368  EFB8  F071         	goto	u4721
  7442  00E36C  EFBA  F071         	goto	u4720
  7443  00E370                     u4721:
  7444  00E370  EFBB  F071         	goto	l1363
  7445  00E374                     u4720:
  7446  00E374  062F               	decf	strtod@expon^0,f,c
  7447  00E376                     l1363:
  7448  00E376  2A2D               	incf	strtod@eexp^0,f,c
  7449  00E378  C030  F001         	movff	strtod@_u,___lmul@multiplier
  7450  00E37C  C031  F002         	movff	strtod@_u+1,___lmul@multiplier+1
  7451  00E380  C032  F003         	movff	strtod@_u+2,___lmul@multiplier+2
  7452  00E384  C033  F004         	movff	strtod@_u+3,___lmul@multiplier+3
  7453  00E388  0E0A               	movlw	10
  7454  00E38A  6E05               	movwf	___lmul@multiplicand^0,c
  7455  00E38C  0E00               	movlw	0
  7456  00E38E  6E06               	movwf	(___lmul@multiplicand+1)^0,c
  7457  00E390  0E00               	movlw	0
  7458  00E392  6E07               	movwf	(___lmul@multiplicand+2)^0,c
  7459  00E394  0E00               	movlw	0
  7460  00E396  6E08               	movwf	(___lmul@multiplicand+3)^0,c
  7461  00E398  ECE0  F05F         	call	___lmul	;wreg free
  7462  00E39C  C001  F030         	movff	?___lmul,strtod@_u
  7463  00E3A0  C002  F031         	movff	?___lmul+1,strtod@_u+1
  7464  00E3A4  C003  F032         	movff	?___lmul+2,strtod@_u+2
  7465  00E3A8  C004  F033         	movff	?___lmul+3,strtod@_u+3
  7466  00E3AC  0060  F0A3  FFD9   	movff	strtod@s,fsr2l
  7467  00E3B2  0060  F0A7  FFDA   	movff	strtod@s+1,fsr2h
  7468  00E3B8  50DF               	movf	indf2,w,c
  7469  00E3BA  6E2C               	movwf	??_strtod^0,c
  7470  00E3BC  0ED0               	movlw	208
  7471  00E3BE  262C               	addwf	??_strtod^0,f,c
  7472  00E3C0  502C               	movf	??_strtod^0,w,c
  7473  00E3C2  2630               	addwf	strtod@_u^0,f,c
  7474  00E3C4  0E00               	movlw	0
  7475  00E3C6  2231               	addwfc	(strtod@_u+1)^0,f,c
  7476  00E3C8  2232               	addwfc	(strtod@_u+2)^0,f,c
  7477  00E3CA  2233               	addwfc	(strtod@_u+3)^0,f,c
  7478  00E3CC  EFF0  F071         	goto	l1364
  7479  00E3D0                     l1362:
  7480  00E3D0  B82E               	btfsc	strtod@flags^0,4,c
  7481  00E3D2  EFED  F071         	goto	u4731
  7482  00E3D6  EFEF  F071         	goto	u4730
  7483  00E3DA                     u4731:
  7484  00E3DA  EFF0  F071         	goto	l1364
  7485  00E3DE                     u4730:
  7486  00E3DE  2A2F               	incf	strtod@expon^0,f,c
  7487  00E3E0                     l1364:
  7488  00E3E0  4A28               	infsnz	strtod@s^0,f,c
  7489  00E3E2  2A29               	incf	(strtod@s+1)^0,f,c
  7490  00E3E4  EF7C  F071         	goto	l4623
  7491  00E3E8                     l4647:
  7492  00E3E8  0E00               	movlw	0
  7493  00E3EA  6E2D               	movwf	strtod@eexp^0,c
  7494  00E3EC  0060  F0A3  FFD9   	movff	strtod@s,fsr2l
  7495  00E3F2  0060  F0A7  FFDA   	movff	strtod@s+1,fsr2h
  7496  00E3F8  0E65               	movlw	101
  7497  00E3FA  18DE               	xorwf	postinc2,w,c
  7498  00E3FC  B4D8               	btfsc	status,2,c
  7499  00E3FE  EF03  F072         	goto	u4741
  7500  00E402  EF05  F072         	goto	u4740
  7501  00E406                     u4741:
  7502  00E406  EF14  F072         	goto	l4653
  7503  00E40A                     u4740:
  7504  00E40A  0060  F0A3  FFD9   	movff	strtod@s,fsr2l
  7505  00E410  0060  F0A7  FFDA   	movff	strtod@s+1,fsr2h
  7506  00E416  0E45               	movlw	69
  7507  00E418  18DE               	xorwf	postinc2,w,c
  7508  00E41A  A4D8               	btfss	status,2,c
  7509  00E41C  EF12  F072         	goto	u4751
  7510  00E420  EF14  F072         	goto	u4750
  7511  00E424                     u4751:
  7512  00E424  EFAB  F072         	goto	l4685
  7513  00E428                     u4750:
  7514  00E428                     l4653:
  7515  00E428  4A28               	infsnz	strtod@s^0,f,c
  7516  00E42A  2A29               	incf	(strtod@s+1)^0,f,c
  7517  00E42C  0060  F0A3  FFD9   	movff	strtod@s,fsr2l
  7518  00E432  0060  F0A7  FFDA   	movff	strtod@s+1,fsr2h
  7519  00E438  0E2D               	movlw	45
  7520  00E43A  18DE               	xorwf	postinc2,w,c
  7521  00E43C  A4D8               	btfss	status,2,c
  7522  00E43E  EF23  F072         	goto	u4761
  7523  00E442  EF25  F072         	goto	u4760
  7524  00E446                     u4761:
  7525  00E446  EF2A  F072         	goto	l4657
  7526  00E44A                     u4760:
  7527  00E44A  862E               	bsf	strtod@flags^0,3,c
  7528  00E44C  4A28               	infsnz	strtod@s^0,f,c
  7529  00E44E  2A29               	incf	(strtod@s+1)^0,f,c
  7530  00E450  EF3B  F072         	goto	l4663
  7531  00E454                     l4657:
  7532  00E454  0060  F0A3  FFD9   	movff	strtod@s,fsr2l
  7533  00E45A  0060  F0A7  FFDA   	movff	strtod@s+1,fsr2h
  7534  00E460  0E2B               	movlw	43
  7535  00E462  18DE               	xorwf	postinc2,w,c
  7536  00E464  A4D8               	btfss	status,2,c
  7537  00E466  EF37  F072         	goto	u4771
  7538  00E46A  EF39  F072         	goto	u4770
  7539  00E46E                     u4771:
  7540  00E46E  EF3B  F072         	goto	l4663
  7541  00E472                     u4770:
  7542  00E472                     l4659:
  7543  00E472  4A28               	infsnz	strtod@s^0,f,c
  7544  00E474  2A29               	incf	(strtod@s+1)^0,f,c
  7545  00E476                     l4663:
  7546  00E476  0060  F0A3  FFD9   	movff	strtod@s,fsr2l
  7547  00E47C  0060  F0A7  FFDA   	movff	strtod@s+1,fsr2h
  7548  00E482  0E30               	movlw	48
  7549  00E484  18DE               	xorwf	postinc2,w,c
  7550  00E486  B4D8               	btfsc	status,2,c
  7551  00E488  EF48  F072         	goto	u4781
  7552  00E48C  EF4A  F072         	goto	u4780
  7553  00E490                     u4781:
  7554  00E490  EF39  F072         	goto	l4659
  7555  00E494                     u4780:
  7556  00E494  0060  F0A3  FFD9   	movff	strtod@s,fsr2l
  7557  00E49A  0060  F0A7  FFDA   	movff	strtod@s+1,fsr2h
  7558  00E4A0  50DF               	movf	indf2,w,c
  7559  00E4A2  EC06  F05F         	call	_isdigit
  7560  00E4A6  A0D8               	btfss	status,0,c
  7561  00E4A8  EF58  F072         	goto	u4791
  7562  00E4AC  EF5A  F072         	goto	u4790
  7563  00E4B0                     u4791:
  7564  00E4B0  EFA3  F072         	goto	l4681
  7565  00E4B4                     u4790:
  7566  00E4B4  0060  F0A3  FFD9   	movff	strtod@s,fsr2l
  7567  00E4BA  0060  F0A7  FFDA   	movff	strtod@s+1,fsr2h
  7568  00E4C0  50DF               	movf	indf2,w,c
  7569  00E4C2  0FD0               	addlw	208
  7570  00E4C4  6E2D               	movwf	strtod@eexp^0,c
  7571  00E4C6  4A28               	infsnz	strtod@s^0,f,c
  7572  00E4C8  2A29               	incf	(strtod@s+1)^0,f,c
  7573  00E4CA  0060  F0A3  FFD9   	movff	strtod@s,fsr2l
  7574  00E4D0  0060  F0A7  FFDA   	movff	strtod@s+1,fsr2h
  7575  00E4D6  50DF               	movf	indf2,w,c
  7576  00E4D8  EC06  F05F         	call	_isdigit
  7577  00E4DC  A0D8               	btfss	status,0,c
  7578  00E4DE  EF73  F072         	goto	u4801
  7579  00E4E2  EF75  F072         	goto	u4800
  7580  00E4E6                     u4801:
  7581  00E4E6  EFA3  F072         	goto	l4681
  7582  00E4EA                     u4800:
  7583  00E4EA  0060  F0A3  FFD9   	movff	strtod@s,fsr2l
  7584  00E4F0  0060  F0A7  FFDA   	movff	strtod@s+1,fsr2h
  7585  00E4F6  50DF               	movf	indf2,w,c
  7586  00E4F8  6E2C               	movwf	??_strtod^0,c
  7587  00E4FA  502D               	movf	strtod@eexp^0,w,c
  7588  00E4FC  0D0A               	mullw	10
  7589  00E4FE  50F3               	movf	243,w,c
  7590  00E500  242C               	addwf	??_strtod^0,w,c
  7591  00E502  0FD0               	addlw	208
  7592  00E504  6E2D               	movwf	strtod@eexp^0,c
  7593  00E506  4A28               	infsnz	strtod@s^0,f,c
  7594  00E508  2A29               	incf	(strtod@s+1)^0,f,c
  7595  00E50A  0060  F0A3  FFD9   	movff	strtod@s,fsr2l
  7596  00E510  0060  F0A7  FFDA   	movff	strtod@s+1,fsr2h
  7597  00E516  50DF               	movf	indf2,w,c
  7598  00E518  EC06  F05F         	call	_isdigit
  7599  00E51C  A0D8               	btfss	status,0,c
  7600  00E51E  EF93  F072         	goto	u4811
  7601  00E522  EF95  F072         	goto	u4810
  7602  00E526                     u4811:
  7603  00E526  EFA3  F072         	goto	l4681
  7604  00E52A                     u4810:
  7605  00E52A  0060  F0A3  FFD9   	movff	strtod@s,fsr2l
  7606  00E530  0060  F0A7  FFDA   	movff	strtod@s+1,fsr2h
  7607  00E536  50DF               	movf	indf2,w,c
  7608  00E538  6E2C               	movwf	??_strtod^0,c
  7609  00E53A  502D               	movf	strtod@eexp^0,w,c
  7610  00E53C  0D0A               	mullw	10
  7611  00E53E  50F3               	movf	243,w,c
  7612  00E540  242C               	addwf	??_strtod^0,w,c
  7613  00E542  0FD0               	addlw	208
  7614  00E544  6E2D               	movwf	strtod@eexp^0,c
  7615  00E546                     l4681:
  7616  00E546  A62E               	btfss	strtod@flags^0,3,c
  7617  00E548  EFA8  F072         	goto	u4821
  7618  00E54C  EFAA  F072         	goto	u4820
  7619  00E550                     u4821:
  7620  00E550  EFAB  F072         	goto	l4685
  7621  00E554                     u4820:
  7622  00E554  6C2D               	negf	strtod@eexp^0,c
  7623  00E556                     l4685:
  7624  00E556  502D               	movf	strtod@eexp^0,w,c
  7625  00E558  262F               	addwf	strtod@expon^0,f,c
  7626  00E55A  502A               	movf	strtod@res^0,w,c
  7627  00E55C  102B               	iorwf	(strtod@res+1)^0,w,c
  7628  00E55E  B4D8               	btfsc	status,2,c
  7629  00E560  EFB4  F072         	goto	u4831
  7630  00E564  EFB6  F072         	goto	u4830
  7631  00E568                     u4831:
  7632  00E568  EFC9  F072         	goto	l4693
  7633  00E56C                     u4830:
  7634  00E56C  A22E               	btfss	strtod@flags^0,1,c
  7635  00E56E  EFBB  F072         	goto	u4841
  7636  00E572  EFBD  F072         	goto	u4840
  7637  00E576                     u4841:
  7638  00E576  EFC9  F072         	goto	l4693
  7639  00E57A                     u4840:
  7640  00E57A  0060  F0AB  FFD9   	movff	strtod@res,fsr2l
  7641  00E580  0060  F0AF  FFDA   	movff	strtod@res+1,fsr2h
  7642  00E586  0060  F0A3  FFDE   	movff	strtod@s,postinc2
  7643  00E58C  0060  F0A7  FFDD   	movff	strtod@s+1,postdec2
  7644  00E592                     l4693:
  7645  00E592  C030  F001         	movff	strtod@_u,___xxtofl@val
  7646  00E596  C031  F002         	movff	strtod@_u+1,___xxtofl@val+1
  7647  00E59A  C032  F003         	movff	strtod@_u+2,___xxtofl@val+2
  7648  00E59E  C033  F004         	movff	strtod@_u+3,___xxtofl@val+3
  7649  00E5A2  0E01               	movlw	1
  7650  00E5A4  EC26  F066         	call	___xxtofl
  7651  00E5A8  C001  F030         	movff	?___xxtofl,strtod@_u
  7652  00E5AC  C002  F031         	movff	?___xxtofl+1,strtod@_u+1
  7653  00E5B0  C003  F032         	movff	?___xxtofl+2,strtod@_u+2
  7654  00E5B4  C004  F033         	movff	?___xxtofl+3,strtod@_u+3
  7655  00E5B8  C030  F001         	movff	strtod@_u,___fleq@ff1
  7656  00E5BC  C031  F002         	movff	strtod@_u+1,___fleq@ff1+1
  7657  00E5C0  C032  F003         	movff	strtod@_u+2,___fleq@ff1+2
  7658  00E5C4  C033  F004         	movff	strtod@_u+3,___fleq@ff1+3
  7659  00E5C8  0E00               	movlw	0
  7660  00E5CA  6E05               	movwf	___fleq@ff2^0,c
  7661  00E5CC  0E00               	movlw	0
  7662  00E5CE  6E06               	movwf	(___fleq@ff2+1)^0,c
  7663  00E5D0  0E00               	movlw	0
  7664  00E5D2  6E07               	movwf	(___fleq@ff2+2)^0,c
  7665  00E5D4  0E00               	movlw	0
  7666  00E5D6  6E08               	movwf	(___fleq@ff2+3)^0,c
  7667  00E5D8  ECC9  F061         	call	___fleq	;wreg free
  7668  00E5DC  A0D8               	btfss	status,0,c
  7669  00E5DE  EFF3  F072         	goto	u4851
  7670  00E5E2  EFF5  F072         	goto	u4850
  7671  00E5E6                     u4851:
  7672  00E5E6  EFFF  F072         	goto	l4701
  7673  00E5EA                     u4850:
  7674  00E5EA  0E00               	movlw	0
  7675  00E5EC  6E28               	movwf	?_strtod^0,c
  7676  00E5EE  0E00               	movlw	0
  7677  00E5F0  6E29               	movwf	(?_strtod+1)^0,c
  7678  00E5F2  0E00               	movlw	0
  7679  00E5F4  6E2A               	movwf	(?_strtod+2)^0,c
  7680  00E5F6  0E00               	movlw	0
  7681  00E5F8  6E2B               	movwf	(?_strtod+3)^0,c
  7682  00E5FA  EF32  F074         	goto	l1381
  7683  00E5FE                     l4701:
  7684  00E5FE  BE2F               	btfsc	strtod@expon^0,7,c
  7685  00E600  EF06  F073         	goto	u4860
  7686  00E604  EF04  F073         	goto	u4861
  7687  00E608                     u4861:
  7688  00E608  EF88  F073         	goto	l4729
  7689  00E60C                     u4860:
  7690  00E60C  6C2F               	negf	strtod@expon^0,c
  7691  00E60E  EF25  F073         	goto	l4709
  7692  00E612                     l4705:
  7693  00E612  C030  F00F         	movff	strtod@_u,___fldiv@b
  7694  00E616  C031  F010         	movff	strtod@_u+1,___fldiv@b+1
  7695  00E61A  C032  F011         	movff	strtod@_u+2,___fldiv@b+2
  7696  00E61E  C033  F012         	movff	strtod@_u+3,___fldiv@b+3
  7697  00E622  0EF9               	movlw	249
  7698  00E624  6E13               	movwf	___fldiv@a^0,c
  7699  00E626  0E02               	movlw	2
  7700  00E628  6E14               	movwf	(___fldiv@a+1)^0,c
  7701  00E62A  0E15               	movlw	21
  7702  00E62C  6E15               	movwf	(___fldiv@a+2)^0,c
  7703  00E62E  0E50               	movlw	80
  7704  00E630  6E16               	movwf	(___fldiv@a+3)^0,c
  7705  00E632  EC7B  F068         	call	___fldiv	;wreg free
  7706  00E636  C00F  F030         	movff	?___fldiv,strtod@_u
  7707  00E63A  C010  F031         	movff	?___fldiv+1,strtod@_u+1
  7708  00E63E  C011  F032         	movff	?___fldiv+2,strtod@_u+2
  7709  00E642  C012  F033         	movff	?___fldiv+3,strtod@_u+3
  7710  00E646  0EF6               	movlw	246
  7711  00E648  262F               	addwf	strtod@expon^0,f,c
  7712  00E64A                     l4709:
  7713  00E64A  502F               	movf	strtod@expon^0,w,c
  7714  00E64C  0A80               	xorlw	128
  7715  00E64E  0F76               	addlw	-138
  7716  00E650  B0D8               	btfsc	status,0,c
  7717  00E652  EF2D  F073         	goto	u4871
  7718  00E656  EF2F  F073         	goto	u4870
  7719  00E65A                     u4871:
  7720  00E65A  EF09  F073         	goto	l4705
  7721  00E65E                     u4870:
  7722  00E65E  EF4C  F073         	goto	l4715
  7723  00E662                     l4711:
  7724  00E662  C030  F00F         	movff	strtod@_u,___fldiv@b
  7725  00E666  C031  F010         	movff	strtod@_u+1,___fldiv@b+1
  7726  00E66A  C032  F011         	movff	strtod@_u+2,___fldiv@b+2
  7727  00E66E  C033  F012         	movff	strtod@_u+3,___fldiv@b+3
  7728  00E672  0E00               	movlw	0
  7729  00E674  6E13               	movwf	___fldiv@a^0,c
  7730  00E676  0E00               	movlw	0
  7731  00E678  6E14               	movwf	(___fldiv@a+1)^0,c
  7732  00E67A  0E20               	movlw	32
  7733  00E67C  6E15               	movwf	(___fldiv@a+2)^0,c
  7734  00E67E  0E41               	movlw	65
  7735  00E680  6E16               	movwf	(___fldiv@a+3)^0,c
  7736  00E682  EC7B  F068         	call	___fldiv	;wreg free
  7737  00E686  C00F  F030         	movff	?___fldiv,strtod@_u
  7738  00E68A  C010  F031         	movff	?___fldiv+1,strtod@_u+1
  7739  00E68E  C011  F032         	movff	?___fldiv+2,strtod@_u+2
  7740  00E692  C012  F033         	movff	?___fldiv+3,strtod@_u+3
  7741  00E696  062F               	decf	strtod@expon^0,f,c
  7742  00E698                     l4715:
  7743  00E698  502F               	movf	strtod@expon^0,w,c
  7744  00E69A  A4D8               	btfss	status,2,c
  7745  00E69C  EF52  F073         	goto	u4881
  7746  00E6A0  EF54  F073         	goto	u4880
  7747  00E6A4                     u4881:
  7748  00E6A4  EF31  F073         	goto	l4711
  7749  00E6A8                     u4880:
  7750  00E6A8  C030  F001         	movff	strtod@_u,___flge@ff1
  7751  00E6AC  C031  F002         	movff	strtod@_u+1,___flge@ff1+1
  7752  00E6B0  C032  F003         	movff	strtod@_u+2,___flge@ff1+2
  7753  00E6B4  C033  F004         	movff	strtod@_u+3,___flge@ff1+3
  7754  00E6B8  0E00               	movlw	0
  7755  00E6BA  6E05               	movwf	___flge@ff2^0,c
  7756  00E6BC  0E00               	movlw	0
  7757  00E6BE  6E06               	movwf	(___flge@ff2+1)^0,c
  7758  00E6C0  0E80               	movlw	128
  7759  00E6C2  6E07               	movwf	(___flge@ff2+2)^0,c
  7760  00E6C4  0E00               	movlw	0
  7761  00E6C6  6E08               	movwf	(___flge@ff2+3)^0,c
  7762  00E6C8  EC38  F063         	call	___flge	;wreg free
  7763  00E6CC  B0D8               	btfsc	status,0,c
  7764  00E6CE  EF6B  F073         	goto	u4891
  7765  00E6D2  EF6D  F073         	goto	u4890
  7766  00E6D6                     u4891:
  7767  00E6D6  EF11  F074         	goto	l1391
  7768  00E6DA                     u4890:
  7769  00E6DA  A02E               	btfss	strtod@flags^0,0,c
  7770  00E6DC  EF72  F073         	goto	u4901
  7771  00E6E0  EF74  F073         	goto	u4900
  7772  00E6E4                     u4901:
  7773  00E6E4  EF7E  F073         	goto	l4725
  7774  00E6E8                     u4900:
  7775  00E6E8  0E00               	movlw	0
  7776  00E6EA  6E28               	movwf	?_strtod^0,c
  7777  00E6EC  0E00               	movlw	0
  7778  00E6EE  6E29               	movwf	(?_strtod+1)^0,c
  7779  00E6F0  0E80               	movlw	128
  7780  00E6F2  6E2A               	movwf	(?_strtod+2)^0,c
  7781  00E6F4  0E80               	movlw	128
  7782  00E6F6  6E2B               	movwf	(?_strtod+3)^0,c
  7783  00E6F8  EF32  F074         	goto	l1381
  7784  00E6FC                     l4725:
  7785  00E6FC  0E00               	movlw	0
  7786  00E6FE  6E28               	movwf	?_strtod^0,c
  7787  00E700  0E00               	movlw	0
  7788  00E702  6E29               	movwf	(?_strtod+1)^0,c
  7789  00E704  0E80               	movlw	128
  7790  00E706  6E2A               	movwf	(?_strtod+2)^0,c
  7791  00E708  0E00               	movlw	0
  7792  00E70A  6E2B               	movwf	(?_strtod+3)^0,c
  7793  00E70C  EF32  F074         	goto	l1381
  7794  00E710                     l4729:
  7795  00E710  502F               	movf	strtod@expon^0,w,c
  7796  00E712  0A80               	xorlw	128
  7797  00E714  0F7F               	addlw	-129
  7798  00E716  A0D8               	btfss	status,0,c
  7799  00E718  EF90  F073         	goto	u4911
  7800  00E71C  EF92  F073         	goto	u4910
  7801  00E720                     u4911:
  7802  00E720  EF11  F074         	goto	l1391
  7803  00E724                     u4910:
  7804  00E724  EFB0  F073         	goto	l4737
  7805  00E728                     l4733:
  7806  00E728  C030  F00F         	movff	strtod@_u,___flmul@b
  7807  00E72C  C031  F010         	movff	strtod@_u+1,___flmul@b+1
  7808  00E730  C032  F011         	movff	strtod@_u+2,___flmul@b+2
  7809  00E734  C033  F012         	movff	strtod@_u+3,___flmul@b+3
  7810  00E738  0EF9               	movlw	249
  7811  00E73A  6E13               	movwf	___flmul@a^0,c
  7812  00E73C  0E02               	movlw	2
  7813  00E73E  6E14               	movwf	(___flmul@a+1)^0,c
  7814  00E740  0E15               	movlw	21
  7815  00E742  6E15               	movwf	(___flmul@a+2)^0,c
  7816  00E744  0E50               	movlw	80
  7817  00E746  6E16               	movwf	(___flmul@a+3)^0,c
  7818  00E748  EC48  F06A         	call	___flmul	;wreg free
  7819  00E74C  C00F  F030         	movff	?___flmul,strtod@_u
  7820  00E750  C010  F031         	movff	?___flmul+1,strtod@_u+1
  7821  00E754  C011  F032         	movff	?___flmul+2,strtod@_u+2
  7822  00E758  C012  F033         	movff	?___flmul+3,strtod@_u+3
  7823  00E75C  0EF6               	movlw	246
  7824  00E75E  262F               	addwf	strtod@expon^0,f,c
  7825  00E760                     l4737:
  7826  00E760  0E0A               	movlw	10
  7827  00E762  602F               	cpfslt	strtod@expon^0,c
  7828  00E764  EFB6  F073         	goto	u4921
  7829  00E768  EFB8  F073         	goto	u4920
  7830  00E76C                     u4921:
  7831  00E76C  EF94  F073         	goto	l4733
  7832  00E770                     u4920:
  7833  00E770  EFD5  F073         	goto	l4743
  7834  00E774                     l4739:
  7835  00E774  C030  F00F         	movff	strtod@_u,___flmul@b
  7836  00E778  C031  F010         	movff	strtod@_u+1,___flmul@b+1
  7837  00E77C  C032  F011         	movff	strtod@_u+2,___flmul@b+2
  7838  00E780  C033  F012         	movff	strtod@_u+3,___flmul@b+3
  7839  00E784  0E00               	movlw	0
  7840  00E786  6E13               	movwf	___flmul@a^0,c
  7841  00E788  0E00               	movlw	0
  7842  00E78A  6E14               	movwf	(___flmul@a+1)^0,c
  7843  00E78C  0E20               	movlw	32
  7844  00E78E  6E15               	movwf	(___flmul@a+2)^0,c
  7845  00E790  0E41               	movlw	65
  7846  00E792  6E16               	movwf	(___flmul@a+3)^0,c
  7847  00E794  EC48  F06A         	call	___flmul	;wreg free
  7848  00E798  C00F  F030         	movff	?___flmul,strtod@_u
  7849  00E79C  C010  F031         	movff	?___flmul+1,strtod@_u+1
  7850  00E7A0  C011  F032         	movff	?___flmul+2,strtod@_u+2
  7851  00E7A4  C012  F033         	movff	?___flmul+3,strtod@_u+3
  7852  00E7A8  062F               	decf	strtod@expon^0,f,c
  7853  00E7AA                     l4743:
  7854  00E7AA  502F               	movf	strtod@expon^0,w,c
  7855  00E7AC  A4D8               	btfss	status,2,c
  7856  00E7AE  EFDB  F073         	goto	u4931
  7857  00E7B2  EFDD  F073         	goto	u4930
  7858  00E7B6                     u4931:
  7859  00E7B6  EFBA  F073         	goto	l4739
  7860  00E7BA                     u4930:
  7861  00E7BA  0EFF               	movlw	255
  7862  00E7BC  6E01               	movwf	___flge@ff1^0,c
  7863  00E7BE  0EFF               	movlw	255
  7864  00E7C0  6E02               	movwf	(___flge@ff1+1)^0,c
  7865  00E7C2  0E7F               	movlw	127
  7866  00E7C4  6E03               	movwf	(___flge@ff1+2)^0,c
  7867  00E7C6  0E7F               	movlw	127
  7868  00E7C8  6E04               	movwf	(___flge@ff1+3)^0,c
  7869  00E7CA  C030  F005         	movff	strtod@_u,___flge@ff2
  7870  00E7CE  C031  F006         	movff	strtod@_u+1,___flge@ff2+1
  7871  00E7D2  C032  F007         	movff	strtod@_u+2,___flge@ff2+2
  7872  00E7D6  C033  F008         	movff	strtod@_u+3,___flge@ff2+3
  7873  00E7DA  EC38  F063         	call	___flge	;wreg free
  7874  00E7DE  B0D8               	btfsc	status,0,c
  7875  00E7E0  EFF4  F073         	goto	u4941
  7876  00E7E4  EFF6  F073         	goto	u4940
  7877  00E7E8                     u4941:
  7878  00E7E8  EF11  F074         	goto	l1391
  7879  00E7EC                     u4940:
  7880  00E7EC  A02E               	btfss	strtod@flags^0,0,c
  7881  00E7EE  EFFB  F073         	goto	u4951
  7882  00E7F2  EFFD  F073         	goto	u4950
  7883  00E7F6                     u4951:
  7884  00E7F6  EF07  F074         	goto	l4753
  7885  00E7FA                     u4950:
  7886  00E7FA  0E00               	movlw	0
  7887  00E7FC  6E28               	movwf	?_strtod^0,c
  7888  00E7FE  0E00               	movlw	0
  7889  00E800  6E29               	movwf	(?_strtod+1)^0,c
  7890  00E802  0E80               	movlw	128
  7891  00E804  6E2A               	movwf	(?_strtod+2)^0,c
  7892  00E806  0E80               	movlw	128
  7893  00E808  6E2B               	movwf	(?_strtod+3)^0,c
  7894  00E80A  EF32  F074         	goto	l1381
  7895  00E80E                     l4753:
  7896  00E80E  0E00               	movlw	0
  7897  00E810  6E28               	movwf	?_strtod^0,c
  7898  00E812  0E00               	movlw	0
  7899  00E814  6E29               	movwf	(?_strtod+1)^0,c
  7900  00E816  0E80               	movlw	128
  7901  00E818  6E2A               	movwf	(?_strtod+2)^0,c
  7902  00E81A  0E00               	movlw	0
  7903  00E81C  6E2B               	movwf	(?_strtod+3)^0,c
  7904  00E81E  EF32  F074         	goto	l1381
  7905  00E822                     l1391:
  7906  00E822  A02E               	btfss	strtod@flags^0,0,c
  7907  00E824  EF16  F074         	goto	u4961
  7908  00E828  EF18  F074         	goto	u4960
  7909  00E82C                     u4961:
  7910  00E82C  EF2A  F074         	goto	l4759
  7911  00E830                     u4960:
  7912  00E830  C030  F001         	movff	strtod@_u,___flneg@f1
  7913  00E834  C031  F002         	movff	strtod@_u+1,___flneg@f1+1
  7914  00E838  C032  F003         	movff	strtod@_u+2,___flneg@f1+2
  7915  00E83C  C033  F004         	movff	strtod@_u+3,___flneg@f1+3
  7916  00E840  EC1F  F05F         	call	___flneg	;wreg free
  7917  00E844  C001  F030         	movff	?___flneg,strtod@_u
  7918  00E848  C002  F031         	movff	?___flneg+1,strtod@_u+1
  7919  00E84C  C003  F032         	movff	?___flneg+2,strtod@_u+2
  7920  00E850  C004  F033         	movff	?___flneg+3,strtod@_u+3
  7921  00E854                     l4759:
  7922  00E854  C030  F028         	movff	strtod@_u,?_strtod
  7923  00E858  C031  F029         	movff	strtod@_u+1,?_strtod+1
  7924  00E85C  C032  F02A         	movff	strtod@_u+2,?_strtod+2
  7925  00E860  C033  F02B         	movff	strtod@_u+3,?_strtod+3
  7926  00E864                     l1381:
  7927  00E864  0012               	return		;funcret
  7928  00E866                     __end_of_strtod:
  7929                           	callstack 0
  7930                           
  7931 ;; *************** function _isspace *****************
  7932 ;; Defined at:
  7933 ;;		line 8 in file "C:\Program Files\Microchip\xc8\v2.30\pic\sources\c90\common\isspace.c"
  7934 ;; Parameters:    Size  Location     Type
  7935 ;;  c               1    wreg     unsigned char 
  7936 ;; Auto vars:     Size  Location     Type
  7937 ;;  c               1    2[COMRAM] unsigned char 
  7938 ;; Return value:  Size  Location     Type
  7939 ;;		None               void
  7940 ;; Registers used:
  7941 ;;		wreg, status,2, status,0
  7942 ;; Tracked objects:
  7943 ;;		On entry : 0/0
  7944 ;;		On exit  : 0/0
  7945 ;;		Unchanged: 0/0
  7946 ;; Data sizes:     COMRAM   BANK0   BANK1   BANK2   BANK3   BANK4   BANK5   BANK6   BANK7   BANK8   BANK9  BANK10  BANK1
      +1  BANK12  BANK13  BANK14  BANK15
  7947 ;;      Params:         0       0       0       0       0       0       0       0       0       0       0       0       
      +0       0       0       0       0
  7948 ;;      Locals:         2       0       0       0       0       0       0       0       0       0       0       0       
      +0       0       0       0       0
  7949 ;;      Temps:          1       0       0       0       0       0       0       0       0       0       0       0       
      +0       0       0       0       0
  7950 ;;      Totals:         3       0       0       0       0       0       0       0       0       0       0       0       
      +0       0       0       0       0
  7951 ;;Total ram usage:        3 bytes
  7952 ;; Hardware stack levels used:    1
  7953 ;; This function calls:
  7954 ;;		Nothing
  7955 ;; This function is called by:
  7956 ;;		_strtod
  7957 ;; This function uses a non-reentrant model
  7958 ;;
  7959                           
  7960                           	psect	text22
  7961  00BE76                     __ptext22:
  7962                           	callstack 0
  7963  00BE76                     _isspace:
  7964                           	callstack 28
  7965                           
  7966                           ;incstack = 0
  7967                           ;isspace@c stored from wreg
  7968  00BE76  6E03               	movwf	isspace@c^0,c
  7969  00BE78  0E01               	movlw	1
  7970  00BE7A  6E02               	movwf	_isspace$1637^0,c
  7971  00BE7C  0E20               	movlw	32
  7972  00BE7E  1803               	xorwf	isspace@c^0,w,c
  7973  00BE80  B4D8               	btfsc	status,2,c
  7974  00BE82  EF45  F05F         	goto	u4231
  7975  00BE86  EF47  F05F         	goto	u4230
  7976  00BE8A                     u4231:
  7977  00BE8A  EF59  F05F         	goto	l4315
  7978  00BE8E                     u4230:
  7979  00BE8E  0E0E               	movlw	14
  7980  00BE90  6003               	cpfslt	isspace@c^0,c
  7981  00BE92  EF4D  F05F         	goto	u4241
  7982  00BE96  EF4F  F05F         	goto	u4240
  7983  00BE9A                     u4241:
  7984  00BE9A  EF57  F05F         	goto	l4313
  7985  00BE9E                     u4240:
  7986  00BE9E  0E09               	movlw	9
  7987  00BEA0  6003               	cpfslt	isspace@c^0,c
  7988  00BEA2  EF55  F05F         	goto	u4251
  7989  00BEA6  EF57  F05F         	goto	u4250
  7990  00BEAA                     u4251:
  7991  00BEAA  EF59  F05F         	goto	l4315
  7992  00BEAE                     u4250:
  7993  00BEAE                     l4313:
  7994  00BEAE  0E00               	movlw	0
  7995  00BEB0  6E02               	movwf	_isspace$1637^0,c
  7996  00BEB2                     l4315:
  7997  00BEB2  C002  F001         	movff	_isspace$1637,??_isspace
  7998  00BEB6  3001               	rrcf	??_isspace^0,w,c
  7999  00BEB8  0012               	return		;funcret
  8000  00BEBA                     __end_of_isspace:
  8001                           	callstack 0
  8002                           
  8003 ;; *************** function _isdigit *****************
  8004 ;; Defined at:
  8005 ;;		line 8 in file "C:\Program Files\Microchip\xc8\v2.30\pic\sources\c90\common\isdigit.c"
  8006 ;; Parameters:    Size  Location     Type
  8007 ;;  c               1    wreg     unsigned char 
  8008 ;; Auto vars:     Size  Location     Type
  8009 ;;  c               1    2[COMRAM] unsigned char 
  8010 ;; Return value:  Size  Location     Type
  8011 ;;		None               void
  8012 ;; Registers used:
  8013 ;;		wreg, status,2, status,0
  8014 ;; Tracked objects:
  8015 ;;		On entry : 0/0
  8016 ;;		On exit  : 0/0
  8017 ;;		Unchanged: 0/0
  8018 ;; Data sizes:     COMRAM   BANK0   BANK1   BANK2   BANK3   BANK4   BANK5   BANK6   BANK7   BANK8   BANK9  BANK10  BANK1
      +1  BANK12  BANK13  BANK14  BANK15
  8019 ;;      Params:         0       0       0       0       0       0       0       0       0       0       0       0       
      +0       0       0       0       0
  8020 ;;      Locals:         2       0       0       0       0       0       0       0       0       0       0       0       
      +0       0       0       0       0
  8021 ;;      Temps:          1       0       0       0       0       0       0       0       0       0       0       0       
      +0       0       0       0       0
  8022 ;;      Totals:         3       0       0       0       0       0       0       0       0       0       0       0       
      +0       0       0       0       0
  8023 ;;Total ram usage:        3 bytes
  8024 ;; Hardware stack levels used:    1
  8025 ;; This function calls:
  8026 ;;		Nothing
  8027 ;; This function is called by:
  8028 ;;		_strtod
  8029 ;;		_atoi
  8030 ;; This function uses a non-reentrant model
  8031 ;;
  8032                           
  8033                           	psect	text23
  8034  00BE0C                     __ptext23:
  8035                           	callstack 0
  8036  00BE0C                     _isdigit:
  8037                           	callstack 29
  8038                           
  8039                           ;incstack = 0
  8040                           ;isdigit@c stored from wreg
  8041  00BE0C  6E03               	movwf	isdigit@c^0,c
  8042  00BE0E  0E00               	movlw	0
  8043  00BE10  6E02               	movwf	_isdigit$1634^0,c
  8044  00BE12  0E3A               	movlw	58
  8045  00BE14  6003               	cpfslt	isdigit@c^0,c
  8046  00BE16  EF0F  F05F         	goto	u4261
  8047  00BE1A  EF11  F05F         	goto	u4260
  8048  00BE1E                     u4261:
  8049  00BE1E  EF1B  F05F         	goto	l4327
  8050  00BE22                     u4260:
  8051  00BE22  0E2F               	movlw	47
  8052  00BE24  6403               	cpfsgt	isdigit@c^0,c
  8053  00BE26  EF17  F05F         	goto	u4271
  8054  00BE2A  EF19  F05F         	goto	u4270
  8055  00BE2E                     u4271:
  8056  00BE2E  EF1B  F05F         	goto	l4327
  8057  00BE32                     u4270:
  8058  00BE32  0E01               	movlw	1
  8059  00BE34  6E02               	movwf	_isdigit$1634^0,c
  8060  00BE36                     l4327:
  8061  00BE36  C002  F001         	movff	_isdigit$1634,??_isdigit
  8062  00BE3A  3001               	rrcf	??_isdigit^0,w,c
  8063  00BE3C  0012               	return		;funcret
  8064  00BE3E                     __end_of_isdigit:
  8065                           	callstack 0
  8066                           
  8067 ;; *************** function ___xxtofl *****************
  8068 ;; Defined at:
  8069 ;;		line 10 in file "C:\Program Files\Microchip\xc8\v2.30\pic\sources\c90\common\xxtofl.c"
  8070 ;; Parameters:    Size  Location     Type
  8071 ;;  sign            1    wreg     unsigned char 
  8072 ;;  val             4    0[COMRAM] long 
  8073 ;; Auto vars:     Size  Location     Type
  8074 ;;  sign            1    8[COMRAM] unsigned char 
  8075 ;;  arg             4   10[COMRAM] unsigned long 
  8076 ;;  exp             1    9[COMRAM] unsigned char 
  8077 ;; Return value:  Size  Location     Type
  8078 ;;                  4    0[COMRAM] unsigned char 
  8079 ;; Registers used:
  8080 ;;		wreg, status,2, status,0
  8081 ;; Tracked objects:
  8082 ;;		On entry : 0/0
  8083 ;;		On exit  : 0/0
  8084 ;;		Unchanged: 0/0
  8085 ;; Data sizes:     COMRAM   BANK0   BANK1   BANK2   BANK3   BANK4   BANK5   BANK6   BANK7   BANK8   BANK9  BANK10  BANK1
      +1  BANK12  BANK13  BANK14  BANK15
  8086 ;;      Params:         4       0       0       0       0       0       0       0       0       0       0       0       
      +0       0       0       0       0
  8087 ;;      Locals:         6       0       0       0       0       0       0       0       0       0       0       0       
      +0       0       0       0       0
  8088 ;;      Temps:          4       0       0       0       0       0       0       0       0       0       0       0       
      +0       0       0       0       0
  8089 ;;      Totals:        14       0       0       0       0       0       0       0       0       0       0       0       
      +0       0       0       0       0
  8090 ;;Total ram usage:       14 bytes
  8091 ;; Hardware stack levels used:    1
  8092 ;; This function calls:
  8093 ;;		Nothing
  8094 ;; This function is called by:
  8095 ;;		_main
  8096 ;;		_printf
  8097 ;;		_strtod
  8098 ;; This function uses a non-reentrant model
  8099 ;;
  8100                           
  8101                           	psect	text24
  8102  00CC4C                     __ptext24:
  8103                           	callstack 0
  8104  00CC4C                     ___xxtofl:
  8105                           	callstack 29
  8106                           
  8107                           ;incstack = 0
  8108                           ;___xxtofl@sign stored from wreg
  8109  00CC4C  6E09               	movwf	___xxtofl@sign^0,c
  8110  00CC4E  5009               	movf	___xxtofl@sign^0,w,c
  8111  00CC50  B4D8               	btfsc	status,2,c
  8112  00CC52  EF2D  F066         	goto	u4131
  8113  00CC56  EF2F  F066         	goto	u4130
  8114  00CC5A                     u4131:
  8115  00CC5A  EF51  F066         	goto	l1327
  8116  00CC5E                     u4130:
  8117  00CC5E  BE04               	btfsc	(___xxtofl@val+3)^0,7,c
  8118  00CC60  EF36  F066         	goto	u4140
  8119  00CC64  EF34  F066         	goto	u4141
  8120  00CC68                     u4141:
  8121  00CC68  EF51  F066         	goto	l1327
  8122  00CC6C                     u4140:
  8123  00CC6C  C001  F005         	movff	___xxtofl@val,??___xxtofl
  8124  00CC70  C002  F006         	movff	___xxtofl@val+1,??___xxtofl+1
  8125  00CC74  C003  F007         	movff	___xxtofl@val+2,??___xxtofl+2
  8126  00CC78  C004  F008         	movff	___xxtofl@val+3,??___xxtofl+3
  8127  00CC7C  1E05               	comf	??___xxtofl^0,f,c
  8128  00CC7E  1E06               	comf	(??___xxtofl+1)^0,f,c
  8129  00CC80  1E07               	comf	(??___xxtofl+2)^0,f,c
  8130  00CC82  1E08               	comf	(??___xxtofl+3)^0,f,c
  8131  00CC84  2A05               	incf	??___xxtofl^0,f,c
  8132  00CC86  0E00               	movlw	0
  8133  00CC88  2206               	addwfc	(??___xxtofl+1)^0,f,c
  8134  00CC8A  2207               	addwfc	(??___xxtofl+2)^0,f,c
  8135  00CC8C  2208               	addwfc	(??___xxtofl+3)^0,f,c
  8136  00CC8E  C005  F00B         	movff	??___xxtofl,___xxtofl@arg
  8137  00CC92  C006  F00C         	movff	??___xxtofl+1,___xxtofl@arg+1
  8138  00CC96  C007  F00D         	movff	??___xxtofl+2,___xxtofl@arg+2
  8139  00CC9A  C008  F00E         	movff	??___xxtofl+3,___xxtofl@arg+3
  8140  00CC9E  EF59  F066         	goto	l4265
  8141  00CCA2                     l1327:
  8142  00CCA2  C001  F00B         	movff	___xxtofl@val,___xxtofl@arg
  8143  00CCA6  C002  F00C         	movff	___xxtofl@val+1,___xxtofl@arg+1
  8144  00CCAA  C003  F00D         	movff	___xxtofl@val+2,___xxtofl@arg+2
  8145  00CCAE  C004  F00E         	movff	___xxtofl@val+3,___xxtofl@arg+3
  8146  00CCB2                     l4265:
  8147  00CCB2  5001               	movf	___xxtofl@val^0,w,c
  8148  00CCB4  1002               	iorwf	(___xxtofl@val+1)^0,w,c
  8149  00CCB6  1003               	iorwf	(___xxtofl@val+2)^0,w,c
  8150  00CCB8  1004               	iorwf	(___xxtofl@val+3)^0,w,c
  8151  00CCBA  A4D8               	btfss	status,2,c
  8152  00CCBC  EF62  F066         	goto	u4151
  8153  00CCC0  EF64  F066         	goto	u4150
  8154  00CCC4                     u4151:
  8155  00CCC4  EF6E  F066         	goto	l4271
  8156  00CCC8                     u4150:
  8157  00CCC8  0E00               	movlw	0
  8158  00CCCA  6E01               	movwf	?___xxtofl^0,c
  8159  00CCCC  0E00               	movlw	0
  8160  00CCCE  6E02               	movwf	(?___xxtofl+1)^0,c
  8161  00CCD0  0E00               	movlw	0
  8162  00CCD2  6E03               	movwf	(?___xxtofl+2)^0,c
  8163  00CCD4  0E00               	movlw	0
  8164  00CCD6  6E04               	movwf	(?___xxtofl+3)^0,c
  8165  00CCD8  EFFF  F066         	goto	l1330
  8166  00CCDC                     l4271:
  8167  00CCDC  0E96               	movlw	150
  8168  00CCDE  6E0A               	movwf	___xxtofl@exp^0,c
  8169  00CCE0  EF78  F066         	goto	l4275
  8170  00CCE4                     l4273:
  8171  00CCE4  2A0A               	incf	___xxtofl@exp^0,f,c
  8172  00CCE6  90D8               	bcf	status,0,c
  8173  00CCE8  320E               	rrcf	(___xxtofl@arg+3)^0,f,c
  8174  00CCEA  320D               	rrcf	(___xxtofl@arg+2)^0,f,c
  8175  00CCEC  320C               	rrcf	(___xxtofl@arg+1)^0,f,c
  8176  00CCEE  320B               	rrcf	___xxtofl@arg^0,f,c
  8177  00CCF0                     l4275:
  8178  00CCF0  0E00               	movlw	0
  8179  00CCF2  140B               	andwf	___xxtofl@arg^0,w,c
  8180  00CCF4  6E05               	movwf	??___xxtofl^0,c
  8181  00CCF6  0E00               	movlw	0
  8182  00CCF8  140C               	andwf	(___xxtofl@arg+1)^0,w,c
  8183  00CCFA  6E06               	movwf	(??___xxtofl+1)^0,c
  8184  00CCFC  0E00               	movlw	0
  8185  00CCFE  140D               	andwf	(___xxtofl@arg+2)^0,w,c
  8186  00CD00  6E07               	movwf	(??___xxtofl+2)^0,c
  8187  00CD02  0EFE               	movlw	254
  8188  00CD04  140E               	andwf	(___xxtofl@arg+3)^0,w,c
  8189  00CD06  6E08               	movwf	(??___xxtofl+3)^0,c
  8190  00CD08  5005               	movf	??___xxtofl^0,w,c
  8191  00CD0A  1006               	iorwf	(??___xxtofl+1)^0,w,c
  8192  00CD0C  1007               	iorwf	(??___xxtofl+2)^0,w,c
  8193  00CD0E  1008               	iorwf	(??___xxtofl+3)^0,w,c
  8194  00CD10  A4D8               	btfss	status,2,c
  8195  00CD12  EF8D  F066         	goto	u4161
  8196  00CD16  EF8F  F066         	goto	u4160
  8197  00CD1A                     u4161:
  8198  00CD1A  EF72  F066         	goto	l4273
  8199  00CD1E                     u4160:
  8200  00CD1E  EF9D  F066         	goto	l1334
  8201  00CD22                     l4277:
  8202  00CD22  2A0A               	incf	___xxtofl@exp^0,f,c
  8203  00CD24  0E01               	movlw	1
  8204  00CD26  260B               	addwf	___xxtofl@arg^0,f,c
  8205  00CD28  0E00               	movlw	0
  8206  00CD2A  220C               	addwfc	(___xxtofl@arg+1)^0,f,c
  8207  00CD2C  220D               	addwfc	(___xxtofl@arg+2)^0,f,c
  8208  00CD2E  220E               	addwfc	(___xxtofl@arg+3)^0,f,c
  8209  00CD30  90D8               	bcf	status,0,c
  8210  00CD32  320E               	rrcf	(___xxtofl@arg+3)^0,f,c
  8211  00CD34  320D               	rrcf	(___xxtofl@arg+2)^0,f,c
  8212  00CD36  320C               	rrcf	(___xxtofl@arg+1)^0,f,c
  8213  00CD38  320B               	rrcf	___xxtofl@arg^0,f,c
  8214  00CD3A                     l1334:
  8215  00CD3A  0E00               	movlw	0
  8216  00CD3C  140B               	andwf	___xxtofl@arg^0,w,c
  8217  00CD3E  6E05               	movwf	??___xxtofl^0,c
  8218  00CD40  0E00               	movlw	0
  8219  00CD42  140C               	andwf	(___xxtofl@arg+1)^0,w,c
  8220  00CD44  6E06               	movwf	(??___xxtofl+1)^0,c
  8221  00CD46  0E00               	movlw	0
  8222  00CD48  140D               	andwf	(___xxtofl@arg+2)^0,w,c
  8223  00CD4A  6E07               	movwf	(??___xxtofl+2)^0,c
  8224  00CD4C  0EFF               	movlw	255
  8225  00CD4E  140E               	andwf	(___xxtofl@arg+3)^0,w,c
  8226  00CD50  6E08               	movwf	(??___xxtofl+3)^0,c
  8227  00CD52  5005               	movf	??___xxtofl^0,w,c
  8228  00CD54  1006               	iorwf	(??___xxtofl+1)^0,w,c
  8229  00CD56  1007               	iorwf	(??___xxtofl+2)^0,w,c
  8230  00CD58  1008               	iorwf	(??___xxtofl+3)^0,w,c
  8231  00CD5A  A4D8               	btfss	status,2,c
  8232  00CD5C  EFB2  F066         	goto	u4171
  8233  00CD60  EFB4  F066         	goto	u4170
  8234  00CD64                     u4171:
  8235  00CD64  EF91  F066         	goto	l4277
  8236  00CD68                     u4170:
  8237  00CD68  EFBC  F066         	goto	l4285
  8238  00CD6C                     l4283:
  8239  00CD6C  060A               	decf	___xxtofl@exp^0,f,c
  8240  00CD6E  90D8               	bcf	status,0,c
  8241  00CD70  360B               	rlcf	___xxtofl@arg^0,f,c
  8242  00CD72  360C               	rlcf	(___xxtofl@arg+1)^0,f,c
  8243  00CD74  360D               	rlcf	(___xxtofl@arg+2)^0,f,c
  8244  00CD76  360E               	rlcf	(___xxtofl@arg+3)^0,f,c
  8245  00CD78                     l4285:
  8246  00CD78  BE0D               	btfsc	(___xxtofl@arg+2)^0,7,c
  8247  00CD7A  EFC1  F066         	goto	u4181
  8248  00CD7E  EFC3  F066         	goto	u4180
  8249  00CD82                     u4181:
  8250  00CD82  EFCB  F066         	goto	l1341
  8251  00CD86                     u4180:
  8252  00CD86  0E02               	movlw	2
  8253  00CD88  600A               	cpfslt	___xxtofl@exp^0,c
  8254  00CD8A  EFC9  F066         	goto	u4191
  8255  00CD8E  EFCB  F066         	goto	u4190
  8256  00CD92                     u4191:
  8257  00CD92  EFB6  F066         	goto	l4283
  8258  00CD96                     u4190:
  8259  00CD96                     l1341:
  8260  00CD96  B00A               	btfsc	___xxtofl@exp^0,0,c
  8261  00CD98  EFD0  F066         	goto	u4201
  8262  00CD9C  EFD2  F066         	goto	u4200
  8263  00CDA0                     u4201:
  8264  00CDA0  EFD3  F066         	goto	l4291
  8265  00CDA4                     u4200:
  8266  00CDA4  9E0D               	bcf	(___xxtofl@arg+2)^0,7,c
  8267  00CDA6                     l4291:
  8268  00CDA6  90D8               	bcf	status,0,c
  8269  00CDA8  320A               	rrcf	___xxtofl@exp^0,f,c
  8270  00CDAA  C00A  F005         	movff	___xxtofl@exp,??___xxtofl
  8271  00CDAE  6A06               	clrf	(??___xxtofl+1)^0,c
  8272  00CDB0  6A07               	clrf	(??___xxtofl+2)^0,c
  8273  00CDB2  6A08               	clrf	(??___xxtofl+3)^0,c
  8274  00CDB4  C005  F008         	movff	??___xxtofl,??___xxtofl+3
  8275  00CDB8  6A07               	clrf	(??___xxtofl+2)^0,c
  8276  00CDBA  6A06               	clrf	(??___xxtofl+1)^0,c
  8277  00CDBC  6A05               	clrf	??___xxtofl^0,c
  8278  00CDBE  5005               	movf	??___xxtofl^0,w,c
  8279  00CDC0  120B               	iorwf	___xxtofl@arg^0,f,c
  8280  00CDC2  5006               	movf	(??___xxtofl+1)^0,w,c
  8281  00CDC4  120C               	iorwf	(___xxtofl@arg+1)^0,f,c
  8282  00CDC6  5007               	movf	(??___xxtofl+2)^0,w,c
  8283  00CDC8  120D               	iorwf	(___xxtofl@arg+2)^0,f,c
  8284  00CDCA  5008               	movf	(??___xxtofl+3)^0,w,c
  8285  00CDCC  120E               	iorwf	(___xxtofl@arg+3)^0,f,c
  8286  00CDCE  5009               	movf	___xxtofl@sign^0,w,c
  8287  00CDD0  B4D8               	btfsc	status,2,c
  8288  00CDD2  EFED  F066         	goto	u4211
  8289  00CDD6  EFEF  F066         	goto	u4210
  8290  00CDDA                     u4211:
  8291  00CDDA  EFF7  F066         	goto	l4301
  8292  00CDDE                     u4210:
  8293  00CDDE  BE04               	btfsc	(___xxtofl@val+3)^0,7,c
  8294  00CDE0  EFF6  F066         	goto	u4220
  8295  00CDE4  EFF4  F066         	goto	u4221
  8296  00CDE8                     u4221:
  8297  00CDE8  EFF7  F066         	goto	l4301
  8298  00CDEC                     u4220:
  8299  00CDEC  8E0E               	bsf	(___xxtofl@arg+3)^0,7,c
  8300  00CDEE                     l4301:
  8301  00CDEE  C00B  F001         	movff	___xxtofl@arg,?___xxtofl
  8302  00CDF2  C00C  F002         	movff	___xxtofl@arg+1,?___xxtofl+1
  8303  00CDF6  C00D  F003         	movff	___xxtofl@arg+2,?___xxtofl+2
  8304  00CDFA  C00E  F004         	movff	___xxtofl@arg+3,?___xxtofl+3
  8305  00CDFE                     l1330:
  8306  00CDFE  0012               	return		;funcret
  8307  00CE00                     __end_of___xxtofl:
  8308                           	callstack 0
  8309                           
  8310 ;; *************** function ___lmul *****************
  8311 ;; Defined at:
  8312 ;;		line 15 in file "C:\Program Files\Microchip\xc8\v2.30\pic\sources\c90\common\Umul32.c"
  8313 ;; Parameters:    Size  Location     Type
  8314 ;;  multiplier      4    0[COMRAM] unsigned long 
  8315 ;;  multiplicand    4    4[COMRAM] unsigned long 
  8316 ;; Auto vars:     Size  Location     Type
  8317 ;;  product         4    8[COMRAM] unsigned long 
  8318 ;; Return value:  Size  Location     Type
  8319 ;;                  4    0[COMRAM] unsigned long 
  8320 ;; Registers used:
  8321 ;;		wreg, status,2, status,0
  8322 ;; Tracked objects:
  8323 ;;		On entry : 0/0
  8324 ;;		On exit  : 0/0
  8325 ;;		Unchanged: 0/0
  8326 ;; Data sizes:     COMRAM   BANK0   BANK1   BANK2   BANK3   BANK4   BANK5   BANK6   BANK7   BANK8   BANK9  BANK10  BANK1
      +1  BANK12  BANK13  BANK14  BANK15
  8327 ;;      Params:         8       0       0       0       0       0       0       0       0       0       0       0       
      +0       0       0       0       0
  8328 ;;      Locals:         4       0       0       0       0       0       0       0       0       0       0       0       
      +0       0       0       0       0
  8329 ;;      Temps:          0       0       0       0       0       0       0       0       0       0       0       0       
      +0       0       0       0       0
  8330 ;;      Totals:        12       0       0       0       0       0       0       0       0       0       0       0       
      +0       0       0       0       0
  8331 ;;Total ram usage:       12 bytes
  8332 ;; Hardware stack levels used:    1
  8333 ;; This function calls:
  8334 ;;		Nothing
  8335 ;; This function is called by:
  8336 ;;		_strtod
  8337 ;; This function uses a non-reentrant model
  8338 ;;
  8339                           
  8340                           	psect	text25
  8341  00BFC0                     __ptext25:
  8342                           	callstack 0
  8343  00BFC0                     ___lmul:
  8344                           	callstack 28
  8345  00BFC0  0E00               	movlw	0
  8346  00BFC2  6E09               	movwf	___lmul@product^0,c
  8347  00BFC4  0E00               	movlw	0
  8348  00BFC6  6E0A               	movwf	(___lmul@product+1)^0,c
  8349  00BFC8  0E00               	movlw	0
  8350  00BFCA  6E0B               	movwf	(___lmul@product+2)^0,c
  8351  00BFCC  0E00               	movlw	0
  8352  00BFCE  6E0C               	movwf	(___lmul@product+3)^0,c
  8353  00BFD0                     l3979:
  8354  00BFD0  A001               	btfss	___lmul@multiplier^0,0,c
  8355  00BFD2  EFED  F05F         	goto	u3661
  8356  00BFD6  EFEF  F05F         	goto	u3660
  8357  00BFDA                     u3661:
  8358  00BFDA  EFF7  F05F         	goto	l3983
  8359  00BFDE                     u3660:
  8360  00BFDE  5005               	movf	___lmul@multiplicand^0,w,c
  8361  00BFE0  2609               	addwf	___lmul@product^0,f,c
  8362  00BFE2  5006               	movf	(___lmul@multiplicand+1)^0,w,c
  8363  00BFE4  220A               	addwfc	(___lmul@product+1)^0,f,c
  8364  00BFE6  5007               	movf	(___lmul@multiplicand+2)^0,w,c
  8365  00BFE8  220B               	addwfc	(___lmul@product+2)^0,f,c
  8366  00BFEA  5008               	movf	(___lmul@multiplicand+3)^0,w,c
  8367  00BFEC  220C               	addwfc	(___lmul@product+3)^0,f,c
  8368  00BFEE                     l3983:
  8369  00BFEE  90D8               	bcf	status,0,c
  8370  00BFF0  3605               	rlcf	___lmul@multiplicand^0,f,c
  8371  00BFF2  3606               	rlcf	(___lmul@multiplicand+1)^0,f,c
  8372  00BFF4  3607               	rlcf	(___lmul@multiplicand+2)^0,f,c
  8373  00BFF6  3608               	rlcf	(___lmul@multiplicand+3)^0,f,c
  8374  00BFF8  90D8               	bcf	status,0,c
  8375  00BFFA  3204               	rrcf	(___lmul@multiplier+3)^0,f,c
  8376  00BFFC  3203               	rrcf	(___lmul@multiplier+2)^0,f,c
  8377  00BFFE  3202               	rrcf	(___lmul@multiplier+1)^0,f,c
  8378  00C000  3201               	rrcf	___lmul@multiplier^0,f,c
  8379  00C002  5001               	movf	___lmul@multiplier^0,w,c
  8380  00C004  1002               	iorwf	(___lmul@multiplier+1)^0,w,c
  8381  00C006  1003               	iorwf	(___lmul@multiplier+2)^0,w,c
  8382  00C008  1004               	iorwf	(___lmul@multiplier+3)^0,w,c
  8383  00C00A  A4D8               	btfss	status,2,c
  8384  00C00C  EF0A  F060         	goto	u3671
  8385  00C010  EF0C  F060         	goto	u3670
  8386  00C014                     u3671:
  8387  00C014  EFE8  F05F         	goto	l3979
  8388  00C018                     u3670:
  8389  00C018  C009  F001         	movff	___lmul@product,?___lmul
  8390  00C01C  C00A  F002         	movff	___lmul@product+1,?___lmul+1
  8391  00C020  C00B  F003         	movff	___lmul@product+2,?___lmul+2
  8392  00C024  C00C  F004         	movff	___lmul@product+3,?___lmul+3
  8393  00C028  0012               	return		;funcret
  8394  00C02A                     __end_of___lmul:
  8395                           	callstack 0
  8396                           
  8397 ;; *************** function ___flneg *****************
  8398 ;; Defined at:
  8399 ;;		line 15 in file "C:\Program Files\Microchip\xc8\v2.30\pic\sources\c90\common\flneg.c"
  8400 ;; Parameters:    Size  Location     Type
  8401 ;;  f1              4    0[COMRAM] unsigned long 
  8402 ;; Auto vars:     Size  Location     Type
  8403 ;;		None
  8404 ;; Return value:  Size  Location     Type
  8405 ;;                  4    0[COMRAM] unsigned long 
  8406 ;; Registers used:
  8407 ;;		wreg, status,2, status,0
  8408 ;; Tracked objects:
  8409 ;;		On entry : 0/0
  8410 ;;		On exit  : 0/0
  8411 ;;		Unchanged: 0/0
  8412 ;; Data sizes:     COMRAM   BANK0   BANK1   BANK2   BANK3   BANK4   BANK5   BANK6   BANK7   BANK8   BANK9  BANK10  BANK1
      +1  BANK12  BANK13  BANK14  BANK15
  8413 ;;      Params:         4       0       0       0       0       0       0       0       0       0       0       0       
      +0       0       0       0       0
  8414 ;;      Locals:         0       0       0       0       0       0       0       0       0       0       0       0       
      +0       0       0       0       0
  8415 ;;      Temps:          0       0       0       0       0       0       0       0       0       0       0       0       
      +0       0       0       0       0
  8416 ;;      Totals:         4       0       0       0       0       0       0       0       0       0       0       0       
      +0       0       0       0       0
  8417 ;;Total ram usage:        4 bytes
  8418 ;; Hardware stack levels used:    1
  8419 ;; This function calls:
  8420 ;;		Nothing
  8421 ;; This function is called by:
  8422 ;;		_printf
  8423 ;;		_strtod
  8424 ;; This function uses a non-reentrant model
  8425 ;;
  8426                           
  8427                           	psect	text26
  8428  00BE3E                     __ptext26:
  8429                           	callstack 0
  8430  00BE3E                     ___flneg:
  8431                           	callstack 29
  8432  00BE3E  5001               	movf	___flneg@f1^0,w,c
  8433  00BE40  1002               	iorwf	(___flneg@f1+1)^0,w,c
  8434  00BE42  1003               	iorwf	(___flneg@f1+2)^0,w,c
  8435  00BE44  1004               	iorwf	(___flneg@f1+3)^0,w,c
  8436  00BE46  B4D8               	btfsc	status,2,c
  8437  00BE48  EF28  F05F         	goto	u4021
  8438  00BE4C  EF2A  F05F         	goto	u4020
  8439  00BE50                     u4021:
  8440  00BE50  EF32  F05F         	goto	l4195
  8441  00BE54                     u4020:
  8442  00BE54  0E00               	movlw	0
  8443  00BE56  1A01               	xorwf	___flneg@f1^0,f,c
  8444  00BE58  0E00               	movlw	0
  8445  00BE5A  1A02               	xorwf	(___flneg@f1+1)^0,f,c
  8446  00BE5C  0E00               	movlw	0
  8447  00BE5E  1A03               	xorwf	(___flneg@f1+2)^0,f,c
  8448  00BE60  0E80               	movlw	128
  8449  00BE62  1A04               	xorwf	(___flneg@f1+3)^0,f,c
  8450  00BE64                     l4195:
  8451  00BE64  C001  F001         	movff	___flneg@f1,?___flneg
  8452  00BE68  C002  F002         	movff	___flneg@f1+1,?___flneg+1
  8453  00BE6C  C003  F003         	movff	___flneg@f1+2,?___flneg+2
  8454  00BE70  C004  F004         	movff	___flneg@f1+3,?___flneg+3
  8455  00BE74  0012               	return		;funcret
  8456  00BE76                     __end_of___flneg:
  8457                           	callstack 0
  8458                           
  8459 ;; *************** function ___flmul *****************
  8460 ;; Defined at:
  8461 ;;		line 8 in file "C:\Program Files\Microchip\xc8\v2.30\pic\sources\c90\common\sprcmul.c"
  8462 ;; Parameters:    Size  Location     Type
  8463 ;;  b               4   14[COMRAM] unsigned long 
  8464 ;;  a               4   18[COMRAM] unsigned long 
  8465 ;; Auto vars:     Size  Location     Type
  8466 ;;  prod            4   33[COMRAM] struct .
  8467 ;;  grs             4   27[COMRAM] unsigned long 
  8468 ;;  temp            2   37[COMRAM] struct .
  8469 ;;  bexp            1   32[COMRAM] unsigned char 
  8470 ;;  aexp            1   31[COMRAM] unsigned char 
  8471 ;;  sign            1   26[COMRAM] unsigned char 
  8472 ;; Return value:  Size  Location     Type
  8473 ;;                  4   14[COMRAM] unsigned char 
  8474 ;; Registers used:
  8475 ;;		wreg, status,2, status,0, prodl, prodh
  8476 ;; Tracked objects:
  8477 ;;		On entry : 0/0
  8478 ;;		On exit  : 0/0
  8479 ;;		Unchanged: 0/0
  8480 ;; Data sizes:     COMRAM   BANK0   BANK1   BANK2   BANK3   BANK4   BANK5   BANK6   BANK7   BANK8   BANK9  BANK10  BANK1
      +1  BANK12  BANK13  BANK14  BANK15
  8481 ;;      Params:         8       0       0       0       0       0       0       0       0       0       0       0       
      +0       0       0       0       0
  8482 ;;      Locals:        13       0       0       0       0       0       0       0       0       0       0       0       
      +0       0       0       0       0
  8483 ;;      Temps:          4       0       0       0       0       0       0       0       0       0       0       0       
      +0       0       0       0       0
  8484 ;;      Totals:        25       0       0       0       0       0       0       0       0       0       0       0       
      +0       0       0       0       0
  8485 ;;Total ram usage:       25 bytes
  8486 ;; Hardware stack levels used:    1
  8487 ;; This function calls:
  8488 ;;		Nothing
  8489 ;; This function is called by:
  8490 ;;		_main
  8491 ;;		_fround
  8492 ;;		_scale
  8493 ;;		_printf
  8494 ;;		_strtod
  8495 ;; This function uses a non-reentrant model
  8496 ;;
  8497                           
  8498                           	psect	text27
  8499  00D490                     __ptext27:
  8500                           	callstack 0
  8501  00D490                     ___flmul:
  8502                           	callstack 28
  8503  00D490  5012               	movf	(___flmul@b+3)^0,w,c
  8504  00D492  0B80               	andlw	128
  8505  00D494  6E1B               	movwf	___flmul@sign^0,c
  8506  00D496  5012               	movf	(___flmul@b+3)^0,w,c
  8507  00D498  2412               	addwf	(___flmul@b+3)^0,w,c
  8508  00D49A  6E21               	movwf	___flmul@bexp^0,c
  8509  00D49C  AE11               	btfss	(___flmul@b+2)^0,7,c
  8510  00D49E  EF53  F06A         	goto	u3061
  8511  00D4A2  EF55  F06A         	goto	u3060
  8512  00D4A6                     u3061:
  8513  00D4A6  EF56  F06A         	goto	l3549
  8514  00D4AA                     u3060:
  8515  00D4AA  8021               	bsf	___flmul@bexp^0,0,c
  8516  00D4AC                     l3549:
  8517  00D4AC  5021               	movf	___flmul@bexp^0,w,c
  8518  00D4AE  B4D8               	btfsc	status,2,c
  8519  00D4B0  EF5C  F06A         	goto	u3071
  8520  00D4B4  EF5E  F06A         	goto	u3070
  8521  00D4B8                     u3071:
  8522  00D4B8  EF71  F06A         	goto	l3557
  8523  00D4BC                     u3070:
  8524  00D4BC  2821               	incf	___flmul@bexp^0,w,c
  8525  00D4BE  A4D8               	btfss	status,2,c
  8526  00D4C0  EF64  F06A         	goto	u3081
  8527  00D4C4  EF66  F06A         	goto	u3080
  8528  00D4C8                     u3081:
  8529  00D4C8  EF6E  F06A         	goto	l3555
  8530  00D4CC                     u3080:
  8531  00D4CC  0E00               	movlw	0
  8532  00D4CE  6E0F               	movwf	___flmul@b^0,c
  8533  00D4D0  0E00               	movlw	0
  8534  00D4D2  6E10               	movwf	(___flmul@b+1)^0,c
  8535  00D4D4  0E00               	movlw	0
  8536  00D4D6  6E11               	movwf	(___flmul@b+2)^0,c
  8537  00D4D8  0E00               	movlw	0
  8538  00D4DA  6E12               	movwf	(___flmul@b+3)^0,c
  8539  00D4DC                     l3555:
  8540  00D4DC  8E11               	bsf	(___flmul@b+2)^0,7,c
  8541  00D4DE  EF79  F06A         	goto	l3559
  8542  00D4E2                     l3557:
  8543  00D4E2  0E00               	movlw	0
  8544  00D4E4  6E0F               	movwf	___flmul@b^0,c
  8545  00D4E6  0E00               	movlw	0
  8546  00D4E8  6E10               	movwf	(___flmul@b+1)^0,c
  8547  00D4EA  0E00               	movlw	0
  8548  00D4EC  6E11               	movwf	(___flmul@b+2)^0,c
  8549  00D4EE  0E00               	movlw	0
  8550  00D4F0  6E12               	movwf	(___flmul@b+3)^0,c
  8551  00D4F2                     l3559:
  8552  00D4F2  5016               	movf	(___flmul@a+3)^0,w,c
  8553  00D4F4  0B80               	andlw	128
  8554  00D4F6  1A1B               	xorwf	___flmul@sign^0,f,c
  8555  00D4F8  5016               	movf	(___flmul@a+3)^0,w,c
  8556  00D4FA  2416               	addwf	(___flmul@a+3)^0,w,c
  8557  00D4FC  6E20               	movwf	___flmul@aexp^0,c
  8558  00D4FE  AE15               	btfss	(___flmul@a+2)^0,7,c
  8559  00D500  EF84  F06A         	goto	u3091
  8560  00D504  EF86  F06A         	goto	u3090
  8561  00D508                     u3091:
  8562  00D508  EF87  F06A         	goto	l3567
  8563  00D50C                     u3090:
  8564  00D50C  8020               	bsf	___flmul@aexp^0,0,c
  8565  00D50E                     l3567:
  8566  00D50E  5020               	movf	___flmul@aexp^0,w,c
  8567  00D510  B4D8               	btfsc	status,2,c
  8568  00D512  EF8D  F06A         	goto	u3101
  8569  00D516  EF8F  F06A         	goto	u3100
  8570  00D51A                     u3101:
  8571  00D51A  EFA2  F06A         	goto	l3575
  8572  00D51E                     u3100:
  8573  00D51E  2820               	incf	___flmul@aexp^0,w,c
  8574  00D520  A4D8               	btfss	status,2,c
  8575  00D522  EF95  F06A         	goto	u3111
  8576  00D526  EF97  F06A         	goto	u3110
  8577  00D52A                     u3111:
  8578  00D52A  EF9F  F06A         	goto	l3573
  8579  00D52E                     u3110:
  8580  00D52E  0E00               	movlw	0
  8581  00D530  6E13               	movwf	___flmul@a^0,c
  8582  00D532  0E00               	movlw	0
  8583  00D534  6E14               	movwf	(___flmul@a+1)^0,c
  8584  00D536  0E00               	movlw	0
  8585  00D538  6E15               	movwf	(___flmul@a+2)^0,c
  8586  00D53A  0E00               	movlw	0
  8587  00D53C  6E16               	movwf	(___flmul@a+3)^0,c
  8588  00D53E                     l3573:
  8589  00D53E  8E15               	bsf	(___flmul@a+2)^0,7,c
  8590  00D540  EFAA  F06A         	goto	l1286
  8591  00D544                     l3575:
  8592  00D544  0E00               	movlw	0
  8593  00D546  6E13               	movwf	___flmul@a^0,c
  8594  00D548  0E00               	movlw	0
  8595  00D54A  6E14               	movwf	(___flmul@a+1)^0,c
  8596  00D54C  0E00               	movlw	0
  8597  00D54E  6E15               	movwf	(___flmul@a+2)^0,c
  8598  00D550  0E00               	movlw	0
  8599  00D552  6E16               	movwf	(___flmul@a+3)^0,c
  8600  00D554                     l1286:
  8601  00D554  5020               	movf	___flmul@aexp^0,w,c
  8602  00D556  B4D8               	btfsc	status,2,c
  8603  00D558  EFB0  F06A         	goto	u3121
  8604  00D55C  EFB2  F06A         	goto	u3120
  8605  00D560                     u3121:
  8606  00D560  EFBA  F06A         	goto	l3579
  8607  00D564                     u3120:
  8608  00D564  5021               	movf	___flmul@bexp^0,w,c
  8609  00D566  A4D8               	btfss	status,2,c
  8610  00D568  EFB8  F06A         	goto	u3131
  8611  00D56C  EFBA  F06A         	goto	u3130
  8612  00D570                     u3131:
  8613  00D570  EFC4  F06A         	goto	l3583
  8614  00D574                     u3130:
  8615  00D574                     l3579:
  8616  00D574  0E00               	movlw	0
  8617  00D576  6E0F               	movwf	?___flmul^0,c
  8618  00D578  0E00               	movlw	0
  8619  00D57A  6E10               	movwf	(?___flmul+1)^0,c
  8620  00D57C  0E00               	movlw	0
  8621  00D57E  6E11               	movwf	(?___flmul+2)^0,c
  8622  00D580  0E00               	movlw	0
  8623  00D582  6E12               	movwf	(?___flmul+3)^0,c
  8624  00D584  EF6E  F06C         	goto	l1290
  8625  00D588                     l3583:
  8626  00D588  5015               	movf	(___flmul@a+2)^0,w,c
  8627  00D58A  020F               	mulwf	___flmul@b^0,c
  8628  00D58C  006F FFCC  F026    	movff	prodl,___flmul@temp
  8629  00D592  006F FFD0  F027    	movff	prodh,___flmul@temp+1
  8630  00D598  5026               	movf	___flmul@temp^0,w,c
  8631  00D59A  6E1C               	movwf	___flmul@grs^0,c
  8632  00D59C  6A1D               	clrf	(___flmul@grs+1)^0,c
  8633  00D59E  6A1E               	clrf	(___flmul@grs+2)^0,c
  8634  00D5A0  6A1F               	clrf	(___flmul@grs+3)^0,c
  8635  00D5A2  5027               	movf	(___flmul@temp+1)^0,w,c
  8636  00D5A4  6E22               	movwf	___flmul@prod^0,c
  8637  00D5A6  6A23               	clrf	(___flmul@prod+1)^0,c
  8638  00D5A8  6A24               	clrf	(___flmul@prod+2)^0,c
  8639  00D5AA  6A25               	clrf	(___flmul@prod+3)^0,c
  8640  00D5AC  5014               	movf	(___flmul@a+1)^0,w,c
  8641  00D5AE  0210               	mulwf	(___flmul@b+1)^0,c
  8642  00D5B0  006F FFCC  F026    	movff	prodl,___flmul@temp
  8643  00D5B6  006F FFD0  F027    	movff	prodh,___flmul@temp+1
  8644  00D5BC  5026               	movf	___flmul@temp^0,w,c
  8645  00D5BE  261C               	addwf	___flmul@grs^0,f,c
  8646  00D5C0  0E00               	movlw	0
  8647  00D5C2  221D               	addwfc	(___flmul@grs+1)^0,f,c
  8648  00D5C4  221E               	addwfc	(___flmul@grs+2)^0,f,c
  8649  00D5C6  221F               	addwfc	(___flmul@grs+3)^0,f,c
  8650  00D5C8  5027               	movf	(___flmul@temp+1)^0,w,c
  8651  00D5CA  2622               	addwf	___flmul@prod^0,f,c
  8652  00D5CC  0E00               	movlw	0
  8653  00D5CE  2223               	addwfc	(___flmul@prod+1)^0,f,c
  8654  00D5D0  2224               	addwfc	(___flmul@prod+2)^0,f,c
  8655  00D5D2  2225               	addwfc	(___flmul@prod+3)^0,f,c
  8656  00D5D4  5013               	movf	___flmul@a^0,w,c
  8657  00D5D6  0211               	mulwf	(___flmul@b+2)^0,c
  8658  00D5D8  006F FFCC  F026    	movff	prodl,___flmul@temp
  8659  00D5DE  006F FFD0  F027    	movff	prodh,___flmul@temp+1
  8660  00D5E4  5026               	movf	___flmul@temp^0,w,c
  8661  00D5E6  261C               	addwf	___flmul@grs^0,f,c
  8662  00D5E8  0E00               	movlw	0
  8663  00D5EA  221D               	addwfc	(___flmul@grs+1)^0,f,c
  8664  00D5EC  221E               	addwfc	(___flmul@grs+2)^0,f,c
  8665  00D5EE  221F               	addwfc	(___flmul@grs+3)^0,f,c
  8666  00D5F0  5027               	movf	(___flmul@temp+1)^0,w,c
  8667  00D5F2  2622               	addwf	___flmul@prod^0,f,c
  8668  00D5F4  0E00               	movlw	0
  8669  00D5F6  2223               	addwfc	(___flmul@prod+1)^0,f,c
  8670  00D5F8  2224               	addwfc	(___flmul@prod+2)^0,f,c
  8671  00D5FA  2225               	addwfc	(___flmul@prod+3)^0,f,c
  8672  00D5FC  C01E  F01F         	movff	___flmul@grs+2,___flmul@grs+3
  8673  00D600  C01D  F01E         	movff	___flmul@grs+1,___flmul@grs+2
  8674  00D604  C01C  F01D         	movff	___flmul@grs,___flmul@grs+1
  8675  00D608  6A1C               	clrf	___flmul@grs^0,c
  8676  00D60A  5013               	movf	___flmul@a^0,w,c
  8677  00D60C  0210               	mulwf	(___flmul@b+1)^0,c
  8678  00D60E  006F FFCC  F026    	movff	prodl,___flmul@temp
  8679  00D614  006F FFD0  F027    	movff	prodh,___flmul@temp+1
  8680  00D61A  5026               	movf	___flmul@temp^0,w,c
  8681  00D61C  261C               	addwf	___flmul@grs^0,f,c
  8682  00D61E  5027               	movf	(___flmul@temp+1)^0,w,c
  8683  00D620  221D               	addwfc	(___flmul@grs+1)^0,f,c
  8684  00D622  0E00               	movlw	0
  8685  00D624  221E               	addwfc	(___flmul@grs+2)^0,f,c
  8686  00D626  0E00               	movlw	0
  8687  00D628  221F               	addwfc	(___flmul@grs+3)^0,f,c
  8688  00D62A  5014               	movf	(___flmul@a+1)^0,w,c
  8689  00D62C  020F               	mulwf	___flmul@b^0,c
  8690  00D62E  006F FFCC  F026    	movff	prodl,___flmul@temp
  8691  00D634  006F FFD0  F027    	movff	prodh,___flmul@temp+1
  8692  00D63A  5026               	movf	___flmul@temp^0,w,c
  8693  00D63C  261C               	addwf	___flmul@grs^0,f,c
  8694  00D63E  5027               	movf	(___flmul@temp+1)^0,w,c
  8695  00D640  221D               	addwfc	(___flmul@grs+1)^0,f,c
  8696  00D642  0E00               	movlw	0
  8697  00D644  221E               	addwfc	(___flmul@grs+2)^0,f,c
  8698  00D646  0E00               	movlw	0
  8699  00D648  221F               	addwfc	(___flmul@grs+3)^0,f,c
  8700  00D64A  C01E  F01F         	movff	___flmul@grs+2,___flmul@grs+3
  8701  00D64E  C01D  F01E         	movff	___flmul@grs+1,___flmul@grs+2
  8702  00D652  C01C  F01D         	movff	___flmul@grs,___flmul@grs+1
  8703  00D656  6A1C               	clrf	___flmul@grs^0,c
  8704  00D658  5013               	movf	___flmul@a^0,w,c
  8705  00D65A  020F               	mulwf	___flmul@b^0,c
  8706  00D65C  006F FFCC  F026    	movff	prodl,___flmul@temp
  8707  00D662  006F FFD0  F027    	movff	prodh,___flmul@temp+1
  8708  00D668  5026               	movf	___flmul@temp^0,w,c
  8709  00D66A  261C               	addwf	___flmul@grs^0,f,c
  8710  00D66C  5027               	movf	(___flmul@temp+1)^0,w,c
  8711  00D66E  221D               	addwfc	(___flmul@grs+1)^0,f,c
  8712  00D670  0E00               	movlw	0
  8713  00D672  221E               	addwfc	(___flmul@grs+2)^0,f,c
  8714  00D674  0E00               	movlw	0
  8715  00D676  221F               	addwfc	(___flmul@grs+3)^0,f,c
  8716  00D678  5015               	movf	(___flmul@a+2)^0,w,c
  8717  00D67A  0210               	mulwf	(___flmul@b+1)^0,c
  8718  00D67C  006F FFCC  F026    	movff	prodl,___flmul@temp
  8719  00D682  006F FFD0  F027    	movff	prodh,___flmul@temp+1
  8720  00D688  5026               	movf	___flmul@temp^0,w,c
  8721  00D68A  2622               	addwf	___flmul@prod^0,f,c
  8722  00D68C  5027               	movf	(___flmul@temp+1)^0,w,c
  8723  00D68E  2223               	addwfc	(___flmul@prod+1)^0,f,c
  8724  00D690  0E00               	movlw	0
  8725  00D692  2224               	addwfc	(___flmul@prod+2)^0,f,c
  8726  00D694  0E00               	movlw	0
  8727  00D696  2225               	addwfc	(___flmul@prod+3)^0,f,c
  8728  00D698  5014               	movf	(___flmul@a+1)^0,w,c
  8729  00D69A  0211               	mulwf	(___flmul@b+2)^0,c
  8730  00D69C  006F FFCC  F026    	movff	prodl,___flmul@temp
  8731  00D6A2  006F FFD0  F027    	movff	prodh,___flmul@temp+1
  8732  00D6A8  5026               	movf	___flmul@temp^0,w,c
  8733  00D6AA  2622               	addwf	___flmul@prod^0,f,c
  8734  00D6AC  5027               	movf	(___flmul@temp+1)^0,w,c
  8735  00D6AE  2223               	addwfc	(___flmul@prod+1)^0,f,c
  8736  00D6B0  0E00               	movlw	0
  8737  00D6B2  2224               	addwfc	(___flmul@prod+2)^0,f,c
  8738  00D6B4  0E00               	movlw	0
  8739  00D6B6  2225               	addwfc	(___flmul@prod+3)^0,f,c
  8740  00D6B8  5015               	movf	(___flmul@a+2)^0,w,c
  8741  00D6BA  0211               	mulwf	(___flmul@b+2)^0,c
  8742  00D6BC  006F FFCC  F026    	movff	prodl,___flmul@temp
  8743  00D6C2  006F FFD0  F027    	movff	prodh,___flmul@temp+1
  8744  00D6C8  5026               	movf	___flmul@temp^0,w,c
  8745  00D6CA  6E17               	movwf	??___flmul^0,c
  8746  00D6CC  5027               	movf	(___flmul@temp+1)^0,w,c
  8747  00D6CE  6E18               	movwf	(??___flmul+1)^0,c
  8748  00D6D0  6A19               	clrf	(??___flmul+2)^0,c
  8749  00D6D2  6A1A               	clrf	(??___flmul+3)^0,c
  8750  00D6D4  C019  F01A         	movff	??___flmul+2,??___flmul+3
  8751  00D6D8  C018  F019         	movff	??___flmul+1,??___flmul+2
  8752  00D6DC  C017  F018         	movff	??___flmul,??___flmul+1
  8753  00D6E0  6A17               	clrf	??___flmul^0,c
  8754  00D6E2  5017               	movf	??___flmul^0,w,c
  8755  00D6E4  2622               	addwf	___flmul@prod^0,f,c
  8756  00D6E6  5018               	movf	(??___flmul+1)^0,w,c
  8757  00D6E8  2223               	addwfc	(___flmul@prod+1)^0,f,c
  8758  00D6EA  5019               	movf	(??___flmul+2)^0,w,c
  8759  00D6EC  2224               	addwfc	(___flmul@prod+2)^0,f,c
  8760  00D6EE  501A               	movf	(??___flmul+3)^0,w,c
  8761  00D6F0  2225               	addwfc	(___flmul@prod+3)^0,f,c
  8762  00D6F2  C01C  F017         	movff	___flmul@grs,??___flmul
  8763  00D6F6  C01D  F018         	movff	___flmul@grs+1,??___flmul+1
  8764  00D6FA  C01E  F019         	movff	___flmul@grs+2,??___flmul+2
  8765  00D6FE  C01F  F01A         	movff	___flmul@grs+3,??___flmul+3
  8766  00D702  0E19               	movlw	25
  8767  00D704  EF89  F06B         	goto	u3140
  8768  00D708                     u3145:
  8769  00D708  90D8               	bcf	status,0,c
  8770  00D70A  321A               	rrcf	(??___flmul+3)^0,f,c
  8771  00D70C  3219               	rrcf	(??___flmul+2)^0,f,c
  8772  00D70E  3218               	rrcf	(??___flmul+1)^0,f,c
  8773  00D710  3217               	rrcf	??___flmul^0,f,c
  8774  00D712                     u3140:
  8775  00D712  2EE8               	decfsz	wreg,f,c
  8776  00D714  EF84  F06B         	goto	u3145
  8777  00D718  5017               	movf	??___flmul^0,w,c
  8778  00D71A  2622               	addwf	___flmul@prod^0,f,c
  8779  00D71C  5018               	movf	(??___flmul+1)^0,w,c
  8780  00D71E  2223               	addwfc	(___flmul@prod+1)^0,f,c
  8781  00D720  5019               	movf	(??___flmul+2)^0,w,c
  8782  00D722  2224               	addwfc	(___flmul@prod+2)^0,f,c
  8783  00D724  501A               	movf	(??___flmul+3)^0,w,c
  8784  00D726  2225               	addwfc	(___flmul@prod+3)^0,f,c
  8785  00D728  C01E  F01F         	movff	___flmul@grs+2,___flmul@grs+3
  8786  00D72C  C01D  F01E         	movff	___flmul@grs+1,___flmul@grs+2
  8787  00D730  C01C  F01D         	movff	___flmul@grs,___flmul@grs+1
  8788  00D734  6A1C               	clrf	___flmul@grs^0,c
  8789  00D736  5020               	movf	___flmul@aexp^0,w,c
  8790  00D738  C021  F017         	movff	___flmul@bexp,??___flmul
  8791  00D73C  6A18               	clrf	(??___flmul+1)^0,c
  8792  00D73E  2617               	addwf	??___flmul^0,f,c
  8793  00D740  0E00               	movlw	0
  8794  00D742  2218               	addwfc	(??___flmul+1)^0,f,c
  8795  00D744  0E82               	movlw	130
  8796  00D746  2417               	addwf	??___flmul^0,w,c
  8797  00D748  6E26               	movwf	___flmul@temp^0,c
  8798  00D74A  0EFF               	movlw	255
  8799  00D74C  2018               	addwfc	(??___flmul+1)^0,w,c
  8800  00D74E  6E27               	movwf	(___flmul@temp+1)^0,c
  8801  00D750  EFBF  F06B         	goto	l3631
  8802  00D754                     l3625:
  8803  00D754  90D8               	bcf	status,0,c
  8804  00D756  3622               	rlcf	___flmul@prod^0,f,c
  8805  00D758  3623               	rlcf	(___flmul@prod+1)^0,f,c
  8806  00D75A  3624               	rlcf	(___flmul@prod+2)^0,f,c
  8807  00D75C  3625               	rlcf	(___flmul@prod+3)^0,f,c
  8808  00D75E  AE1F               	btfss	(___flmul@grs+3)^0,7,c
  8809  00D760  EFB4  F06B         	goto	u3151
  8810  00D764  EFB6  F06B         	goto	u3150
  8811  00D768                     u3151:
  8812  00D768  EFB7  F06B         	goto	l1293
  8813  00D76C                     u3150:
  8814  00D76C  8022               	bsf	___flmul@prod^0,0,c
  8815  00D76E                     l1293:
  8816  00D76E  90D8               	bcf	status,0,c
  8817  00D770  361C               	rlcf	___flmul@grs^0,f,c
  8818  00D772  361D               	rlcf	(___flmul@grs+1)^0,f,c
  8819  00D774  361E               	rlcf	(___flmul@grs+2)^0,f,c
  8820  00D776  361F               	rlcf	(___flmul@grs+3)^0,f,c
  8821  00D778  0626               	decf	___flmul@temp^0,f,c
  8822  00D77A  A0D8               	btfss	status,0,c
  8823  00D77C  0627               	decf	(___flmul@temp+1)^0,f,c
  8824  00D77E                     l3631:
  8825  00D77E  AE24               	btfss	(___flmul@prod+2)^0,7,c
  8826  00D780  EFC4  F06B         	goto	u3161
  8827  00D784  EFC6  F06B         	goto	u3160
  8828  00D788                     u3161:
  8829  00D788  EFAA  F06B         	goto	l3625
  8830  00D78C                     u3160:
  8831  00D78C  0E00               	movlw	0
  8832  00D78E  6E20               	movwf	___flmul@aexp^0,c
  8833  00D790  AE1F               	btfss	(___flmul@grs+3)^0,7,c
  8834  00D792  EFCD  F06B         	goto	u3171
  8835  00D796  EFCF  F06B         	goto	u3170
  8836  00D79A                     u3171:
  8837  00D79A  EFF3  F06B         	goto	l1295
  8838  00D79E                     u3170:
  8839  00D79E  0EFF               	movlw	255
  8840  00D7A0  141C               	andwf	___flmul@grs^0,w,c
  8841  00D7A2  6E17               	movwf	??___flmul^0,c
  8842  00D7A4  0EFF               	movlw	255
  8843  00D7A6  141D               	andwf	(___flmul@grs+1)^0,w,c
  8844  00D7A8  6E18               	movwf	(??___flmul+1)^0,c
  8845  00D7AA  0EFF               	movlw	255
  8846  00D7AC  141E               	andwf	(___flmul@grs+2)^0,w,c
  8847  00D7AE  6E19               	movwf	(??___flmul+2)^0,c
  8848  00D7B0  0E7F               	movlw	127
  8849  00D7B2  141F               	andwf	(___flmul@grs+3)^0,w,c
  8850  00D7B4  6E1A               	movwf	(??___flmul+3)^0,c
  8851  00D7B6  5017               	movf	??___flmul^0,w,c
  8852  00D7B8  1018               	iorwf	(??___flmul+1)^0,w,c
  8853  00D7BA  1019               	iorwf	(??___flmul+2)^0,w,c
  8854  00D7BC  101A               	iorwf	(??___flmul+3)^0,w,c
  8855  00D7BE  B4D8               	btfsc	status,2,c
  8856  00D7C0  EFE4  F06B         	goto	u3181
  8857  00D7C4  EFE6  F06B         	goto	u3180
  8858  00D7C8                     u3181:
  8859  00D7C8  EFEA  F06B         	goto	l1296
  8860  00D7CC                     u3180:
  8861  00D7CC                     l3639:
  8862  00D7CC  0E01               	movlw	1
  8863  00D7CE  6E20               	movwf	___flmul@aexp^0,c
  8864  00D7D0  EFF3  F06B         	goto	l1295
  8865  00D7D4                     l1296:
  8866  00D7D4  A022               	btfss	___flmul@prod^0,0,c
  8867  00D7D6  EFEF  F06B         	goto	u3191
  8868  00D7DA  EFF1  F06B         	goto	u3190
  8869  00D7DE                     u3191:
  8870  00D7DE  EFF3  F06B         	goto	l1295
  8871  00D7E2                     u3190:
  8872  00D7E2  EFE6  F06B         	goto	l3639
  8873  00D7E6                     l1295:
  8874  00D7E6  5020               	movf	___flmul@aexp^0,w,c
  8875  00D7E8  B4D8               	btfsc	status,2,c
  8876  00D7EA  EFF9  F06B         	goto	u3201
  8877  00D7EE  EFFB  F06B         	goto	u3200
  8878  00D7F2                     u3201:
  8879  00D7F2  EF1F  F06C         	goto	l3651
  8880  00D7F6                     u3200:
  8881  00D7F6  0E01               	movlw	1
  8882  00D7F8  2622               	addwf	___flmul@prod^0,f,c
  8883  00D7FA  0E00               	movlw	0
  8884  00D7FC  2223               	addwfc	(___flmul@prod+1)^0,f,c
  8885  00D7FE  2224               	addwfc	(___flmul@prod+2)^0,f,c
  8886  00D800  2225               	addwfc	(___flmul@prod+3)^0,f,c
  8887  00D802  A025               	btfss	(___flmul@prod+3)^0,0,c
  8888  00D804  EF06  F06C         	goto	u3211
  8889  00D808  EF08  F06C         	goto	u3210
  8890  00D80C                     u3211:
  8891  00D80C  EF1F  F06C         	goto	l3651
  8892  00D810                     u3210:
  8893  00D810  C022  F017         	movff	___flmul@prod,??___flmul
  8894  00D814  C023  F018         	movff	___flmul@prod+1,??___flmul+1
  8895  00D818  C024  F019         	movff	___flmul@prod+2,??___flmul+2
  8896  00D81C  C025  F01A         	movff	___flmul@prod+3,??___flmul+3
  8897  00D820  341A               	rlcf	(??___flmul+3)^0,w,c
  8898  00D822  321A               	rrcf	(??___flmul+3)^0,f,c
  8899  00D824  3219               	rrcf	(??___flmul+2)^0,f,c
  8900  00D826  3218               	rrcf	(??___flmul+1)^0,f,c
  8901  00D828  3217               	rrcf	??___flmul^0,f,c
  8902  00D82A  C017  F022         	movff	??___flmul,___flmul@prod
  8903  00D82E  C018  F023         	movff	??___flmul+1,___flmul@prod+1
  8904  00D832  C019  F024         	movff	??___flmul+2,___flmul@prod+2
  8905  00D836  C01A  F025         	movff	??___flmul+3,___flmul@prod+3
  8906  00D83A  4A26               	infsnz	___flmul@temp^0,f,c
  8907  00D83C  2A27               	incf	(___flmul@temp+1)^0,f,c
  8908  00D83E                     l3651:
  8909  00D83E  BE27               	btfsc	(___flmul@temp+1)^0,7,c
  8910  00D840  EF2A  F06C         	goto	u3221
  8911  00D844  5027               	movf	(___flmul@temp+1)^0,w,c
  8912  00D846  E108               	bnz	u3220
  8913  00D848  2826               	incf	___flmul@temp^0,w,c
  8914  00D84A  A0D8               	btfss	status,0,c
  8915  00D84C  EF2A  F06C         	goto	u3221
  8916  00D850  EF2C  F06C         	goto	u3220
  8917  00D854                     u3221:
  8918  00D854  EF36  F06C         	goto	l3655
  8919  00D858                     u3220:
  8920  00D858  0E00               	movlw	0
  8921  00D85A  6E22               	movwf	___flmul@prod^0,c
  8922  00D85C  0E00               	movlw	0
  8923  00D85E  6E23               	movwf	(___flmul@prod+1)^0,c
  8924  00D860  0E80               	movlw	128
  8925  00D862  6E24               	movwf	(___flmul@prod+2)^0,c
  8926  00D864  0E7F               	movlw	127
  8927  00D866  6E25               	movwf	(___flmul@prod+3)^0,c
  8928  00D868  EF64  F06C         	goto	l3667
  8929  00D86C                     l3655:
  8930  00D86C  BE27               	btfsc	(___flmul@temp+1)^0,7,c
  8931  00D86E  EF43  F06C         	goto	u3230
  8932  00D872  5027               	movf	(___flmul@temp+1)^0,w,c
  8933  00D874  E106               	bnz	u3231
  8934  00D876  0426               	decf	___flmul@temp^0,w,c
  8935  00D878  B0D8               	btfsc	status,0,c
  8936  00D87A  EF41  F06C         	goto	u3231
  8937  00D87E  EF43  F06C         	goto	u3230
  8938  00D882                     u3231:
  8939  00D882  EF4F  F06C         	goto	l1303
  8940  00D886                     u3230:
  8941  00D886  0E00               	movlw	0
  8942  00D888  6E22               	movwf	___flmul@prod^0,c
  8943  00D88A  0E00               	movlw	0
  8944  00D88C  6E23               	movwf	(___flmul@prod+1)^0,c
  8945  00D88E  0E00               	movlw	0
  8946  00D890  6E24               	movwf	(___flmul@prod+2)^0,c
  8947  00D892  0E00               	movlw	0
  8948  00D894  6E25               	movwf	(___flmul@prod+3)^0,c
  8949  00D896  0E00               	movlw	0
  8950  00D898  6E1B               	movwf	___flmul@sign^0,c
  8951  00D89A  EF64  F06C         	goto	l3667
  8952  00D89E                     l1303:
  8953  00D89E  C026  F021         	movff	___flmul@temp,___flmul@bexp
  8954  00D8A2  0EFF               	movlw	255
  8955  00D8A4  1622               	andwf	___flmul@prod^0,f,c
  8956  00D8A6  0EFF               	movlw	255
  8957  00D8A8  1623               	andwf	(___flmul@prod+1)^0,f,c
  8958  00D8AA  0E7F               	movlw	127
  8959  00D8AC  1624               	andwf	(___flmul@prod+2)^0,f,c
  8960  00D8AE  0E00               	movlw	0
  8961  00D8B0  1625               	andwf	(___flmul@prod+3)^0,f,c
  8962  00D8B2  A021               	btfss	___flmul@bexp^0,0,c
  8963  00D8B4  EF5E  F06C         	goto	u3241
  8964  00D8B8  EF60  F06C         	goto	u3240
  8965  00D8BC                     u3241:
  8966  00D8BC  EF61  F06C         	goto	l3665
  8967  00D8C0                     u3240:
  8968  00D8C0  8E24               	bsf	(___flmul@prod+2)^0,7,c
  8969  00D8C2                     l3665:
  8970  00D8C2  90D8               	bcf	status,0,c
  8971  00D8C4  3021               	rrcf	___flmul@bexp^0,w,c
  8972  00D8C6  6E25               	movwf	(___flmul@prod+3)^0,c
  8973  00D8C8                     l3667:
  8974  00D8C8  501B               	movf	___flmul@sign^0,w,c
  8975  00D8CA  1225               	iorwf	(___flmul@prod+3)^0,f,c
  8976  00D8CC  C022  F00F         	movff	___flmul@prod,?___flmul
  8977  00D8D0  C023  F010         	movff	___flmul@prod+1,?___flmul+1
  8978  00D8D4  C024  F011         	movff	___flmul@prod+2,?___flmul+2
  8979  00D8D8  C025  F012         	movff	___flmul@prod+3,?___flmul+3
  8980  00D8DC                     l1290:
  8981  00D8DC  0012               	return		;funcret
  8982  00D8DE                     __end_of___flmul:
  8983                           	callstack 0
  8984                           
  8985 ;; *************** function ___flge *****************
  8986 ;; Defined at:
  8987 ;;		line 4 in file "C:\Program Files\Microchip\xc8\v2.30\pic\sources\c90\common\flge.c"
  8988 ;; Parameters:    Size  Location     Type
  8989 ;;  ff1             4    0[COMRAM] unsigned char 
  8990 ;;  ff2             4    4[COMRAM] unsigned char 
  8991 ;; Auto vars:     Size  Location     Type
  8992 ;;		None
  8993 ;; Return value:  Size  Location     Type
  8994 ;;		None               void
  8995 ;; Registers used:
  8996 ;;		wreg, status,2, status,0
  8997 ;; Tracked objects:
  8998 ;;		On entry : 0/0
  8999 ;;		On exit  : 0/0
  9000 ;;		Unchanged: 0/0
  9001 ;; Data sizes:     COMRAM   BANK0   BANK1   BANK2   BANK3   BANK4   BANK5   BANK6   BANK7   BANK8   BANK9  BANK10  BANK1
      +1  BANK12  BANK13  BANK14  BANK15
  9002 ;;      Params:         8       0       0       0       0       0       0       0       0       0       0       0       
      +0       0       0       0       0
  9003 ;;      Locals:         0       0       0       0       0       0       0       0       0       0       0       0       
      +0       0       0       0       0
  9004 ;;      Temps:          4       0       0       0       0       0       0       0       0       0       0       0       
      +0       0       0       0       0
  9005 ;;      Totals:        12       0       0       0       0       0       0       0       0       0       0       0       
      +0       0       0       0       0
  9006 ;;Total ram usage:       12 bytes
  9007 ;; Hardware stack levels used:    1
  9008 ;; This function calls:
  9009 ;;		Nothing
  9010 ;; This function is called by:
  9011 ;;		_printf
  9012 ;;		_strtod
  9013 ;; This function uses a non-reentrant model
  9014 ;;
  9015                           
  9016                           	psect	text28
  9017  00C670                     __ptext28:
  9018                           	callstack 0
  9019  00C670                     ___flge:
  9020                           	callstack 29
  9021  00C670  0E00               	movlw	0
  9022  00C672  1401               	andwf	___flge@ff1^0,w,c
  9023  00C674  6E09               	movwf	??___flge^0,c
  9024  00C676  0E00               	movlw	0
  9025  00C678  1402               	andwf	(___flge@ff1+1)^0,w,c
  9026  00C67A  6E0A               	movwf	(??___flge+1)^0,c
  9027  00C67C  0E80               	movlw	128
  9028  00C67E  1403               	andwf	(___flge@ff1+2)^0,w,c
  9029  00C680  6E0B               	movwf	(??___flge+2)^0,c
  9030  00C682  0E7F               	movlw	127
  9031  00C684  1404               	andwf	(___flge@ff1+3)^0,w,c
  9032  00C686  6E0C               	movwf	(??___flge+3)^0,c
  9033  00C688  5009               	movf	??___flge^0,w,c
  9034  00C68A  100A               	iorwf	(??___flge+1)^0,w,c
  9035  00C68C  100B               	iorwf	(??___flge+2)^0,w,c
  9036  00C68E  100C               	iorwf	(??___flge+3)^0,w,c
  9037  00C690  A4D8               	btfss	status,2,c
  9038  00C692  EF4D  F063         	goto	u3971
  9039  00C696  EF4F  F063         	goto	u3970
  9040  00C69A                     u3971:
  9041  00C69A  EF57  F063         	goto	l4173
  9042  00C69E                     u3970:
  9043  00C69E  0E00               	movlw	0
  9044  00C6A0  6E01               	movwf	___flge@ff1^0,c
  9045  00C6A2  0E00               	movlw	0
  9046  00C6A4  6E02               	movwf	(___flge@ff1+1)^0,c
  9047  00C6A6  0E00               	movlw	0
  9048  00C6A8  6E03               	movwf	(___flge@ff1+2)^0,c
  9049  00C6AA  0E00               	movlw	0
  9050  00C6AC  6E04               	movwf	(___flge@ff1+3)^0,c
  9051  00C6AE                     l4173:
  9052  00C6AE  0E00               	movlw	0
  9053  00C6B0  1405               	andwf	___flge@ff2^0,w,c
  9054  00C6B2  6E09               	movwf	??___flge^0,c
  9055  00C6B4  0E00               	movlw	0
  9056  00C6B6  1406               	andwf	(___flge@ff2+1)^0,w,c
  9057  00C6B8  6E0A               	movwf	(??___flge+1)^0,c
  9058  00C6BA  0E80               	movlw	128
  9059  00C6BC  1407               	andwf	(___flge@ff2+2)^0,w,c
  9060  00C6BE  6E0B               	movwf	(??___flge+2)^0,c
  9061  00C6C0  0E7F               	movlw	127
  9062  00C6C2  1408               	andwf	(___flge@ff2+3)^0,w,c
  9063  00C6C4  6E0C               	movwf	(??___flge+3)^0,c
  9064  00C6C6  5009               	movf	??___flge^0,w,c
  9065  00C6C8  100A               	iorwf	(??___flge+1)^0,w,c
  9066  00C6CA  100B               	iorwf	(??___flge+2)^0,w,c
  9067  00C6CC  100C               	iorwf	(??___flge+3)^0,w,c
  9068  00C6CE  A4D8               	btfss	status,2,c
  9069  00C6D0  EF6C  F063         	goto	u3981
  9070  00C6D4  EF6E  F063         	goto	u3980
  9071  00C6D8                     u3981:
  9072  00C6D8  EF76  F063         	goto	l4177
  9073  00C6DC                     u3980:
  9074  00C6DC  0E00               	movlw	0
  9075  00C6DE  6E05               	movwf	___flge@ff2^0,c
  9076  00C6E0  0E00               	movlw	0
  9077  00C6E2  6E06               	movwf	(___flge@ff2+1)^0,c
  9078  00C6E4  0E00               	movlw	0
  9079  00C6E6  6E07               	movwf	(___flge@ff2+2)^0,c
  9080  00C6E8  0E00               	movlw	0
  9081  00C6EA  6E08               	movwf	(___flge@ff2+3)^0,c
  9082  00C6EC                     l4177:
  9083  00C6EC  AE04               	btfss	(___flge@ff1+3)^0,7,c
  9084  00C6EE  EF7B  F063         	goto	u3991
  9085  00C6F2  EF7D  F063         	goto	u3990
  9086  00C6F6                     u3991:
  9087  00C6F6  EF86  F063         	goto	l4181
  9088  00C6FA                     u3990:
  9089  00C6FA  6C01               	negf	___flge@ff1^0,c
  9090  00C6FC  1E02               	comf	(___flge@ff1+1)^0,f,c
  9091  00C6FE  B0D8               	btfsc	status,0,c
  9092  00C700  2A02               	incf	(___flge@ff1+1)^0,f,c
  9093  00C702  1E03               	comf	(___flge@ff1+2)^0,f,c
  9094  00C704  B0D8               	btfsc	status,0,c
  9095  00C706  2A03               	incf	(___flge@ff1+2)^0,f,c
  9096  00C708  0E80               	movlw	128
  9097  00C70A  5604               	subfwb	(___flge@ff1+3)^0,f,c
  9098  00C70C                     l4181:
  9099  00C70C  AE08               	btfss	(___flge@ff2+3)^0,7,c
  9100  00C70E  EF8B  F063         	goto	u4001
  9101  00C712  EF8D  F063         	goto	u4000
  9102  00C716                     u4001:
  9103  00C716  EF96  F063         	goto	l928
  9104  00C71A                     u4000:
  9105  00C71A  6C05               	negf	___flge@ff2^0,c
  9106  00C71C  1E06               	comf	(___flge@ff2+1)^0,f,c
  9107  00C71E  B0D8               	btfsc	status,0,c
  9108  00C720  2A06               	incf	(___flge@ff2+1)^0,f,c
  9109  00C722  1E07               	comf	(___flge@ff2+2)^0,f,c
  9110  00C724  B0D8               	btfsc	status,0,c
  9111  00C726  2A07               	incf	(___flge@ff2+2)^0,f,c
  9112  00C728  0E80               	movlw	128
  9113  00C72A  5608               	subfwb	(___flge@ff2+3)^0,f,c
  9114  00C72C                     l928:
  9115  00C72C  0E00               	movlw	0
  9116  00C72E  1A01               	xorwf	___flge@ff1^0,f,c
  9117  00C730  0E00               	movlw	0
  9118  00C732  1A02               	xorwf	(___flge@ff1+1)^0,f,c
  9119  00C734  0E00               	movlw	0
  9120  00C736  1A03               	xorwf	(___flge@ff1+2)^0,f,c
  9121  00C738  0E80               	movlw	128
  9122  00C73A  1A04               	xorwf	(___flge@ff1+3)^0,f,c
  9123  00C73C  0E00               	movlw	0
  9124  00C73E  1A05               	xorwf	___flge@ff2^0,f,c
  9125  00C740  0E00               	movlw	0
  9126  00C742  1A06               	xorwf	(___flge@ff2+1)^0,f,c
  9127  00C744  0E00               	movlw	0
  9128  00C746  1A07               	xorwf	(___flge@ff2+2)^0,f,c
  9129  00C748  0E80               	movlw	128
  9130  00C74A  1A08               	xorwf	(___flge@ff2+3)^0,f,c
  9131  00C74C  5005               	movf	___flge@ff2^0,w,c
  9132  00C74E  5C01               	subwf	___flge@ff1^0,w,c
  9133  00C750  5006               	movf	(___flge@ff2+1)^0,w,c
  9134  00C752  5802               	subwfb	(___flge@ff1+1)^0,w,c
  9135  00C754  5007               	movf	(___flge@ff2+2)^0,w,c
  9136  00C756  5803               	subwfb	(___flge@ff1+2)^0,w,c
  9137  00C758  5008               	movf	(___flge@ff2+3)^0,w,c
  9138  00C75A  5804               	subwfb	(___flge@ff1+3)^0,w,c
  9139  00C75C  B0D8               	btfsc	status,0,c
  9140  00C75E  EFB3  F063         	goto	u4011
  9141  00C762  EFB5  F063         	goto	u4010
  9142  00C766                     u4011:
  9143  00C766  EFB8  F063         	goto	l4187
  9144  00C76A                     u4010:
  9145  00C76A  90D8               	bcf	status,0,c
  9146  00C76C  EFB9  F063         	goto	l929
  9147  00C770                     l4187:
  9148  00C770  80D8               	bsf	status,0,c
  9149  00C772                     l929:
  9150  00C772  0012               	return		;funcret
  9151  00C774                     __end_of___flge:
  9152                           	callstack 0
  9153                           
  9154 ;; *************** function ___fleq *****************
  9155 ;; Defined at:
  9156 ;;		line 4 in file "C:\Program Files\Microchip\xc8\v2.30\pic\sources\c90\common\fleq.c"
  9157 ;; Parameters:    Size  Location     Type
  9158 ;;  ff1             4    0[COMRAM] unsigned char 
  9159 ;;  ff2             4    4[COMRAM] unsigned char 
  9160 ;; Auto vars:     Size  Location     Type
  9161 ;;		None
  9162 ;; Return value:  Size  Location     Type
  9163 ;;		None               void
  9164 ;; Registers used:
  9165 ;;		wreg, status,2, status,0
  9166 ;; Tracked objects:
  9167 ;;		On entry : 0/0
  9168 ;;		On exit  : 0/0
  9169 ;;		Unchanged: 0/0
  9170 ;; Data sizes:     COMRAM   BANK0   BANK1   BANK2   BANK3   BANK4   BANK5   BANK6   BANK7   BANK8   BANK9  BANK10  BANK1
      +1  BANK12  BANK13  BANK14  BANK15
  9171 ;;      Params:         8       0       0       0       0       0       0       0       0       0       0       0       
      +0       0       0       0       0
  9172 ;;      Locals:         0       0       0       0       0       0       0       0       0       0       0       0       
      +0       0       0       0       0
  9173 ;;      Temps:          4       0       0       0       0       0       0       0       0       0       0       0       
      +0       0       0       0       0
  9174 ;;      Totals:        12       0       0       0       0       0       0       0       0       0       0       0       
      +0       0       0       0       0
  9175 ;;Total ram usage:       12 bytes
  9176 ;; Hardware stack levels used:    1
  9177 ;; This function calls:
  9178 ;;		Nothing
  9179 ;; This function is called by:
  9180 ;;		_main
  9181 ;;		_printf
  9182 ;;		_strtod
  9183 ;; This function uses a non-reentrant model
  9184 ;;
  9185                           
  9186                           	psect	text29
  9187  00C392                     __ptext29:
  9188                           	callstack 0
  9189  00C392                     ___fleq:
  9190                           	callstack 29
  9191  00C392  0E00               	movlw	0
  9192  00C394  1401               	andwf	___fleq@ff1^0,w,c
  9193  00C396  6E09               	movwf	??___fleq^0,c
  9194  00C398  0E00               	movlw	0
  9195  00C39A  1402               	andwf	(___fleq@ff1+1)^0,w,c
  9196  00C39C  6E0A               	movwf	(??___fleq+1)^0,c
  9197  00C39E  0E80               	movlw	128
  9198  00C3A0  1403               	andwf	(___fleq@ff1+2)^0,w,c
  9199  00C3A2  6E0B               	movwf	(??___fleq+2)^0,c
  9200  00C3A4  0E7F               	movlw	127
  9201  00C3A6  1404               	andwf	(___fleq@ff1+3)^0,w,c
  9202  00C3A8  6E0C               	movwf	(??___fleq+3)^0,c
  9203  00C3AA  5009               	movf	??___fleq^0,w,c
  9204  00C3AC  100A               	iorwf	(??___fleq+1)^0,w,c
  9205  00C3AE  100B               	iorwf	(??___fleq+2)^0,w,c
  9206  00C3B0  100C               	iorwf	(??___fleq+3)^0,w,c
  9207  00C3B2  A4D8               	btfss	status,2,c
  9208  00C3B4  EFDE  F061         	goto	u3941
  9209  00C3B8  EFE0  F061         	goto	u3940
  9210  00C3BC                     u3941:
  9211  00C3BC  EFE8  F061         	goto	l4157
  9212  00C3C0                     u3940:
  9213  00C3C0  0E00               	movlw	0
  9214  00C3C2  6E01               	movwf	___fleq@ff1^0,c
  9215  00C3C4  0E00               	movlw	0
  9216  00C3C6  6E02               	movwf	(___fleq@ff1+1)^0,c
  9217  00C3C8  0E00               	movlw	0
  9218  00C3CA  6E03               	movwf	(___fleq@ff1+2)^0,c
  9219  00C3CC  0E00               	movlw	0
  9220  00C3CE  6E04               	movwf	(___fleq@ff1+3)^0,c
  9221  00C3D0                     l4157:
  9222  00C3D0  0E00               	movlw	0
  9223  00C3D2  1405               	andwf	___fleq@ff2^0,w,c
  9224  00C3D4  6E09               	movwf	??___fleq^0,c
  9225  00C3D6  0E00               	movlw	0
  9226  00C3D8  1406               	andwf	(___fleq@ff2+1)^0,w,c
  9227  00C3DA  6E0A               	movwf	(??___fleq+1)^0,c
  9228  00C3DC  0E80               	movlw	128
  9229  00C3DE  1407               	andwf	(___fleq@ff2+2)^0,w,c
  9230  00C3E0  6E0B               	movwf	(??___fleq+2)^0,c
  9231  00C3E2  0E7F               	movlw	127
  9232  00C3E4  1408               	andwf	(___fleq@ff2+3)^0,w,c
  9233  00C3E6  6E0C               	movwf	(??___fleq+3)^0,c
  9234  00C3E8  5009               	movf	??___fleq^0,w,c
  9235  00C3EA  100A               	iorwf	(??___fleq+1)^0,w,c
  9236  00C3EC  100B               	iorwf	(??___fleq+2)^0,w,c
  9237  00C3EE  100C               	iorwf	(??___fleq+3)^0,w,c
  9238  00C3F0  A4D8               	btfss	status,2,c
  9239  00C3F2  EFFD  F061         	goto	u3951
  9240  00C3F6  EFFF  F061         	goto	u3950
  9241  00C3FA                     u3951:
  9242  00C3FA  EF07  F062         	goto	l4161
  9243  00C3FE                     u3950:
  9244  00C3FE  0E00               	movlw	0
  9245  00C400  6E05               	movwf	___fleq@ff2^0,c
  9246  00C402  0E00               	movlw	0
  9247  00C404  6E06               	movwf	(___fleq@ff2+1)^0,c
  9248  00C406  0E00               	movlw	0
  9249  00C408  6E07               	movwf	(___fleq@ff2+2)^0,c
  9250  00C40A  0E00               	movlw	0
  9251  00C40C  6E08               	movwf	(___fleq@ff2+3)^0,c
  9252  00C40E                     l4161:
  9253  00C40E  5005               	movf	___fleq@ff2^0,w,c
  9254  00C410  1801               	xorwf	___fleq@ff1^0,w,c
  9255  00C412  E10F               	bnz	u3960
  9256  00C414  5006               	movf	(___fleq@ff2+1)^0,w,c
  9257  00C416  1802               	xorwf	(___fleq@ff1+1)^0,w,c
  9258  00C418  E10C               	bnz	u3960
  9259  00C41A  5007               	movf	(___fleq@ff2+2)^0,w,c
  9260  00C41C  1803               	xorwf	(___fleq@ff1+2)^0,w,c
  9261  00C41E  E109               	bnz	u3960
  9262  00C420  5008               	movf	(___fleq@ff2+3)^0,w,c
  9263  00C422  1804               	xorwf	(___fleq@ff1+3)^0,w,c
  9264  00C424  B4D8               	btfsc	status,2,c
  9265  00C426  EF17  F062         	goto	u3961
  9266  00C42A  EF19  F062         	goto	u3960
  9267  00C42E                     u3961:
  9268  00C42E  EF1C  F062         	goto	l4165
  9269  00C432                     u3960:
  9270  00C432  90D8               	bcf	status,0,c
  9271  00C434  EF1D  F062         	goto	l922
  9272  00C438                     l4165:
  9273  00C438  80D8               	bsf	status,0,c
  9274  00C43A                     l922:
  9275  00C43A  0012               	return		;funcret
  9276  00C43C                     __end_of___fleq:
  9277                           	callstack 0
  9278                           
  9279 ;; *************** function ___fldiv *****************
  9280 ;; Defined at:
  9281 ;;		line 11 in file "C:\Program Files\Microchip\xc8\v2.30\pic\sources\c90\common\sprcdiv.c"
  9282 ;; Parameters:    Size  Location     Type
  9283 ;;  b               4   14[COMRAM] unsigned char 
  9284 ;;  a               4   18[COMRAM] unsigned char 
  9285 ;; Auto vars:     Size  Location     Type
  9286 ;;  grs             4   33[COMRAM] unsigned long 
  9287 ;;  rem             4   26[COMRAM] unsigned long 
  9288 ;;  new_exp         2   31[COMRAM] int 
  9289 ;;  aexp            1   38[COMRAM] unsigned char 
  9290 ;;  bexp            1   37[COMRAM] unsigned char 
  9291 ;;  sign            1   30[COMRAM] unsigned char 
  9292 ;; Return value:  Size  Location     Type
  9293 ;;                  4   14[COMRAM] unsigned char 
  9294 ;; Registers used:
  9295 ;;		wreg, status,2, status,0
  9296 ;; Tracked objects:
  9297 ;;		On entry : 0/0
  9298 ;;		On exit  : 0/0
  9299 ;;		Unchanged: 0/0
  9300 ;; Data sizes:     COMRAM   BANK0   BANK1   BANK2   BANK3   BANK4   BANK5   BANK6   BANK7   BANK8   BANK9  BANK10  BANK1
      +1  BANK12  BANK13  BANK14  BANK15
  9301 ;;      Params:         8       0       0       0       0       0       0       0       0       0       0       0       
      +0       0       0       0       0
  9302 ;;      Locals:        13       0       0       0       0       0       0       0       0       0       0       0       
      +0       0       0       0       0
  9303 ;;      Temps:          4       0       0       0       0       0       0       0       0       0       0       0       
      +0       0       0       0       0
  9304 ;;      Totals:        25       0       0       0       0       0       0       0       0       0       0       0       
      +0       0       0       0       0
  9305 ;;Total ram usage:       25 bytes
  9306 ;; Hardware stack levels used:    1
  9307 ;; This function calls:
  9308 ;;		Nothing
  9309 ;; This function is called by:
  9310 ;;		_main
  9311 ;;		_strtod
  9312 ;; This function uses a non-reentrant model
  9313 ;;
  9314                           
  9315                           	psect	text30
  9316  00D0F6                     __ptext30:
  9317                           	callstack 0
  9318  00D0F6                     ___fldiv:
  9319                           	callstack 28
  9320  00D0F6  5012               	movf	(___fldiv@b+3)^0,w,c
  9321  00D0F8  0B80               	andlw	128
  9322  00D0FA  6E1F               	movwf	___fldiv@sign^0,c
  9323  00D0FC  5012               	movf	(___fldiv@b+3)^0,w,c
  9324  00D0FE  2412               	addwf	(___fldiv@b+3)^0,w,c
  9325  00D100  6E26               	movwf	___fldiv@bexp^0,c
  9326  00D102  AE11               	btfss	(___fldiv@b+2)^0,7,c
  9327  00D104  EF86  F068         	goto	u3711
  9328  00D108  EF88  F068         	goto	u3710
  9329  00D10C                     u3711:
  9330  00D10C  EF89  F068         	goto	l4015
  9331  00D110                     u3710:
  9332  00D110  8026               	bsf	___fldiv@bexp^0,0,c
  9333  00D112                     l4015:
  9334  00D112  5026               	movf	___fldiv@bexp^0,w,c
  9335  00D114  B4D8               	btfsc	status,2,c
  9336  00D116  EF8F  F068         	goto	u3721
  9337  00D11A  EF91  F068         	goto	u3720
  9338  00D11E                     u3721:
  9339  00D11E  EFA6  F068         	goto	l4025
  9340  00D122                     u3720:
  9341  00D122  2826               	incf	___fldiv@bexp^0,w,c
  9342  00D124  A4D8               	btfss	status,2,c
  9343  00D126  EF97  F068         	goto	u3731
  9344  00D12A  EF99  F068         	goto	u3730
  9345  00D12E                     u3731:
  9346  00D12E  EFA1  F068         	goto	l4021
  9347  00D132                     u3730:
  9348  00D132  0E00               	movlw	0
  9349  00D134  6E0F               	movwf	___fldiv@b^0,c
  9350  00D136  0E00               	movlw	0
  9351  00D138  6E10               	movwf	(___fldiv@b+1)^0,c
  9352  00D13A  0E00               	movlw	0
  9353  00D13C  6E11               	movwf	(___fldiv@b+2)^0,c
  9354  00D13E  0E00               	movlw	0
  9355  00D140  6E12               	movwf	(___fldiv@b+3)^0,c
  9356  00D142                     l4021:
  9357  00D142  8E11               	bsf	(___fldiv@b+2)^0,7,c
  9358  00D144  0E00               	movlw	0
  9359  00D146  6E12               	movwf	(___fldiv@b+3)^0,c
  9360  00D148  EFAE  F068         	goto	l4027
  9361  00D14C                     l4025:
  9362  00D14C  0E00               	movlw	0
  9363  00D14E  6E0F               	movwf	___fldiv@b^0,c
  9364  00D150  0E00               	movlw	0
  9365  00D152  6E10               	movwf	(___fldiv@b+1)^0,c
  9366  00D154  0E00               	movlw	0
  9367  00D156  6E11               	movwf	(___fldiv@b+2)^0,c
  9368  00D158  0E00               	movlw	0
  9369  00D15A  6E12               	movwf	(___fldiv@b+3)^0,c
  9370  00D15C                     l4027:
  9371  00D15C  5016               	movf	(___fldiv@a+3)^0,w,c
  9372  00D15E  0B80               	andlw	128
  9373  00D160  1A1F               	xorwf	___fldiv@sign^0,f,c
  9374  00D162  5016               	movf	(___fldiv@a+3)^0,w,c
  9375  00D164  2416               	addwf	(___fldiv@a+3)^0,w,c
  9376  00D166  6E27               	movwf	___fldiv@aexp^0,c
  9377  00D168  AE15               	btfss	(___fldiv@a+2)^0,7,c
  9378  00D16A  EFB9  F068         	goto	u3741
  9379  00D16E  EFBB  F068         	goto	u3740
  9380  00D172                     u3741:
  9381  00D172  EFBC  F068         	goto	l4035
  9382  00D176                     u3740:
  9383  00D176  8027               	bsf	___fldiv@aexp^0,0,c
  9384  00D178                     l4035:
  9385  00D178  5027               	movf	___fldiv@aexp^0,w,c
  9386  00D17A  B4D8               	btfsc	status,2,c
  9387  00D17C  EFC2  F068         	goto	u3751
  9388  00D180  EFC4  F068         	goto	u3750
  9389  00D184                     u3751:
  9390  00D184  EFD9  F068         	goto	l4045
  9391  00D188                     u3750:
  9392  00D188  2827               	incf	___fldiv@aexp^0,w,c
  9393  00D18A  A4D8               	btfss	status,2,c
  9394  00D18C  EFCA  F068         	goto	u3761
  9395  00D190  EFCC  F068         	goto	u3760
  9396  00D194                     u3761:
  9397  00D194  EFD4  F068         	goto	l4041
  9398  00D198                     u3760:
  9399  00D198  0E00               	movlw	0
  9400  00D19A  6E13               	movwf	___fldiv@a^0,c
  9401  00D19C  0E00               	movlw	0
  9402  00D19E  6E14               	movwf	(___fldiv@a+1)^0,c
  9403  00D1A0  0E00               	movlw	0
  9404  00D1A2  6E15               	movwf	(___fldiv@a+2)^0,c
  9405  00D1A4  0E00               	movlw	0
  9406  00D1A6  6E16               	movwf	(___fldiv@a+3)^0,c
  9407  00D1A8                     l4041:
  9408  00D1A8  8E15               	bsf	(___fldiv@a+2)^0,7,c
  9409  00D1AA  0E00               	movlw	0
  9410  00D1AC  6E16               	movwf	(___fldiv@a+3)^0,c
  9411  00D1AE  EFE1  F068         	goto	l4047
  9412  00D1B2                     l4045:
  9413  00D1B2  0E00               	movlw	0
  9414  00D1B4  6E13               	movwf	___fldiv@a^0,c
  9415  00D1B6  0E00               	movlw	0
  9416  00D1B8  6E14               	movwf	(___fldiv@a+1)^0,c
  9417  00D1BA  0E00               	movlw	0
  9418  00D1BC  6E15               	movwf	(___fldiv@a+2)^0,c
  9419  00D1BE  0E00               	movlw	0
  9420  00D1C0  6E16               	movwf	(___fldiv@a+3)^0,c
  9421  00D1C2                     l4047:
  9422  00D1C2  5013               	movf	___fldiv@a^0,w,c
  9423  00D1C4  1014               	iorwf	(___fldiv@a+1)^0,w,c
  9424  00D1C6  1015               	iorwf	(___fldiv@a+2)^0,w,c
  9425  00D1C8  1016               	iorwf	(___fldiv@a+3)^0,w,c
  9426  00D1CA  A4D8               	btfss	status,2,c
  9427  00D1CC  EFEA  F068         	goto	u3771
  9428  00D1D0  EFEC  F068         	goto	u3770
  9429  00D1D4                     u3771:
  9430  00D1D4  EF04  F069         	goto	l4059
  9431  00D1D8                     u3770:
  9432  00D1D8  0E00               	movlw	0
  9433  00D1DA  6E0F               	movwf	___fldiv@b^0,c
  9434  00D1DC  0E00               	movlw	0
  9435  00D1DE  6E10               	movwf	(___fldiv@b+1)^0,c
  9436  00D1E0  0E00               	movlw	0
  9437  00D1E2  6E11               	movwf	(___fldiv@b+2)^0,c
  9438  00D1E4  0E00               	movlw	0
  9439  00D1E6  6E12               	movwf	(___fldiv@b+3)^0,c
  9440  00D1E8  0E80               	movlw	128
  9441  00D1EA  1211               	iorwf	(___fldiv@b+2)^0,f,c
  9442  00D1EC  0E7F               	movlw	127
  9443  00D1EE  1212               	iorwf	(___fldiv@b+3)^0,f,c
  9444  00D1F0                     l4053:
  9445  00D1F0  501F               	movf	___fldiv@sign^0,w,c
  9446  00D1F2  1212               	iorwf	(___fldiv@b+3)^0,f,c
  9447  00D1F4  C00F  F00F         	movff	___fldiv@b,?___fldiv
  9448  00D1F8  C010  F010         	movff	___fldiv@b+1,?___fldiv+1
  9449  00D1FC  C011  F011         	movff	___fldiv@b+2,?___fldiv+2
  9450  00D200  C012  F012         	movff	___fldiv@b+3,?___fldiv+3
  9451  00D204  EF47  F06A         	goto	l1254
  9452  00D208                     l4059:
  9453  00D208  5026               	movf	___fldiv@bexp^0,w,c
  9454  00D20A  A4D8               	btfss	status,2,c
  9455  00D20C  EF0A  F069         	goto	u3781
  9456  00D210  EF0C  F069         	goto	u3780
  9457  00D214                     u3781:
  9458  00D214  EF16  F069         	goto	l4067
  9459  00D218                     u3780:
  9460  00D218  0E00               	movlw	0
  9461  00D21A  6E0F               	movwf	?___fldiv^0,c
  9462  00D21C  0E00               	movlw	0
  9463  00D21E  6E10               	movwf	(?___fldiv+1)^0,c
  9464  00D220  0E00               	movlw	0
  9465  00D222  6E11               	movwf	(?___fldiv+2)^0,c
  9466  00D224  0E00               	movlw	0
  9467  00D226  6E12               	movwf	(?___fldiv+3)^0,c
  9468  00D228  EF47  F06A         	goto	l1254
  9469  00D22C                     l4067:
  9470  00D22C  5027               	movf	___fldiv@aexp^0,w,c
  9471  00D22E  C026  F017         	movff	___fldiv@bexp,??___fldiv
  9472  00D232  6A18               	clrf	(??___fldiv+1)^0,c
  9473  00D234  5E17               	subwf	??___fldiv^0,f,c
  9474  00D236  0E00               	movlw	0
  9475  00D238  5A18               	subwfb	(??___fldiv+1)^0,f,c
  9476  00D23A  0E7F               	movlw	127
  9477  00D23C  2417               	addwf	??___fldiv^0,w,c
  9478  00D23E  6E20               	movwf	___fldiv@new_exp^0,c
  9479  00D240  0E00               	movlw	0
  9480  00D242  2018               	addwfc	(??___fldiv+1)^0,w,c
  9481  00D244  6E21               	movwf	(___fldiv@new_exp+1)^0,c
  9482  00D246  C00F  F01B         	movff	___fldiv@b,___fldiv@rem
  9483  00D24A  C010  F01C         	movff	___fldiv@b+1,___fldiv@rem+1
  9484  00D24E  C011  F01D         	movff	___fldiv@b+2,___fldiv@rem+2
  9485  00D252  C012  F01E         	movff	___fldiv@b+3,___fldiv@rem+3
  9486  00D256  0E00               	movlw	0
  9487  00D258  6E0F               	movwf	___fldiv@b^0,c
  9488  00D25A  0E00               	movlw	0
  9489  00D25C  6E10               	movwf	(___fldiv@b+1)^0,c
  9490  00D25E  0E00               	movlw	0
  9491  00D260  6E11               	movwf	(___fldiv@b+2)^0,c
  9492  00D262  0E00               	movlw	0
  9493  00D264  6E12               	movwf	(___fldiv@b+3)^0,c
  9494  00D266  0E00               	movlw	0
  9495  00D268  6E22               	movwf	___fldiv@grs^0,c
  9496  00D26A  0E00               	movlw	0
  9497  00D26C  6E23               	movwf	(___fldiv@grs+1)^0,c
  9498  00D26E  0E00               	movlw	0
  9499  00D270  6E24               	movwf	(___fldiv@grs+2)^0,c
  9500  00D272  0E00               	movlw	0
  9501  00D274  6E25               	movwf	(___fldiv@grs+3)^0,c
  9502  00D276  0E00               	movlw	0
  9503  00D278  6E27               	movwf	___fldiv@aexp^0,c
  9504  00D27A  EF77  F069         	goto	l1256
  9505  00D27E                     l4077:
  9506  00D27E  5027               	movf	___fldiv@aexp^0,w,c
  9507  00D280  B4D8               	btfsc	status,2,c
  9508  00D282  EF45  F069         	goto	u3791
  9509  00D286  EF47  F069         	goto	u3790
  9510  00D28A                     u3791:
  9511  00D28A  EF5E  F069         	goto	l4085
  9512  00D28E                     u3790:
  9513  00D28E  90D8               	bcf	status,0,c
  9514  00D290  361B               	rlcf	___fldiv@rem^0,f,c
  9515  00D292  361C               	rlcf	(___fldiv@rem+1)^0,f,c
  9516  00D294  361D               	rlcf	(___fldiv@rem+2)^0,f,c
  9517  00D296  361E               	rlcf	(___fldiv@rem+3)^0,f,c
  9518  00D298  90D8               	bcf	status,0,c
  9519  00D29A  360F               	rlcf	___fldiv@b^0,f,c
  9520  00D29C  3610               	rlcf	(___fldiv@b+1)^0,f,c
  9521  00D29E  3611               	rlcf	(___fldiv@b+2)^0,f,c
  9522  00D2A0  3612               	rlcf	(___fldiv@b+3)^0,f,c
  9523  00D2A2  AE25               	btfss	(___fldiv@grs+3)^0,7,c
  9524  00D2A4  EF56  F069         	goto	u3801
  9525  00D2A8  EF58  F069         	goto	u3800
  9526  00D2AC                     u3801:
  9527  00D2AC  EF59  F069         	goto	l1259
  9528  00D2B0                     u3800:
  9529  00D2B0  800F               	bsf	___fldiv@b^0,0,c
  9530  00D2B2                     l1259:
  9531  00D2B2  90D8               	bcf	status,0,c
  9532  00D2B4  3622               	rlcf	___fldiv@grs^0,f,c
  9533  00D2B6  3623               	rlcf	(___fldiv@grs+1)^0,f,c
  9534  00D2B8  3624               	rlcf	(___fldiv@grs+2)^0,f,c
  9535  00D2BA  3625               	rlcf	(___fldiv@grs+3)^0,f,c
  9536  00D2BC                     l4085:
  9537  00D2BC  5013               	movf	___fldiv@a^0,w,c
  9538  00D2BE  5C1B               	subwf	___fldiv@rem^0,w,c
  9539  00D2C0  5014               	movf	(___fldiv@a+1)^0,w,c
  9540  00D2C2  581C               	subwfb	(___fldiv@rem+1)^0,w,c
  9541  00D2C4  5015               	movf	(___fldiv@a+2)^0,w,c
  9542  00D2C6  581D               	subwfb	(___fldiv@rem+2)^0,w,c
  9543  00D2C8  5016               	movf	(___fldiv@a+3)^0,w,c
  9544  00D2CA  581E               	subwfb	(___fldiv@rem+3)^0,w,c
  9545  00D2CC  A0D8               	btfss	status,0,c
  9546  00D2CE  EF6B  F069         	goto	u3811
  9547  00D2D2  EF6D  F069         	goto	u3810
  9548  00D2D6                     u3811:
  9549  00D2D6  EF76  F069         	goto	l4091
  9550  00D2DA                     u3810:
  9551  00D2DA  8C25               	bsf	(___fldiv@grs+3)^0,6,c
  9552  00D2DC  5013               	movf	___fldiv@a^0,w,c
  9553  00D2DE  5E1B               	subwf	___fldiv@rem^0,f,c
  9554  00D2E0  5014               	movf	(___fldiv@a+1)^0,w,c
  9555  00D2E2  5A1C               	subwfb	(___fldiv@rem+1)^0,f,c
  9556  00D2E4  5015               	movf	(___fldiv@a+2)^0,w,c
  9557  00D2E6  5A1D               	subwfb	(___fldiv@rem+2)^0,f,c
  9558  00D2E8  5016               	movf	(___fldiv@a+3)^0,w,c
  9559  00D2EA  5A1E               	subwfb	(___fldiv@rem+3)^0,f,c
  9560  00D2EC                     l4091:
  9561  00D2EC  2A27               	incf	___fldiv@aexp^0,f,c
  9562  00D2EE                     l1256:
  9563  00D2EE  0E19               	movlw	25
  9564  00D2F0  6427               	cpfsgt	___fldiv@aexp^0,c
  9565  00D2F2  EF7D  F069         	goto	u3821
  9566  00D2F6  EF7F  F069         	goto	u3820
  9567  00D2FA                     u3821:
  9568  00D2FA  EF3F  F069         	goto	l4077
  9569  00D2FE                     u3820:
  9570  00D2FE  501B               	movf	___fldiv@rem^0,w,c
  9571  00D300  101C               	iorwf	(___fldiv@rem+1)^0,w,c
  9572  00D302  101D               	iorwf	(___fldiv@rem+2)^0,w,c
  9573  00D304  101E               	iorwf	(___fldiv@rem+3)^0,w,c
  9574  00D306  B4D8               	btfsc	status,2,c
  9575  00D308  EF88  F069         	goto	u3831
  9576  00D30C  EF8A  F069         	goto	u3830
  9577  00D310                     u3831:
  9578  00D310  EFA2  F069         	goto	l4103
  9579  00D314                     u3830:
  9580  00D314  8022               	bsf	___fldiv@grs^0,0,c
  9581  00D316  EFA2  F069         	goto	l4103
  9582  00D31A                     l4097:
  9583  00D31A  90D8               	bcf	status,0,c
  9584  00D31C  360F               	rlcf	___fldiv@b^0,f,c
  9585  00D31E  3610               	rlcf	(___fldiv@b+1)^0,f,c
  9586  00D320  3611               	rlcf	(___fldiv@b+2)^0,f,c
  9587  00D322  3612               	rlcf	(___fldiv@b+3)^0,f,c
  9588  00D324  AE25               	btfss	(___fldiv@grs+3)^0,7,c
  9589  00D326  EF97  F069         	goto	u3841
  9590  00D32A  EF99  F069         	goto	u3840
  9591  00D32E                     u3841:
  9592  00D32E  EF9A  F069         	goto	l1265
  9593  00D332                     u3840:
  9594  00D332  800F               	bsf	___fldiv@b^0,0,c
  9595  00D334                     l1265:
  9596  00D334  90D8               	bcf	status,0,c
  9597  00D336  3622               	rlcf	___fldiv@grs^0,f,c
  9598  00D338  3623               	rlcf	(___fldiv@grs+1)^0,f,c
  9599  00D33A  3624               	rlcf	(___fldiv@grs+2)^0,f,c
  9600  00D33C  3625               	rlcf	(___fldiv@grs+3)^0,f,c
  9601  00D33E  0620               	decf	___fldiv@new_exp^0,f,c
  9602  00D340  A0D8               	btfss	status,0,c
  9603  00D342  0621               	decf	(___fldiv@new_exp+1)^0,f,c
  9604  00D344                     l4103:
  9605  00D344  AE11               	btfss	(___fldiv@b+2)^0,7,c
  9606  00D346  EFA7  F069         	goto	u3851
  9607  00D34A  EFA9  F069         	goto	u3850
  9608  00D34E                     u3851:
  9609  00D34E  EF8D  F069         	goto	l4097
  9610  00D352                     u3850:
  9611  00D352  0E00               	movlw	0
  9612  00D354  6E27               	movwf	___fldiv@aexp^0,c
  9613  00D356  AE25               	btfss	(___fldiv@grs+3)^0,7,c
  9614  00D358  EFB0  F069         	goto	u3861
  9615  00D35C  EFB2  F069         	goto	u3860
  9616  00D360                     u3861:
  9617  00D360  EFD6  F069         	goto	l1267
  9618  00D364                     u3860:
  9619  00D364  0EFF               	movlw	255
  9620  00D366  1422               	andwf	___fldiv@grs^0,w,c
  9621  00D368  6E17               	movwf	??___fldiv^0,c
  9622  00D36A  0EFF               	movlw	255
  9623  00D36C  1423               	andwf	(___fldiv@grs+1)^0,w,c
  9624  00D36E  6E18               	movwf	(??___fldiv+1)^0,c
  9625  00D370  0EFF               	movlw	255
  9626  00D372  1424               	andwf	(___fldiv@grs+2)^0,w,c
  9627  00D374  6E19               	movwf	(??___fldiv+2)^0,c
  9628  00D376  0E7F               	movlw	127
  9629  00D378  1425               	andwf	(___fldiv@grs+3)^0,w,c
  9630  00D37A  6E1A               	movwf	(??___fldiv+3)^0,c
  9631  00D37C  5017               	movf	??___fldiv^0,w,c
  9632  00D37E  1018               	iorwf	(??___fldiv+1)^0,w,c
  9633  00D380  1019               	iorwf	(??___fldiv+2)^0,w,c
  9634  00D382  101A               	iorwf	(??___fldiv+3)^0,w,c
  9635  00D384  B4D8               	btfsc	status,2,c
  9636  00D386  EFC7  F069         	goto	u3871
  9637  00D38A  EFC9  F069         	goto	u3870
  9638  00D38E                     u3871:
  9639  00D38E  EFCD  F069         	goto	l1268
  9640  00D392                     u3870:
  9641  00D392                     l4111:
  9642  00D392  0E01               	movlw	1
  9643  00D394  6E27               	movwf	___fldiv@aexp^0,c
  9644  00D396  EFD6  F069         	goto	l1267
  9645  00D39A                     l1268:
  9646  00D39A  A00F               	btfss	___fldiv@b^0,0,c
  9647  00D39C  EFD2  F069         	goto	u3881
  9648  00D3A0  EFD4  F069         	goto	u3880
  9649  00D3A4                     u3881:
  9650  00D3A4  EFD6  F069         	goto	l1267
  9651  00D3A8                     u3880:
  9652  00D3A8  EFC9  F069         	goto	l4111
  9653  00D3AC                     l1267:
  9654  00D3AC  5027               	movf	___fldiv@aexp^0,w,c
  9655  00D3AE  B4D8               	btfsc	status,2,c
  9656  00D3B0  EFDC  F069         	goto	u3891
  9657  00D3B4  EFDE  F069         	goto	u3890
  9658  00D3B8                     u3891:
  9659  00D3B8  EF02  F06A         	goto	l4123
  9660  00D3BC                     u3890:
  9661  00D3BC  0E01               	movlw	1
  9662  00D3BE  260F               	addwf	___fldiv@b^0,f,c
  9663  00D3C0  0E00               	movlw	0
  9664  00D3C2  2210               	addwfc	(___fldiv@b+1)^0,f,c
  9665  00D3C4  2211               	addwfc	(___fldiv@b+2)^0,f,c
  9666  00D3C6  2212               	addwfc	(___fldiv@b+3)^0,f,c
  9667  00D3C8  A012               	btfss	(___fldiv@b+3)^0,0,c
  9668  00D3CA  EFE9  F069         	goto	u3901
  9669  00D3CE  EFEB  F069         	goto	u3900
  9670  00D3D2                     u3901:
  9671  00D3D2  EF02  F06A         	goto	l4123
  9672  00D3D6                     u3900:
  9673  00D3D6  C00F  F017         	movff	___fldiv@b,??___fldiv
  9674  00D3DA  C010  F018         	movff	___fldiv@b+1,??___fldiv+1
  9675  00D3DE  C011  F019         	movff	___fldiv@b+2,??___fldiv+2
  9676  00D3E2  C012  F01A         	movff	___fldiv@b+3,??___fldiv+3
  9677  00D3E6  341A               	rlcf	(??___fldiv+3)^0,w,c
  9678  00D3E8  321A               	rrcf	(??___fldiv+3)^0,f,c
  9679  00D3EA  3219               	rrcf	(??___fldiv+2)^0,f,c
  9680  00D3EC  3218               	rrcf	(??___fldiv+1)^0,f,c
  9681  00D3EE  3217               	rrcf	??___fldiv^0,f,c
  9682  00D3F0  C017  F00F         	movff	??___fldiv,___fldiv@b
  9683  00D3F4  C018  F010         	movff	??___fldiv+1,___fldiv@b+1
  9684  00D3F8  C019  F011         	movff	??___fldiv+2,___fldiv@b+2
  9685  00D3FC  C01A  F012         	movff	??___fldiv+3,___fldiv@b+3
  9686  00D400  4A20               	infsnz	___fldiv@new_exp^0,f,c
  9687  00D402  2A21               	incf	(___fldiv@new_exp+1)^0,f,c
  9688  00D404                     l4123:
  9689  00D404  BE21               	btfsc	(___fldiv@new_exp+1)^0,7,c
  9690  00D406  EF0D  F06A         	goto	u3911
  9691  00D40A  5021               	movf	(___fldiv@new_exp+1)^0,w,c
  9692  00D40C  E108               	bnz	u3910
  9693  00D40E  2820               	incf	___fldiv@new_exp^0,w,c
  9694  00D410  A0D8               	btfss	status,0,c
  9695  00D412  EF0D  F06A         	goto	u3911
  9696  00D416  EF0F  F06A         	goto	u3910
  9697  00D41A                     u3911:
  9698  00D41A  EF1A  F06A         	goto	l4127
  9699  00D41E                     u3910:
  9700  00D41E  0E00               	movlw	0
  9701  00D420  6E21               	movwf	(___fldiv@new_exp+1)^0,c
  9702  00D422  6820               	setf	___fldiv@new_exp^0,c
  9703  00D424  0E00               	movlw	0
  9704  00D426  6E0F               	movwf	___fldiv@b^0,c
  9705  00D428  0E00               	movlw	0
  9706  00D42A  6E10               	movwf	(___fldiv@b+1)^0,c
  9707  00D42C  0E00               	movlw	0
  9708  00D42E  6E11               	movwf	(___fldiv@b+2)^0,c
  9709  00D430  0E00               	movlw	0
  9710  00D432  6E12               	movwf	(___fldiv@b+3)^0,c
  9711  00D434                     l4127:
  9712  00D434  BE21               	btfsc	(___fldiv@new_exp+1)^0,7,c
  9713  00D436  EF27  F06A         	goto	u3920
  9714  00D43A  5021               	movf	(___fldiv@new_exp+1)^0,w,c
  9715  00D43C  E106               	bnz	u3921
  9716  00D43E  0420               	decf	___fldiv@new_exp^0,w,c
  9717  00D440  B0D8               	btfsc	status,0,c
  9718  00D442  EF25  F06A         	goto	u3921
  9719  00D446  EF27  F06A         	goto	u3920
  9720  00D44A                     u3921:
  9721  00D44A  EF35  F06A         	goto	l4131
  9722  00D44E                     u3920:
  9723  00D44E  0E00               	movlw	0
  9724  00D450  6E21               	movwf	(___fldiv@new_exp+1)^0,c
  9725  00D452  0E00               	movlw	0
  9726  00D454  6E20               	movwf	___fldiv@new_exp^0,c
  9727  00D456  0E00               	movlw	0
  9728  00D458  6E0F               	movwf	___fldiv@b^0,c
  9729  00D45A  0E00               	movlw	0
  9730  00D45C  6E10               	movwf	(___fldiv@b+1)^0,c
  9731  00D45E  0E00               	movlw	0
  9732  00D460  6E11               	movwf	(___fldiv@b+2)^0,c
  9733  00D462  0E00               	movlw	0
  9734  00D464  6E12               	movwf	(___fldiv@b+3)^0,c
  9735  00D466  0E00               	movlw	0
  9736  00D468  6E1F               	movwf	___fldiv@sign^0,c
  9737  00D46A                     l4131:
  9738  00D46A  C020  F026         	movff	___fldiv@new_exp,___fldiv@bexp
  9739  00D46E  A026               	btfss	___fldiv@bexp^0,0,c
  9740  00D470  EF3C  F06A         	goto	u3931
  9741  00D474  EF3E  F06A         	goto	u3930
  9742  00D478                     u3931:
  9743  00D478  EF41  F06A         	goto	l4137
  9744  00D47C                     u3930:
  9745  00D47C  8E11               	bsf	(___fldiv@b+2)^0,7,c
  9746  00D47E  EF42  F06A         	goto	l4139
  9747  00D482                     l4137:
  9748  00D482  9E11               	bcf	(___fldiv@b+2)^0,7,c
  9749  00D484                     l4139:
  9750  00D484  90D8               	bcf	status,0,c
  9751  00D486  3026               	rrcf	___fldiv@bexp^0,w,c
  9752  00D488  6E12               	movwf	(___fldiv@b+3)^0,c
  9753  00D48A  EFF8  F068         	goto	l4053
  9754  00D48E                     l1254:
  9755  00D48E  0012               	return		;funcret
  9756  00D490                     __end_of___fldiv:
  9757                           	callstack 0
  9758                           
  9759 ;; *************** function _SYSTEM_Initialize *****************
  9760 ;; Defined at:
  9761 ;;		line 50 in file "mcc_generated_files/mcc.c"
  9762 ;; Parameters:    Size  Location     Type
  9763 ;;		None
  9764 ;; Auto vars:     Size  Location     Type
  9765 ;;		None
  9766 ;; Return value:  Size  Location     Type
  9767 ;;                  1    wreg      void 
  9768 ;; Registers used:
  9769 ;;		wreg, status,2, status,0, cstack
  9770 ;; Tracked objects:
  9771 ;;		On entry : 0/0
  9772 ;;		On exit  : 0/0
  9773 ;;		Unchanged: 0/0
  9774 ;; Data sizes:     COMRAM   BANK0   BANK1   BANK2   BANK3   BANK4   BANK5   BANK6   BANK7   BANK8   BANK9  BANK10  BANK1
      +1  BANK12  BANK13  BANK14  BANK15
  9775 ;;      Params:         0       0       0       0       0       0       0       0       0       0       0       0       
      +0       0       0       0       0
  9776 ;;      Locals:         0       0       0       0       0       0       0       0       0       0       0       0       
      +0       0       0       0       0
  9777 ;;      Temps:          0       0       0       0       0       0       0       0       0       0       0       0       
      +0       0       0       0       0
  9778 ;;      Totals:         0       0       0       0       0       0       0       0       0       0       0       0       
      +0       0       0       0       0
  9779 ;;Total ram usage:        0 bytes
  9780 ;; Hardware stack levels used:    1
  9781 ;; Hardware stack levels required when called:    2
  9782 ;; This function calls:
  9783 ;;		_OSCILLATOR_Initialize
  9784 ;;		_PIN_MANAGER_Initialize
  9785 ;;		_PMD_Initialize
  9786 ;;		_PWM5_Initialize
  9787 ;;		_SMT1_Initialize
  9788 ;;		_TMR2_Initialize
  9789 ;;		_UART2_Initialize
  9790 ;; This function is called by:
  9791 ;;		_main
  9792 ;; This function uses a non-reentrant model
  9793 ;;
  9794                           
  9795                           	psect	text31
  9796  00BD2A                     __ptext31:
  9797                           	callstack 0
  9798  00BD2A                     _SYSTEM_Initialize:
  9799                           	callstack 28
  9800  00BD2A                     
  9801                           ;mcc.c: 52: PMD_Initialize();
  9802  00BD2A  ECA4  F05E         	call	_PMD_Initialize	;wreg free
  9803                           
  9804                           ;mcc.c: 53: PIN_MANAGER_Initialize();
  9805  00BD2E  EC75  F061         	call	_PIN_MANAGER_Initialize	;wreg free
  9806                           
  9807                           ;mcc.c: 54: OSCILLATOR_Initialize();
  9808  00BD32  ECB6  F05E         	call	_OSCILLATOR_Initialize	;wreg free
  9809                           
  9810                           ;mcc.c: 55: SMT1_Initialize();
  9811  00BD36  ECDC  F05E         	call	_SMT1_Initialize	;wreg free
  9812                           
  9813                           ;mcc.c: 56: TMR2_Initialize();
  9814  00BD3A  EC86  F05E         	call	_TMR2_Initialize	;wreg free
  9815                           
  9816                           ;mcc.c: 57: PWM5_Initialize();
  9817  00BD3E  EC6D  F05E         	call	_PWM5_Initialize	;wreg free
  9818  00BD42                     
  9819                           ;mcc.c: 58: UART2_Initialize();
  9820  00BD42  EC80  F05F         	call	_UART2_Initialize	;wreg free
  9821  00BD46  0012               	return		;funcret
  9822  00BD48                     __end_of_SYSTEM_Initialize:
  9823                           	callstack 0
  9824                           
  9825 ;; *************** function _UART2_Initialize *****************
  9826 ;; Defined at:
  9827 ;;		line 66 in file "mcc_generated_files/uart2.c"
  9828 ;; Parameters:    Size  Location     Type
  9829 ;;		None
  9830 ;; Auto vars:     Size  Location     Type
  9831 ;;		None
  9832 ;; Return value:  Size  Location     Type
  9833 ;;                  1    wreg      void 
  9834 ;; Registers used:
  9835 ;;		wreg, status,2, status,0, cstack
  9836 ;; Tracked objects:
  9837 ;;		On entry : 0/0
  9838 ;;		On exit  : 0/0
  9839 ;;		Unchanged: 0/0
  9840 ;; Data sizes:     COMRAM   BANK0   BANK1   BANK2   BANK3   BANK4   BANK5   BANK6   BANK7   BANK8   BANK9  BANK10  BANK1
      +1  BANK12  BANK13  BANK14  BANK15
  9841 ;;      Params:         0       0       0       0       0       0       0       0       0       0       0       0       
      +0       0       0       0       0
  9842 ;;      Locals:         0       0       0       0       0       0       0       0       0       0       0       0       
      +0       0       0       0       0
  9843 ;;      Temps:          0       0       0       0       0       0       0       0       0       0       0       0       
      +0       0       0       0       0
  9844 ;;      Totals:         0       0       0       0       0       0       0       0       0       0       0       0       
      +0       0       0       0       0
  9845 ;;Total ram usage:        0 bytes
  9846 ;; Hardware stack levels used:    1
  9847 ;; Hardware stack levels required when called:    1
  9848 ;; This function calls:
  9849 ;;		_UART2_SetErrorHandler
  9850 ;;		_UART2_SetFramingErrorHandler
  9851 ;;		_UART2_SetOverrunErrorHandler
  9852 ;; This function is called by:
  9853 ;;		_SYSTEM_Initialize
  9854 ;; This function uses a non-reentrant model
  9855 ;;
  9856                           
  9857                           	psect	text32
  9858  00BF00                     __ptext32:
  9859                           	callstack 0
  9860  00BF00                     _UART2_Initialize:
  9861                           	callstack 28
  9862  00BF00                     
  9863                           ;uart2.c: 73: U2P1L = 0x00;
  9864  00BF00  0E00               	movlw	0
  9865  00BF02  013D               	movlb	61	; () banked
  9866  00BF04  6FD4               	movwf	212,b	;volatile
  9867                           
  9868                           ;uart2.c: 76: U2P2L = 0x00;
  9869  00BF06  0E00               	movlw	0
  9870  00BF08  6FD6               	movwf	214,b	;volatile
  9871                           
  9872                           ;uart2.c: 79: U2P3L = 0x00;
  9873  00BF0A  0E00               	movlw	0
  9874  00BF0C  6FD8               	movwf	216,b	;volatile
  9875                           
  9876                           ;uart2.c: 82: U2CON0 = 0xB0;
  9877  00BF0E  0EB0               	movlw	176
  9878  00BF10  6FDA               	movwf	218,b	;volatile
  9879                           
  9880                           ;uart2.c: 85: U2CON1 = 0x80;
  9881  00BF12  0E80               	movlw	128
  9882  00BF14  6FDB               	movwf	219,b	;volatile
  9883                           
  9884                           ;uart2.c: 88: U2CON2 = 0x00;
  9885  00BF16  0E00               	movlw	0
  9886  00BF18  6FDC               	movwf	220,b	;volatile
  9887                           
  9888                           ;uart2.c: 91: U2BRGL = 0x67;
  9889  00BF1A  0E67               	movlw	103
  9890  00BF1C  6FDD               	movwf	221,b	;volatile
  9891                           
  9892                           ;uart2.c: 94: U2BRGH = 0x00;
  9893  00BF1E  0E00               	movlw	0
  9894  00BF20  6FDE               	movwf	222,b	;volatile
  9895                           
  9896                           ;uart2.c: 97: U2FIFO = 0x00;
  9897  00BF22  0E00               	movlw	0
  9898  00BF24  6FDF               	movwf	223,b	;volatile
  9899                           
  9900                           ;uart2.c: 100: U2UIR = 0x00;
  9901  00BF26  0E00               	movlw	0
  9902  00BF28  6FE0               	movwf	224,b	;volatile
  9903                           
  9904                           ;uart2.c: 103: U2ERRIR = 0x00;
  9905  00BF2A  0E00               	movlw	0
  9906  00BF2C  6FE1               	movwf	225,b	;volatile
  9907                           
  9908                           ;uart2.c: 106: U2ERRIE = 0x00;
  9909  00BF2E  0E00               	movlw	0
  9910  00BF30  6FE2               	movwf	226,b	;volatile
  9911  00BF32                     
  9912                           ; BSR set to: 61
  9913                           ;uart2.c: 109: UART2_SetFramingErrorHandler(UART2_DefaultFramingErrorHandler);
  9914  00BF32  0E60               	movlw	low _UART2_DefaultFramingErrorHandler
  9915  00BF34  6E01               	movwf	UART2_SetFramingErrorHandler@interruptHandler^0,c
  9916  00BF36  0EBC               	movlw	high _UART2_DefaultFramingErrorHandler
  9917  00BF38  6E02               	movwf	(UART2_SetFramingErrorHandler@interruptHandler+1)^0,c
  9918  00BF3A  EC40  F05E         	call	_UART2_SetFramingErrorHandler	;wreg free
  9919  00BF3E                     
  9920                           ;uart2.c: 110: UART2_SetOverrunErrorHandler(UART2_DefaultOverrunErrorHandler);
  9921  00BF3E  0E62               	movlw	low _UART2_DefaultOverrunErrorHandler
  9922  00BF40  6E01               	movwf	UART2_SetOverrunErrorHandler@interruptHandler^0,c
  9923  00BF42  0EBC               	movlw	high _UART2_DefaultOverrunErrorHandler
  9924  00BF44  6E02               	movwf	(UART2_SetOverrunErrorHandler@interruptHandler+1)^0,c
  9925  00BF46  EC45  F05E         	call	_UART2_SetOverrunErrorHandler	;wreg free
  9926  00BF4A                     
  9927                           ;uart2.c: 111: UART2_SetErrorHandler(UART2_DefaultErrorHandler);
  9928  00BF4A  0E5E               	movlw	low _UART2_DefaultErrorHandler
  9929  00BF4C  6E01               	movwf	UART2_SetErrorHandler@interruptHandler^0,c
  9930  00BF4E  0EBC               	movlw	high _UART2_DefaultErrorHandler
  9931  00BF50  6E02               	movwf	(UART2_SetErrorHandler@interruptHandler+1)^0,c
  9932  00BF52  EC3B  F05E         	call	_UART2_SetErrorHandler	;wreg free
  9933  00BF56                     
  9934                           ;uart2.c: 113: uart2RxLastError.status = 0;
  9935  00BF56  0E00               	movlw	0
  9936  00BF58  6E4F               	movwf	_uart2RxLastError^0,c	;volatile
  9937  00BF5A  0012               	return		;funcret
  9938  00BF5C                     __end_of_UART2_Initialize:
  9939                           	callstack 0
  9940                           
  9941 ;; *************** function _UART2_SetOverrunErrorHandler *****************
  9942 ;; Defined at:
  9943 ;;		line 195 in file "mcc_generated_files/uart2.c"
  9944 ;; Parameters:    Size  Location     Type
  9945 ;;  interruptHan    2    0[COMRAM] PTR FTN()void 
  9946 ;;		 -> UART2_DefaultOverrunErrorHandler(1), 
  9947 ;; Auto vars:     Size  Location     Type
  9948 ;;		None
  9949 ;; Return value:  Size  Location     Type
  9950 ;;                  1    wreg      void 
  9951 ;; Registers used:
  9952 ;;		wreg, status,2, status,0
  9953 ;; Tracked objects:
  9954 ;;		On entry : 0/0
  9955 ;;		On exit  : 0/0
  9956 ;;		Unchanged: 0/0
  9957 ;; Data sizes:     COMRAM   BANK0   BANK1   BANK2   BANK3   BANK4   BANK5   BANK6   BANK7   BANK8   BANK9  BANK10  BANK1
      +1  BANK12  BANK13  BANK14  BANK15
  9958 ;;      Params:         2       0       0       0       0       0       0       0       0       0       0       0       
      +0       0       0       0       0
  9959 ;;      Locals:         0       0       0       0       0       0       0       0       0       0       0       0       
      +0       0       0       0       0
  9960 ;;      Temps:          0       0       0       0       0       0       0       0       0       0       0       0       
      +0       0       0       0       0
  9961 ;;      Totals:         2       0       0       0       0       0       0       0       0       0       0       0       
      +0       0       0       0       0
  9962 ;;Total ram usage:        2 bytes
  9963 ;; Hardware stack levels used:    1
  9964 ;; This function calls:
  9965 ;;		Nothing
  9966 ;; This function is called by:
  9967 ;;		_UART2_Initialize
  9968 ;; This function uses a non-reentrant model
  9969 ;;
  9970                           
  9971                           	psect	text33
  9972  00BC8A                     __ptext33:
  9973                           	callstack 0
  9974  00BC8A                     _UART2_SetOverrunErrorHandler:
  9975                           	callstack 28
  9976  00BC8A                     
  9977                           ;uart2.c: 196: UART2_OverrunErrorHandler = interruptHandler;
  9978  00BC8A  C001  F1D7         	movff	UART2_SetOverrunErrorHandler@interruptHandler,_UART2_OverrunErrorHandler
  9979  00BC8E  C002  F1D8         	movff	UART2_SetOverrunErrorHandler@interruptHandler+1,_UART2_OverrunErrorHandler+1
  9980  00BC92  0012               	return		;funcret
  9981  00BC94                     __end_of_UART2_SetOverrunErrorHandler:
  9982                           	callstack 0
  9983                           
  9984 ;; *************** function _UART2_SetFramingErrorHandler *****************
  9985 ;; Defined at:
  9986 ;;		line 191 in file "mcc_generated_files/uart2.c"
  9987 ;; Parameters:    Size  Location     Type
  9988 ;;  interruptHan    2    0[COMRAM] PTR FTN()void 
  9989 ;;		 -> UART2_DefaultFramingErrorHandler(1), 
  9990 ;; Auto vars:     Size  Location     Type
  9991 ;;		None
  9992 ;; Return value:  Size  Location     Type
  9993 ;;                  1    wreg      void 
  9994 ;; Registers used:
  9995 ;;		wreg, status,2, status,0
  9996 ;; Tracked objects:
  9997 ;;		On entry : 0/0
  9998 ;;		On exit  : 0/0
  9999 ;;		Unchanged: 0/0
 10000 ;; Data sizes:     COMRAM   BANK0   BANK1   BANK2   BANK3   BANK4   BANK5   BANK6   BANK7   BANK8   BANK9  BANK10  BANK1
      +1  BANK12  BANK13  BANK14  BANK15
 10001 ;;      Params:         2       0       0       0       0       0       0       0       0       0       0       0       
      +0       0       0       0       0
 10002 ;;      Locals:         0       0       0       0       0       0       0       0       0       0       0       0       
      +0       0       0       0       0
 10003 ;;      Temps:          0       0       0       0       0       0       0       0       0       0       0       0       
      +0       0       0       0       0
 10004 ;;      Totals:         2       0       0       0       0       0       0       0       0       0       0       0       
      +0       0       0       0       0
 10005 ;;Total ram usage:        2 bytes
 10006 ;; Hardware stack levels used:    1
 10007 ;; This function calls:
 10008 ;;		Nothing
 10009 ;; This function is called by:
 10010 ;;		_UART2_Initialize
 10011 ;; This function uses a non-reentrant model
 10012 ;;
 10013                           
 10014                           	psect	text34
 10015  00BC80                     __ptext34:
 10016                           	callstack 0
 10017  00BC80                     _UART2_SetFramingErrorHandler:
 10018                           	callstack 28
 10019  00BC80                     
 10020                           ;uart2.c: 192: UART2_FramingErrorHandler = interruptHandler;
 10021  00BC80  C001  F1D9         	movff	UART2_SetFramingErrorHandler@interruptHandler,_UART2_FramingErrorHandler
 10022  00BC84  C002  F1DA         	movff	UART2_SetFramingErrorHandler@interruptHandler+1,_UART2_FramingErrorHandler+1
 10023  00BC88  0012               	return		;funcret
 10024  00BC8A                     __end_of_UART2_SetFramingErrorHandler:
 10025                           	callstack 0
 10026                           
 10027 ;; *************** function _UART2_SetErrorHandler *****************
 10028 ;; Defined at:
 10029 ;;		line 199 in file "mcc_generated_files/uart2.c"
 10030 ;; Parameters:    Size  Location     Type
 10031 ;;  interruptHan    2    0[COMRAM] PTR FTN()void 
 10032 ;;		 -> UART2_DefaultErrorHandler(1), 
 10033 ;; Auto vars:     Size  Location     Type
 10034 ;;		None
 10035 ;; Return value:  Size  Location     Type
 10036 ;;                  1    wreg      void 
 10037 ;; Registers used:
 10038 ;;		wreg, status,2, status,0
 10039 ;; Tracked objects:
 10040 ;;		On entry : 0/0
 10041 ;;		On exit  : 0/0
 10042 ;;		Unchanged: 0/0
 10043 ;; Data sizes:     COMRAM   BANK0   BANK1   BANK2   BANK3   BANK4   BANK5   BANK6   BANK7   BANK8   BANK9  BANK10  BANK1
      +1  BANK12  BANK13  BANK14  BANK15
 10044 ;;      Params:         2       0       0       0       0       0       0       0       0       0       0       0       
      +0       0       0       0       0
 10045 ;;      Locals:         0       0       0       0       0       0       0       0       0       0       0       0       
      +0       0       0       0       0
 10046 ;;      Temps:          0       0       0       0       0       0       0       0       0       0       0       0       
      +0       0       0       0       0
 10047 ;;      Totals:         2       0       0       0       0       0       0       0       0       0       0       0       
      +0       0       0       0       0
 10048 ;;Total ram usage:        2 bytes
 10049 ;; Hardware stack levels used:    1
 10050 ;; This function calls:
 10051 ;;		Nothing
 10052 ;; This function is called by:
 10053 ;;		_UART2_Initialize
 10054 ;; This function uses a non-reentrant model
 10055 ;;
 10056                           
 10057                           	psect	text35
 10058  00BC76                     __ptext35:
 10059                           	callstack 0
 10060  00BC76                     _UART2_SetErrorHandler:
 10061                           	callstack 28
 10062  00BC76                     
 10063                           ;uart2.c: 200: UART2_ErrorHandler = interruptHandler;
 10064  00BC76  C001  F1D5         	movff	UART2_SetErrorHandler@interruptHandler,_UART2_ErrorHandler
 10065  00BC7A  C002  F1D6         	movff	UART2_SetErrorHandler@interruptHandler+1,_UART2_ErrorHandler+1
 10066  00BC7E  0012               	return		;funcret
 10067  00BC80                     __end_of_UART2_SetErrorHandler:
 10068                           	callstack 0
 10069                           
 10070 ;; *************** function _TMR2_Initialize *****************
 10071 ;; Defined at:
 10072 ;;		line 62 in file "mcc_generated_files/tmr2.c"
 10073 ;; Parameters:    Size  Location     Type
 10074 ;;		None
 10075 ;; Auto vars:     Size  Location     Type
 10076 ;;		None
 10077 ;; Return value:  Size  Location     Type
 10078 ;;                  1    wreg      void 
 10079 ;; Registers used:
 10080 ;;		wreg, status,2
 10081 ;; Tracked objects:
 10082 ;;		On entry : 0/0
 10083 ;;		On exit  : 0/0
 10084 ;;		Unchanged: 0/0
 10085 ;; Data sizes:     COMRAM   BANK0   BANK1   BANK2   BANK3   BANK4   BANK5   BANK6   BANK7   BANK8   BANK9  BANK10  BANK1
      +1  BANK12  BANK13  BANK14  BANK15
 10086 ;;      Params:         0       0       0       0       0       0       0       0       0       0       0       0       
      +0       0       0       0       0
 10087 ;;      Locals:         0       0       0       0       0       0       0       0       0       0       0       0       
      +0       0       0       0       0
 10088 ;;      Temps:          0       0       0       0       0       0       0       0       0       0       0       0       
      +0       0       0       0       0
 10089 ;;      Totals:         0       0       0       0       0       0       0       0       0       0       0       0       
      +0       0       0       0       0
 10090 ;;Total ram usage:        0 bytes
 10091 ;; Hardware stack levels used:    1
 10092 ;; This function calls:
 10093 ;;		Nothing
 10094 ;; This function is called by:
 10095 ;;		_SYSTEM_Initialize
 10096 ;; This function uses a non-reentrant model
 10097 ;;
 10098                           
 10099                           	psect	text36
 10100  00BD0C                     __ptext36:
 10101                           	callstack 0
 10102  00BD0C                     _TMR2_Initialize:
 10103                           	callstack 29
 10104  00BD0C                     
 10105                           ;tmr2.c: 67: T2CLKCON = 0x01;
 10106  00BD0C  0E01               	movlw	1
 10107  00BD0E  6EAE               	movwf	174,c	;volatile
 10108                           
 10109                           ;tmr2.c: 70: T2HLT = 0x00;
 10110  00BD10  0E00               	movlw	0
 10111  00BD12  6EAD               	movwf	173,c	;volatile
 10112                           
 10113                           ;tmr2.c: 73: T2RST = 0x00;
 10114  00BD14  0E00               	movlw	0
 10115  00BD16  6EAF               	movwf	175,c	;volatile
 10116                           
 10117                           ;tmr2.c: 76: T2PR = 0xF9;
 10118  00BD18  0EF9               	movlw	249
 10119  00BD1A  6EAB               	movwf	171,c	;volatile
 10120                           
 10121                           ;tmr2.c: 79: T2TMR = 0x00;
 10122  00BD1C  0E00               	movlw	0
 10123  00BD1E  6EAA               	movwf	170,c	;volatile
 10124  00BD20                     
 10125                           ;tmr2.c: 82: PIR4bits.TMR2IF = 0;
 10126  00BD20  0139               	movlb	57	; () banked
 10127  00BD22  95A4               	bcf	164,2,b	;volatile
 10128                           
 10129                           ;tmr2.c: 85: T2CON = 0xF0;
 10130  00BD24  0EF0               	movlw	240
 10131  00BD26  6EAC               	movwf	172,c	;volatile
 10132  00BD28                     
 10133                           ; BSR set to: 57
 10134  00BD28  0012               	return		;funcret
 10135  00BD2A                     __end_of_TMR2_Initialize:
 10136                           	callstack 0
 10137                           
 10138 ;; *************** function _SMT1_Initialize *****************
 10139 ;; Defined at:
 10140 ;;		line 59 in file "mcc_generated_files/smt1.c"
 10141 ;; Parameters:    Size  Location     Type
 10142 ;;		None
 10143 ;; Auto vars:     Size  Location     Type
 10144 ;;		None
 10145 ;; Return value:  Size  Location     Type
 10146 ;;                  1    wreg      void 
 10147 ;; Registers used:
 10148 ;;		wreg, status,2
 10149 ;; Tracked objects:
 10150 ;;		On entry : 0/0
 10151 ;;		On exit  : 0/0
 10152 ;;		Unchanged: 0/0
 10153 ;; Data sizes:     COMRAM   BANK0   BANK1   BANK2   BANK3   BANK4   BANK5   BANK6   BANK7   BANK8   BANK9  BANK10  BANK1
      +1  BANK12  BANK13  BANK14  BANK15
 10154 ;;      Params:         0       0       0       0       0       0       0       0       0       0       0       0       
      +0       0       0       0       0
 10155 ;;      Locals:         0       0       0       0       0       0       0       0       0       0       0       0       
      +0       0       0       0       0
 10156 ;;      Temps:          0       0       0       0       0       0       0       0       0       0       0       0       
      +0       0       0       0       0
 10157 ;;      Totals:         0       0       0       0       0       0       0       0       0       0       0       0       
      +0       0       0       0       0
 10158 ;;Total ram usage:        0 bytes
 10159 ;; Hardware stack levels used:    1
 10160 ;; This function calls:
 10161 ;;		Nothing
 10162 ;; This function is called by:
 10163 ;;		_SYSTEM_Initialize
 10164 ;; This function uses a non-reentrant model
 10165 ;;
 10166                           
 10167                           	psect	text37
 10168  00BDB8                     __ptext37:
 10169                           	callstack 0
 10170  00BDB8                     _SMT1_Initialize:
 10171                           	callstack 29
 10172  00BDB8                     
 10173                           ;smt1.c: 62: SMT1CON0 = 0x80;
 10174  00BDB8  0E80               	movlw	128
 10175  00BDBA  013F               	movlb	63	; () banked
 10176  00BDBC  6F1E               	movwf	30,b	;volatile
 10177                           
 10178                           ;smt1.c: 65: SMT1CON1 = 0x07;
 10179  00BDBE  0E07               	movlw	7
 10180  00BDC0  6F1F               	movwf	31,b	;volatile
 10181                           
 10182                           ;smt1.c: 68: SMT1STAT = 0x00;
 10183  00BDC2  0E00               	movlw	0
 10184  00BDC4  6F20               	movwf	32,b	;volatile
 10185                           
 10186                           ;smt1.c: 71: SMT1CLK = 0x00;
 10187  00BDC6  0E00               	movlw	0
 10188  00BDC8  6F21               	movwf	33,b	;volatile
 10189                           
 10190                           ;smt1.c: 74: SMT1WIN = 0x00;
 10191  00BDCA  0E00               	movlw	0
 10192  00BDCC  6F23               	movwf	35,b	;volatile
 10193                           
 10194                           ;smt1.c: 77: SMT1SIG = 0x00;
 10195  00BDCE  0E00               	movlw	0
 10196  00BDD0  6F22               	movwf	34,b	;volatile
 10197                           
 10198                           ;smt1.c: 80: SMT1PRU = 0xF4;
 10199  00BDD2  0EF4               	movlw	244
 10200  00BDD4  6F1D               	movwf	29,b	;volatile
 10201                           
 10202                           ;smt1.c: 83: SMT1PRH = 0x24;
 10203  00BDD6  0E24               	movlw	36
 10204  00BDD8  6F1C               	movwf	28,b	;volatile
 10205                           
 10206                           ;smt1.c: 86: SMT1PRL = 0x00;
 10207  00BDDA  0E00               	movlw	0
 10208  00BDDC  6F1B               	movwf	27,b	;volatile
 10209  00BDDE                     
 10210                           ; BSR set to: 63
 10211                           ;smt1.c: 89: SMT1CON1bits.SMT1GO = 1;
 10212  00BDDE  8F1F               	bsf	31,7,b	;volatile
 10213  00BDE0                     
 10214                           ; BSR set to: 63
 10215  00BDE0  0012               	return		;funcret
 10216  00BDE2                     __end_of_SMT1_Initialize:
 10217                           	callstack 0
 10218                           
 10219 ;; *************** function _PWM5_Initialize *****************
 10220 ;; Defined at:
 10221 ;;		line 58 in file "mcc_generated_files/pwm5.c"
 10222 ;; Parameters:    Size  Location     Type
 10223 ;;		None
 10224 ;; Auto vars:     Size  Location     Type
 10225 ;;		None
 10226 ;; Return value:  Size  Location     Type
 10227 ;;                  1    wreg      void 
 10228 ;; Registers used:
 10229 ;;		wreg, status,2
 10230 ;; Tracked objects:
 10231 ;;		On entry : 0/0
 10232 ;;		On exit  : 0/0
 10233 ;;		Unchanged: 0/0
 10234 ;; Data sizes:     COMRAM   BANK0   BANK1   BANK2   BANK3   BANK4   BANK5   BANK6   BANK7   BANK8   BANK9  BANK10  BANK1
      +1  BANK12  BANK13  BANK14  BANK15
 10235 ;;      Params:         0       0       0       0       0       0       0       0       0       0       0       0       
      +0       0       0       0       0
 10236 ;;      Locals:         0       0       0       0       0       0       0       0       0       0       0       0       
      +0       0       0       0       0
 10237 ;;      Temps:          0       0       0       0       0       0       0       0       0       0       0       0       
      +0       0       0       0       0
 10238 ;;      Totals:         0       0       0       0       0       0       0       0       0       0       0       0       
      +0       0       0       0       0
 10239 ;;Total ram usage:        0 bytes
 10240 ;; Hardware stack levels used:    1
 10241 ;; This function calls:
 10242 ;;		Nothing
 10243 ;; This function is called by:
 10244 ;;		_SYSTEM_Initialize
 10245 ;; This function uses a non-reentrant model
 10246 ;;
 10247                           
 10248                           	psect	text38
 10249  00BCDA                     __ptext38:
 10250                           	callstack 0
 10251  00BCDA                     _PWM5_Initialize:
 10252                           	callstack 29
 10253  00BCDA                     
 10254                           ;pwm5.c: 62: PWM5CON = 0x80;
 10255  00BCDA  0E80               	movlw	128
 10256  00BCDC  6E6E               	movwf	110,c	;volatile
 10257                           
 10258                           ;pwm5.c: 65: PWM5DCH = 0x3E;
 10259  00BCDE  0E3E               	movlw	62
 10260  00BCE0  6E6D               	movwf	109,c	;volatile
 10261                           
 10262                           ;pwm5.c: 68: PWM5DCL = 0x40;
 10263  00BCE2  0E40               	movlw	64
 10264  00BCE4  6E6C               	movwf	108,c	;volatile
 10265                           
 10266                           ;pwm5.c: 71: CCPTMRS1bits.P5TSEL = 1;
 10267  00BCE6  013F               	movlb	63	; () banked
 10268  00BCE8  515F               	movf	95,w,b	;volatile
 10269  00BCEA  0BFC               	andlw	-4
 10270  00BCEC  0901               	iorlw	1
 10271  00BCEE  6F5F               	movwf	95,b	;volatile
 10272  00BCF0                     
 10273                           ; BSR set to: 63
 10274  00BCF0  0012               	return		;funcret
 10275  00BCF2                     __end_of_PWM5_Initialize:
 10276                           	callstack 0
 10277                           
 10278 ;; *************** function _PMD_Initialize *****************
 10279 ;; Defined at:
 10280 ;;		line 79 in file "mcc_generated_files/mcc.c"
 10281 ;; Parameters:    Size  Location     Type
 10282 ;;		None
 10283 ;; Auto vars:     Size  Location     Type
 10284 ;;		None
 10285 ;; Return value:  Size  Location     Type
 10286 ;;                  1    wreg      void 
 10287 ;; Registers used:
 10288 ;;		wreg, status,2
 10289 ;; Tracked objects:
 10290 ;;		On entry : 0/0
 10291 ;;		On exit  : 0/0
 10292 ;;		Unchanged: 0/0
 10293 ;; Data sizes:     COMRAM   BANK0   BANK1   BANK2   BANK3   BANK4   BANK5   BANK6   BANK7   BANK8   BANK9  BANK10  BANK1
      +1  BANK12  BANK13  BANK14  BANK15
 10294 ;;      Params:         0       0       0       0       0       0       0       0       0       0       0       0       
      +0       0       0       0       0
 10295 ;;      Locals:         0       0       0       0       0       0       0       0       0       0       0       0       
      +0       0       0       0       0
 10296 ;;      Temps:          0       0       0       0       0       0       0       0       0       0       0       0       
      +0       0       0       0       0
 10297 ;;      Totals:         0       0       0       0       0       0       0       0       0       0       0       0       
      +0       0       0       0       0
 10298 ;;Total ram usage:        0 bytes
 10299 ;; Hardware stack levels used:    1
 10300 ;; This function calls:
 10301 ;;		Nothing
 10302 ;; This function is called by:
 10303 ;;		_SYSTEM_Initialize
 10304 ;; This function uses a non-reentrant model
 10305 ;;
 10306                           
 10307                           	psect	text39
 10308  00BD48                     __ptext39:
 10309                           	callstack 0
 10310  00BD48                     _PMD_Initialize:
 10311                           	callstack 29
 10312  00BD48                     
 10313                           ;mcc.c: 82: PMD0 = 0x00;
 10314  00BD48  0E00               	movlw	0
 10315  00BD4A  0139               	movlb	57	; () banked
 10316  00BD4C  6FC0               	movwf	192,b	;volatile
 10317                           
 10318                           ;mcc.c: 84: PMD1 = 0x00;
 10319  00BD4E  0E00               	movlw	0
 10320  00BD50  6FC1               	movwf	193,b	;volatile
 10321                           
 10322                           ;mcc.c: 86: PMD2 = 0x00;
 10323  00BD52  0E00               	movlw	0
 10324  00BD54  6FC2               	movwf	194,b	;volatile
 10325                           
 10326                           ;mcc.c: 88: PMD3 = 0x00;
 10327  00BD56  0E00               	movlw	0
 10328  00BD58  6FC3               	movwf	195,b	;volatile
 10329                           
 10330                           ;mcc.c: 90: PMD4 = 0x00;
 10331  00BD5A  0E00               	movlw	0
 10332  00BD5C  6FC4               	movwf	196,b	;volatile
 10333                           
 10334                           ;mcc.c: 92: PMD5 = 0x00;
 10335  00BD5E  0E00               	movlw	0
 10336  00BD60  6FC5               	movwf	197,b	;volatile
 10337                           
 10338                           ;mcc.c: 94: PMD6 = 0x00;
 10339  00BD62  0E00               	movlw	0
 10340  00BD64  6FC6               	movwf	198,b	;volatile
 10341                           
 10342                           ;mcc.c: 96: PMD7 = 0x00;
 10343  00BD66  0E00               	movlw	0
 10344  00BD68  6FC7               	movwf	199,b	;volatile
 10345  00BD6A                     
 10346                           ; BSR set to: 57
 10347  00BD6A  0012               	return		;funcret
 10348  00BD6C                     __end_of_PMD_Initialize:
 10349                           	callstack 0
 10350                           
 10351 ;; *************** function _PIN_MANAGER_Initialize *****************
 10352 ;; Defined at:
 10353 ;;		line 55 in file "mcc_generated_files/pin_manager.c"
 10354 ;; Parameters:    Size  Location     Type
 10355 ;;		None
 10356 ;; Auto vars:     Size  Location     Type
 10357 ;;		None
 10358 ;; Return value:  Size  Location     Type
 10359 ;;                  1    wreg      void 
 10360 ;; Registers used:
 10361 ;;		wreg, status,2
 10362 ;; Tracked objects:
 10363 ;;		On entry : 0/0
 10364 ;;		On exit  : 0/0
 10365 ;;		Unchanged: 0/0
 10366 ;; Data sizes:     COMRAM   BANK0   BANK1   BANK2   BANK3   BANK4   BANK5   BANK6   BANK7   BANK8   BANK9  BANK10  BANK1
      +1  BANK12  BANK13  BANK14  BANK15
 10367 ;;      Params:         0       0       0       0       0       0       0       0       0       0       0       0       
      +0       0       0       0       0
 10368 ;;      Locals:         0       0       0       0       0       0       0       0       0       0       0       0       
      +0       0       0       0       0
 10369 ;;      Temps:          0       0       0       0       0       0       0       0       0       0       0       0       
      +0       0       0       0       0
 10370 ;;      Totals:         0       0       0       0       0       0       0       0       0       0       0       0       
      +0       0       0       0       0
 10371 ;;Total ram usage:        0 bytes
 10372 ;; Hardware stack levels used:    1
 10373 ;; This function calls:
 10374 ;;		Nothing
 10375 ;; This function is called by:
 10376 ;;		_SYSTEM_Initialize
 10377 ;; This function uses a non-reentrant model
 10378 ;;
 10379                           
 10380                           	psect	text40
 10381  00C2EA                     __ptext40:
 10382                           	callstack 0
 10383  00C2EA                     _PIN_MANAGER_Initialize:
 10384                           	callstack 29
 10385  00C2EA                     
 10386                           ;pin_manager.c: 60: LATE = 0x00;
 10387  00C2EA  0E00               	movlw	0
 10388  00C2EC  6EBE               	movwf	190,c	;volatile
 10389                           
 10390                           ;pin_manager.c: 61: LATD = 0x00;
 10391  00C2EE  0E00               	movlw	0
 10392  00C2F0  6EBD               	movwf	189,c	;volatile
 10393                           
 10394                           ;pin_manager.c: 62: LATA = 0x00;
 10395  00C2F2  0E00               	movlw	0
 10396  00C2F4  6EBA               	movwf	186,c	;volatile
 10397                           
 10398                           ;pin_manager.c: 63: LATB = 0x00;
 10399  00C2F6  0E00               	movlw	0
 10400  00C2F8  6EBB               	movwf	187,c	;volatile
 10401                           
 10402                           ;pin_manager.c: 64: LATC = 0x00;
 10403  00C2FA  0E00               	movlw	0
 10404  00C2FC  6EBC               	movwf	188,c	;volatile
 10405                           
 10406                           ;pin_manager.c: 69: TRISE = 0x07;
 10407  00C2FE  0E07               	movlw	7
 10408  00C300  6EC6               	movwf	198,c	;volatile
 10409                           
 10410                           ;pin_manager.c: 70: TRISA = 0xFD;
 10411  00C302  0EFD               	movlw	253
 10412  00C304  6EC2               	movwf	194,c	;volatile
 10413                           
 10414                           ;pin_manager.c: 71: TRISB = 0xBF;
 10415  00C306  0EBF               	movlw	191
 10416  00C308  6EC3               	movwf	195,c	;volatile
 10417  00C30A                     
 10418                           ;pin_manager.c: 72: TRISC = 0xFF;
 10419  00C30A  68C4               	setf	196,c	;volatile
 10420                           
 10421                           ;pin_manager.c: 73: TRISD = 0xF3;
 10422  00C30C  0EF3               	movlw	243
 10423  00C30E  6EC5               	movwf	197,c	;volatile
 10424                           
 10425                           ;pin_manager.c: 78: ANSELD = 0xF3;
 10426  00C310  0EF3               	movlw	243
 10427  00C312  013A               	movlb	58	; () banked
 10428  00C314  6F70               	movwf	112,b	;volatile
 10429                           
 10430                           ;pin_manager.c: 79: ANSELC = 0xFC;
 10431  00C316  0EFC               	movlw	252
 10432  00C318  6F60               	movwf	96,b	;volatile
 10433                           
 10434                           ;pin_manager.c: 80: ANSELB = 0x7F;
 10435  00C31A  0E7F               	movlw	127
 10436  00C31C  6F50               	movwf	80,b	;volatile
 10437                           
 10438                           ;pin_manager.c: 81: ANSELE = 0x07;
 10439  00C31E  0E07               	movlw	7
 10440  00C320  6F80               	movwf	128,b	;volatile
 10441  00C322                     
 10442                           ; BSR set to: 58
 10443                           ;pin_manager.c: 82: ANSELA = 0xFF;
 10444  00C322  6940               	setf	64,b	;volatile
 10445                           
 10446                           ;pin_manager.c: 87: WPUD = 0x00;
 10447  00C324  0E00               	movlw	0
 10448  00C326  6F71               	movwf	113,b	;volatile
 10449                           
 10450                           ;pin_manager.c: 88: WPUE = 0x00;
 10451  00C328  0E00               	movlw	0
 10452  00C32A  6F81               	movwf	129,b	;volatile
 10453                           
 10454                           ;pin_manager.c: 89: WPUB = 0x00;
 10455  00C32C  0E00               	movlw	0
 10456  00C32E  6F51               	movwf	81,b	;volatile
 10457                           
 10458                           ;pin_manager.c: 90: WPUA = 0x00;
 10459  00C330  0E00               	movlw	0
 10460  00C332  6F41               	movwf	65,b	;volatile
 10461                           
 10462                           ;pin_manager.c: 91: WPUC = 0x00;
 10463  00C334  0E00               	movlw	0
 10464  00C336  6F61               	movwf	97,b	;volatile
 10465                           
 10466                           ;pin_manager.c: 96: RB1I2C = 0x00;
 10467  00C338  0E00               	movlw	0
 10468  00C33A  6F5A               	movwf	90,b	;volatile
 10469                           
 10470                           ;pin_manager.c: 97: RB2I2C = 0x00;
 10471  00C33C  0E00               	movlw	0
 10472  00C33E  6F5B               	movwf	91,b	;volatile
 10473                           
 10474                           ;pin_manager.c: 98: RC3I2C = 0x00;
 10475  00C340  0E00               	movlw	0
 10476  00C342  6F6A               	movwf	106,b	;volatile
 10477                           
 10478                           ;pin_manager.c: 99: RC4I2C = 0x00;
 10479  00C344  0E00               	movlw	0
 10480  00C346  6F6B               	movwf	107,b	;volatile
 10481                           
 10482                           ;pin_manager.c: 100: RD0I2C = 0x00;
 10483  00C348  0E00               	movlw	0
 10484  00C34A  6F7A               	movwf	122,b	;volatile
 10485                           
 10486                           ;pin_manager.c: 101: RD1I2C = 0x00;
 10487  00C34C  0E00               	movlw	0
 10488  00C34E  6F7B               	movwf	123,b	;volatile
 10489                           
 10490                           ;pin_manager.c: 106: ODCONE = 0x00;
 10491  00C350  0E00               	movlw	0
 10492  00C352  6F82               	movwf	130,b	;volatile
 10493                           
 10494                           ;pin_manager.c: 107: ODCONA = 0x00;
 10495  00C354  0E00               	movlw	0
 10496  00C356  6F42               	movwf	66,b	;volatile
 10497                           
 10498                           ;pin_manager.c: 108: ODCONB = 0x00;
 10499  00C358  0E00               	movlw	0
 10500  00C35A  6F52               	movwf	82,b	;volatile
 10501                           
 10502                           ;pin_manager.c: 109: ODCONC = 0x00;
 10503  00C35C  0E00               	movlw	0
 10504  00C35E  6F62               	movwf	98,b	;volatile
 10505                           
 10506                           ;pin_manager.c: 110: ODCOND = 0x00;
 10507  00C360  0E00               	movlw	0
 10508  00C362  6F72               	movwf	114,b	;volatile
 10509  00C364                     
 10510                           ; BSR set to: 58
 10511                           ;pin_manager.c: 115: SLRCONA = 0xFF;
 10512  00C364  6943               	setf	67,b	;volatile
 10513  00C366                     
 10514                           ; BSR set to: 58
 10515                           ;pin_manager.c: 116: SLRCONB = 0xFF;
 10516  00C366  6953               	setf	83,b	;volatile
 10517  00C368                     
 10518                           ; BSR set to: 58
 10519                           ;pin_manager.c: 117: SLRCONC = 0xFF;
 10520  00C368  6963               	setf	99,b	;volatile
 10521  00C36A                     
 10522                           ; BSR set to: 58
 10523                           ;pin_manager.c: 118: SLRCOND = 0xFF;
 10524  00C36A  6973               	setf	115,b	;volatile
 10525                           
 10526                           ;pin_manager.c: 119: SLRCONE = 0x07;
 10527  00C36C  0E07               	movlw	7
 10528  00C36E  6F83               	movwf	131,b	;volatile
 10529  00C370                     
 10530                           ; BSR set to: 58
 10531                           ;pin_manager.c: 124: INLVLA = 0xFF;
 10532  00C370  6944               	setf	68,b	;volatile
 10533  00C372                     
 10534                           ; BSR set to: 58
 10535                           ;pin_manager.c: 125: INLVLB = 0xFF;
 10536  00C372  6954               	setf	84,b	;volatile
 10537  00C374                     
 10538                           ; BSR set to: 58
 10539                           ;pin_manager.c: 126: INLVLC = 0xFF;
 10540  00C374  6964               	setf	100,b	;volatile
 10541  00C376                     
 10542                           ; BSR set to: 58
 10543                           ;pin_manager.c: 127: INLVLD = 0xFF;
 10544  00C376  6974               	setf	116,b	;volatile
 10545                           
 10546                           ;pin_manager.c: 128: INLVLE = 0x0F;
 10547  00C378  0E0F               	movlw	15
 10548  00C37A  6F84               	movwf	132,b	;volatile
 10549                           
 10550                           ;pin_manager.c: 137: U2RXPPS = 0x0F;
 10551  00C37C  0E0F               	movlw	15
 10552  00C37E  6FE8               	movwf	232,b	;volatile
 10553                           
 10554                           ;pin_manager.c: 138: RB6PPS = 0x16;
 10555  00C380  0E16               	movlw	22
 10556  00C382  6F0E               	movwf	14,b	;volatile
 10557                           
 10558                           ;pin_manager.c: 139: SMT1WINPPS = 0x10;
 10559  00C384  0E10               	movlw	16
 10560  00C386  6FD1               	movwf	209,b	;volatile
 10561                           
 10562                           ;pin_manager.c: 140: SMT1SIGPPS = 0x11;
 10563  00C388  0E11               	movlw	17
 10564  00C38A  6FD2               	movwf	210,b	;volatile
 10565                           
 10566                           ;pin_manager.c: 141: RA1PPS = 0x0D;
 10567  00C38C  0E0D               	movlw	13
 10568  00C38E  6F01               	movwf	1,b	;volatile
 10569  00C390                     
 10570                           ; BSR set to: 58
 10571  00C390  0012               	return		;funcret
 10572  00C392                     __end_of_PIN_MANAGER_Initialize:
 10573                           	callstack 0
 10574                           
 10575 ;; *************** function _OSCILLATOR_Initialize *****************
 10576 ;; Defined at:
 10577 ;;		line 61 in file "mcc_generated_files/mcc.c"
 10578 ;; Parameters:    Size  Location     Type
 10579 ;;		None
 10580 ;; Auto vars:     Size  Location     Type
 10581 ;;		None
 10582 ;; Return value:  Size  Location     Type
 10583 ;;                  1    wreg      void 
 10584 ;; Registers used:
 10585 ;;		wreg, status,2
 10586 ;; Tracked objects:
 10587 ;;		On entry : 0/0
 10588 ;;		On exit  : 0/0
 10589 ;;		Unchanged: 0/0
 10590 ;; Data sizes:     COMRAM   BANK0   BANK1   BANK2   BANK3   BANK4   BANK5   BANK6   BANK7   BANK8   BANK9  BANK10  BANK1
      +1  BANK12  BANK13  BANK14  BANK15
 10591 ;;      Params:         0       0       0       0       0       0       0       0       0       0       0       0       
      +0       0       0       0       0
 10592 ;;      Locals:         0       0       0       0       0       0       0       0       0       0       0       0       
      +0       0       0       0       0
 10593 ;;      Temps:          0       0       0       0       0       0       0       0       0       0       0       0       
      +0       0       0       0       0
 10594 ;;      Totals:         0       0       0       0       0       0       0       0       0       0       0       0       
      +0       0       0       0       0
 10595 ;;Total ram usage:        0 bytes
 10596 ;; Hardware stack levels used:    1
 10597 ;; This function calls:
 10598 ;;		Nothing
 10599 ;; This function is called by:
 10600 ;;		_SYSTEM_Initialize
 10601 ;; This function uses a non-reentrant model
 10602 ;;
 10603                           
 10604                           	psect	text41
 10605  00BD6C                     __ptext41:
 10606                           	callstack 0
 10607  00BD6C                     _OSCILLATOR_Initialize:
 10608                           	callstack 29
 10609  00BD6C                     
 10610                           ;mcc.c: 64: OSCCON1 = 0x23;
 10611  00BD6C  0E23               	movlw	35
 10612  00BD6E  0139               	movlb	57	; () banked
 10613  00BD70  6FD9               	movwf	217,b	;volatile
 10614                           
 10615                           ;mcc.c: 66: OSCCON3 = 0x00;
 10616  00BD72  0E00               	movlw	0
 10617  00BD74  6FDB               	movwf	219,b	;volatile
 10618                           
 10619                           ;mcc.c: 68: OSCEN = 0x00;
 10620  00BD76  0E00               	movlw	0
 10621  00BD78  6FDD               	movwf	221,b	;volatile
 10622                           
 10623                           ;mcc.c: 70: OSCFRQ = 0x06;
 10624  00BD7A  0E06               	movlw	6
 10625  00BD7C  6FDF               	movwf	223,b	;volatile
 10626                           
 10627                           ;mcc.c: 72: OSCTUNE = 0x00;
 10628  00BD7E  0E00               	movlw	0
 10629  00BD80  6FDE               	movwf	222,b	;volatile
 10630  00BD82                     l48:
 10631                           
 10632                           ; BSR set to: 57
 10633  00BD82  A1DC               	btfss	220,0,b	;volatile
 10634  00BD84  EFC6  F05E         	goto	u4281
 10635  00BD88  EFC8  F05E         	goto	u4280
 10636  00BD8C                     u4281:
 10637  00BD8C  EFC1  F05E         	goto	l48
 10638  00BD90                     u4280:
 10639  00BD90                     
 10640                           ; BSR set to: 57
 10641  00BD90  0012               	return		;funcret
 10642  00BD92                     __end_of_OSCILLATOR_Initialize:
 10643                           	callstack 0
 10644                           
 10645 ;; *************** function _SMT1_RepeatDataAcquisition *****************
 10646 ;; Defined at:
 10647 ;;		line 128 in file "mcc_generated_files/smt1.c"
 10648 ;; Parameters:    Size  Location     Type
 10649 ;;		None
 10650 ;; Auto vars:     Size  Location     Type
 10651 ;;		None
 10652 ;; Return value:  Size  Location     Type
 10653 ;;                  1    wreg      void 
 10654 ;; Registers used:
 10655 ;;		None
 10656 ;; Tracked objects:
 10657 ;;		On entry : 0/0
 10658 ;;		On exit  : 0/0
 10659 ;;		Unchanged: 0/0
 10660 ;; Data sizes:     COMRAM   BANK0   BANK1   BANK2   BANK3   BANK4   BANK5   BANK6   BANK7   BANK8   BANK9  BANK10  BANK1
      +1  BANK12  BANK13  BANK14  BANK15
 10661 ;;      Params:         0       0       0       0       0       0       0       0       0       0       0       0       
      +0       0       0       0       0
 10662 ;;      Locals:         0       0       0       0       0       0       0       0       0       0       0       0       
      +0       0       0       0       0
 10663 ;;      Temps:          0       0       0       0       0       0       0       0       0       0       0       0       
      +0       0       0       0       0
 10664 ;;      Totals:         0       0       0       0       0       0       0       0       0       0       0       0       
      +0       0       0       0       0
 10665 ;;Total ram usage:        0 bytes
 10666 ;; Hardware stack levels used:    1
 10667 ;; This function calls:
 10668 ;;		Nothing
 10669 ;; This function is called by:
 10670 ;;		_main
 10671 ;; This function uses a non-reentrant model
 10672 ;;
 10673                           
 10674                           	psect	text42
 10675  00BC70                     __ptext42:
 10676                           	callstack 0
 10677  00BC70                     _SMT1_RepeatDataAcquisition:
 10678                           	callstack 30
 10679  00BC70                     
 10680                           ;smt1.c: 130: SMT1CON1bits.SMT1REPEAT = 1;
 10681  00BC70  013F               	movlb	63	; () banked
 10682  00BC72  8D1F               	bsf	31,6,b	;volatile
 10683  00BC74                     
 10684                           ; BSR set to: 63
 10685  00BC74  0012               	return		;funcret
 10686  00BC76                     __end_of_SMT1_RepeatDataAcquisition:
 10687                           	callstack 0
 10688                           
 10689 ;; *************** function _SMT1_ManualTimerReset *****************
 10690 ;; Defined at:
 10691 ;;		line 143 in file "mcc_generated_files/smt1.c"
 10692 ;; Parameters:    Size  Location     Type
 10693 ;;		None
 10694 ;; Auto vars:     Size  Location     Type
 10695 ;;		None
 10696 ;; Return value:  Size  Location     Type
 10697 ;;                  1    wreg      void 
 10698 ;; Registers used:
 10699 ;;		None
 10700 ;; Tracked objects:
 10701 ;;		On entry : 0/0
 10702 ;;		On exit  : 0/0
 10703 ;;		Unchanged: 0/0
 10704 ;; Data sizes:     COMRAM   BANK0   BANK1   BANK2   BANK3   BANK4   BANK5   BANK6   BANK7   BANK8   BANK9  BANK10  BANK1
      +1  BANK12  BANK13  BANK14  BANK15
 10705 ;;      Params:         0       0       0       0       0       0       0       0       0       0       0       0       
      +0       0       0       0       0
 10706 ;;      Locals:         0       0       0       0       0       0       0       0       0       0       0       0       
      +0       0       0       0       0
 10707 ;;      Temps:          0       0       0       0       0       0       0       0       0       0       0       0       
      +0       0       0       0       0
 10708 ;;      Totals:         0       0       0       0       0       0       0       0       0       0       0       0       
      +0       0       0       0       0
 10709 ;;Total ram usage:        0 bytes
 10710 ;; Hardware stack levels used:    1
 10711 ;; This function calls:
 10712 ;;		Nothing
 10713 ;; This function is called by:
 10714 ;;		_main
 10715 ;; This function uses a non-reentrant model
 10716 ;;
 10717                           
 10718                           	psect	text43
 10719  00BC6A                     __ptext43:
 10720                           	callstack 0
 10721  00BC6A                     _SMT1_ManualTimerReset:
 10722                           	callstack 30
 10723  00BC6A                     
 10724                           ;smt1.c: 145: SMT1STATbits.SMT1RST = 1;
 10725  00BC6A  013F               	movlb	63	; () banked
 10726  00BC6C  8B20               	bsf	32,5,b	;volatile
 10727  00BC6E                     
 10728                           ; BSR set to: 63
 10729  00BC6E  0012               	return		;funcret
 10730  00BC70                     __end_of_SMT1_ManualTimerReset:
 10731                           	callstack 0
 10732                           
 10733 ;; *************** function _SMT1_GetCapturedPeriod *****************
 10734 ;; Defined at:
 10735 ;;		line 168 in file "mcc_generated_files/smt1.c"
 10736 ;; Parameters:    Size  Location     Type
 10737 ;;		None
 10738 ;; Auto vars:     Size  Location     Type
 10739 ;;		None
 10740 ;; Return value:  Size  Location     Type
 10741 ;;                  4    0[COMRAM] unsigned long 
 10742 ;; Registers used:
 10743 ;;		wreg, status,2
 10744 ;; Tracked objects:
 10745 ;;		On entry : 0/0
 10746 ;;		On exit  : 0/0
 10747 ;;		Unchanged: 0/0
 10748 ;; Data sizes:     COMRAM   BANK0   BANK1   BANK2   BANK3   BANK4   BANK5   BANK6   BANK7   BANK8   BANK9  BANK10  BANK1
      +1  BANK12  BANK13  BANK14  BANK15
 10749 ;;      Params:         4       0       0       0       0       0       0       0       0       0       0       0       
      +0       0       0       0       0
 10750 ;;      Locals:         0       0       0       0       0       0       0       0       0       0       0       0       
      +0       0       0       0       0
 10751 ;;      Temps:          0       0       0       0       0       0       0       0       0       0       0       0       
      +0       0       0       0       0
 10752 ;;      Totals:         4       0       0       0       0       0       0       0       0       0       0       0       
      +0       0       0       0       0
 10753 ;;Total ram usage:        4 bytes
 10754 ;; Hardware stack levels used:    1
 10755 ;; This function calls:
 10756 ;;		Nothing
 10757 ;; This function is called by:
 10758 ;;		_main
 10759 ;; This function uses a non-reentrant model
 10760 ;;
 10761                           
 10762                           	psect	text44
 10763  00BC9E                     __ptext44:
 10764                           	callstack 0
 10765  00BC9E                     _SMT1_GetCapturedPeriod:
 10766                           	callstack 30
 10767  00BC9E                     
 10768                           ;smt1.c: 170: return (SMT1CPR);
 10769  00BC9E  013F               	movlb	63	; () banked
 10770  00BCA0  5115               	movf	21,w,b	;volatile
 10771  00BCA2  6E01               	movwf	?_SMT1_GetCapturedPeriod^0,c
 10772  00BCA4  5116               	movf	22,w,b	;volatile
 10773  00BCA6  6E02               	movwf	(?_SMT1_GetCapturedPeriod+1)^0,c
 10774  00BCA8  5117               	movf	23,w,b	;volatile
 10775  00BCAA  6E03               	movwf	(?_SMT1_GetCapturedPeriod+2)^0,c
 10776  00BCAC  6A04               	clrf	(?_SMT1_GetCapturedPeriod+3)^0,c
 10777  00BCAE                     
 10778                           ; BSR set to: 63
 10779  00BCAE  0012               	return		;funcret
 10780  00BCB0                     __end_of_SMT1_GetCapturedPeriod:
 10781                           	callstack 0
 10782                           
 10783 ;; *************** function _SMT1_DataAcquisitionEnable *****************
 10784 ;; Defined at:
 10785 ;;		line 93 in file "mcc_generated_files/smt1.c"
 10786 ;; Parameters:    Size  Location     Type
 10787 ;;		None
 10788 ;; Auto vars:     Size  Location     Type
 10789 ;;		None
 10790 ;; Return value:  Size  Location     Type
 10791 ;;                  1    wreg      void 
 10792 ;; Registers used:
 10793 ;;		None
 10794 ;; Tracked objects:
 10795 ;;		On entry : 0/0
 10796 ;;		On exit  : 0/0
 10797 ;;		Unchanged: 0/0
 10798 ;; Data sizes:     COMRAM   BANK0   BANK1   BANK2   BANK3   BANK4   BANK5   BANK6   BANK7   BANK8   BANK9  BANK10  BANK1
      +1  BANK12  BANK13  BANK14  BANK15
 10799 ;;      Params:         0       0       0       0       0       0       0       0       0       0       0       0       
      +0       0       0       0       0
 10800 ;;      Locals:         0       0       0       0       0       0       0       0       0       0       0       0       
      +0       0       0       0       0
 10801 ;;      Temps:          0       0       0       0       0       0       0       0       0       0       0       0       
      +0       0       0       0       0
 10802 ;;      Totals:         0       0       0       0       0       0       0       0       0       0       0       0       
      +0       0       0       0       0
 10803 ;;Total ram usage:        0 bytes
 10804 ;; Hardware stack levels used:    1
 10805 ;; This function calls:
 10806 ;;		Nothing
 10807 ;; This function is called by:
 10808 ;;		_main
 10809 ;; This function uses a non-reentrant model
 10810 ;;
 10811                           
 10812                           	psect	text45
 10813  00BC64                     __ptext45:
 10814                           	callstack 0
 10815  00BC64                     _SMT1_DataAcquisitionEnable:
 10816                           	callstack 30
 10817  00BC64                     
 10818                           ;smt1.c: 96: SMT1CON1bits.SMT1GO = 1;
 10819  00BC64  013F               	movlb	63	; () banked
 10820  00BC66  8F1F               	bsf	31,7,b	;volatile
 10821  00BC68                     
 10822                           ; BSR set to: 63
 10823  00BC68  0012               	return		;funcret
 10824  00BC6A                     __end_of_SMT1_DataAcquisitionEnable:
 10825                           	callstack 0
 10826                           
 10827 ;; *************** function _ReadNUART2 *****************
 10828 ;; Defined at:
 10829 ;;		line 27 in file "../testrun.X/myUART.c"
 10830 ;; Parameters:    Size  Location     Type
 10831 ;;  holds_string    2    0[COMRAM] PTR unsigned char 
 10832 ;;		 -> main@length1(5), main@gap1(3), 
 10833 ;;  length_N        2    2[COMRAM] unsigned int 
 10834 ;; Auto vars:     Size  Location     Type
 10835 ;;  i               2    8[COMRAM] unsigned int 
 10836 ;;  letter          2    6[COMRAM] unsigned int 
 10837 ;;  last            2    0        unsigned int 
 10838 ;; Return value:  Size  Location     Type
 10839 ;;                  1    wreg      void 
 10840 ;; Registers used:
 10841 ;;		wreg, fsr2l, fsr2h, status,2, status,0, pclath, tosl, cstack
 10842 ;; Tracked objects:
 10843 ;;		On entry : 0/0
 10844 ;;		On exit  : 0/0
 10845 ;;		Unchanged: 0/0
 10846 ;; Data sizes:     COMRAM   BANK0   BANK1   BANK2   BANK3   BANK4   BANK5   BANK6   BANK7   BANK8   BANK9  BANK10  BANK1
      +1  BANK12  BANK13  BANK14  BANK15
 10847 ;;      Params:         4       0       0       0       0       0       0       0       0       0       0       0       
      +0       0       0       0       0
 10848 ;;      Locals:         4       0       0       0       0       0       0       0       0       0       0       0       
      +0       0       0       0       0
 10849 ;;      Temps:          2       0       0       0       0       0       0       0       0       0       0       0       
      +0       0       0       0       0
 10850 ;;      Totals:        10       0       0       0       0       0       0       0       0       0       0       0       
      +0       0       0       0       0
 10851 ;;Total ram usage:       10 bytes
 10852 ;; Hardware stack levels used:    1
 10853 ;; Hardware stack levels required when called:    2
 10854 ;; This function calls:
 10855 ;;		_UART2_Read
 10856 ;;		_UART2_is_rx_ready
 10857 ;; This function is called by:
 10858 ;;		_main
 10859 ;; This function uses a non-reentrant model
 10860 ;;
 10861                           
 10862                           	psect	text46
 10863  00C4EC                     __ptext46:
 10864                           	callstack 0
 10865  00C4EC                     _ReadNUART2:
 10866                           	callstack 28
 10867  00C4EC                     
 10868                           ;myUART.c: 29: unsigned int i = 0, last;
 10869  00C4EC  0E00               	movlw	0
 10870  00C4EE  6E0A               	movwf	(ReadNUART2@i+1)^0,c
 10871  00C4F0  0E00               	movlw	0
 10872  00C4F2  6E09               	movwf	ReadNUART2@i^0,c
 10873  00C4F4                     l4781:
 10874  00C4F4  EC62  F05E         	call	_UART2_is_rx_ready	;wreg free
 10875  00C4F8  06E8               	decf	wreg,f,c
 10876  00C4FA  B4D8               	btfsc	status,2,c
 10877  00C4FC  EF82  F062         	goto	u4971
 10878  00C500  EF84  F062         	goto	u4970
 10879  00C504                     u4971:
 10880  00C504  EF7A  F062         	goto	l4781
 10881  00C508                     u4970:
 10882  00C508                     
 10883                           ;myUART.c: 36: letter = UART2_Read();
 10884  00C508  ECD5  F060         	call	_UART2_Read	;wreg free
 10885  00C50C  6E05               	movwf	??_ReadNUART2^0,c
 10886  00C50E  5005               	movf	??_ReadNUART2^0,w,c
 10887  00C510  6E07               	movwf	ReadNUART2@letter^0,c
 10888  00C512  6A08               	clrf	(ReadNUART2@letter+1)^0,c
 10889  00C514                     
 10890                           ;myUART.c: 38: if( 127 == letter )
 10891  00C514  0E7F               	movlw	127
 10892  00C516  1807               	xorwf	ReadNUART2@letter^0,w,c
 10893  00C518  1008               	iorwf	(ReadNUART2@letter+1)^0,w,c
 10894  00C51A  A4D8               	btfss	status,2,c
 10895  00C51C  EF92  F062         	goto	u4981
 10896  00C520  EF94  F062         	goto	u4980
 10897  00C524                     u4981:
 10898  00C524  EFA7  F062         	goto	l4793
 10899  00C528                     u4980:
 10900  00C528                     
 10901                           ;myUART.c: 39: {;myUART.c: 41: i--;
 10902  00C528  0609               	decf	ReadNUART2@i^0,f,c
 10903  00C52A  A0D8               	btfss	status,0,c
 10904  00C52C  060A               	decf	(ReadNUART2@i+1)^0,f,c
 10905  00C52E                     
 10906                           ;myUART.c: 42: if (i==65535)
 10907  00C52E  2809               	incf	ReadNUART2@i^0,w,c
 10908  00C530  E106               	bnz	u4991
 10909  00C532  280A               	incf	(ReadNUART2@i+1)^0,w,c
 10910  00C534  A4D8               	btfss	status,2,c
 10911  00C536  EF9F  F062         	goto	u4991
 10912  00C53A  EFA1  F062         	goto	u4990
 10913  00C53E                     u4991:
 10914  00C53E  EFB2  F062         	goto	l4797
 10915  00C542                     u4990:
 10916  00C542                     
 10917                           ;myUART.c: 43: {;myUART.c: 44: i = 0;
 10918  00C542  0E00               	movlw	0
 10919  00C544  6E0A               	movwf	(ReadNUART2@i+1)^0,c
 10920  00C546  0E00               	movlw	0
 10921  00C548  6E09               	movwf	ReadNUART2@i^0,c
 10922  00C54A  EFB2  F062         	goto	l4797
 10923  00C54E                     l4793:
 10924                           
 10925                           ;myUART.c: 47: else;myUART.c: 48: {;myUART.c: 49: holds_string[i] = letter;
 10926  00C54E  5009               	movf	ReadNUART2@i^0,w,c
 10927  00C550  2401               	addwf	ReadNUART2@holds_string^0,w,c
 10928  00C552  6ED9               	movwf	fsr2l,c
 10929  00C554  500A               	movf	(ReadNUART2@i+1)^0,w,c
 10930  00C556  2002               	addwfc	(ReadNUART2@holds_string+1)^0,w,c
 10931  00C558  6EDA               	movwf	fsr2h,c
 10932  00C55A  0060  F01F  FFDF   	movff	ReadNUART2@letter,indf2
 10933  00C560                     
 10934                           ;myUART.c: 50: i++;
 10935  00C560  4A09               	infsnz	ReadNUART2@i^0,f,c
 10936  00C562  2A0A               	incf	(ReadNUART2@i+1)^0,f,c
 10937  00C564                     l4797:
 10938                           
 10939                           ;myUART.c: 51: };myUART.c: 53: } while ( (letter != 13) && (i <= length_N) );
 10940  00C564  0E0D               	movlw	13
 10941  00C566  1807               	xorwf	ReadNUART2@letter^0,w,c
 10942  00C568  1008               	iorwf	(ReadNUART2@letter+1)^0,w,c
 10943  00C56A  B4D8               	btfsc	status,2,c
 10944  00C56C  EFBA  F062         	goto	u5001
 10945  00C570  EFBC  F062         	goto	u5000
 10946  00C574                     u5001:
 10947  00C574  EFC7  F062         	goto	l4801
 10948  00C578                     u5000:
 10949  00C578  5009               	movf	ReadNUART2@i^0,w,c
 10950  00C57A  5C03               	subwf	ReadNUART2@length_N^0,w,c
 10951  00C57C  500A               	movf	(ReadNUART2@i+1)^0,w,c
 10952  00C57E  5804               	subwfb	(ReadNUART2@length_N+1)^0,w,c
 10953  00C580  B0D8               	btfsc	status,0,c
 10954  00C582  EFC5  F062         	goto	u5011
 10955  00C586  EFC7  F062         	goto	u5010
 10956  00C58A                     u5011:
 10957  00C58A  EF7A  F062         	goto	l4781
 10958  00C58E                     u5010:
 10959  00C58E                     l4801:
 10960                           
 10961                           ;myUART.c: 55: holds_string[i-1] = '\0';
 10962  00C58E  5009               	movf	ReadNUART2@i^0,w,c
 10963  00C590  2401               	addwf	ReadNUART2@holds_string^0,w,c
 10964  00C592  6E05               	movwf	??_ReadNUART2^0,c
 10965  00C594  500A               	movf	(ReadNUART2@i+1)^0,w,c
 10966  00C596  2002               	addwfc	(ReadNUART2@holds_string+1)^0,w,c
 10967  00C598  6E06               	movwf	(??_ReadNUART2+1)^0,c
 10968  00C59A  0EFF               	movlw	255
 10969  00C59C  2405               	addwf	??_ReadNUART2^0,w,c
 10970  00C59E  6ED9               	movwf	fsr2l,c
 10971  00C5A0  0EFF               	movlw	255
 10972  00C5A2  2006               	addwfc	(??_ReadNUART2+1)^0,w,c
 10973  00C5A4  6EDA               	movwf	fsr2h,c
 10974  00C5A6  0E00               	movlw	0
 10975  00C5A8  6EDF               	movwf	indf2,c
 10976  00C5AA  0012               	return		;funcret
 10977  00C5AC                     __end_of_ReadNUART2:
 10978                           	callstack 0
 10979                           
 10980 ;; *************** function _UART2_is_rx_ready *****************
 10981 ;; Defined at:
 10982 ;;		line 117 in file "mcc_generated_files/uart2.c"
 10983 ;; Parameters:    Size  Location     Type
 10984 ;;		None
 10985 ;; Auto vars:     Size  Location     Type
 10986 ;;		None
 10987 ;; Return value:  Size  Location     Type
 10988 ;;                  1    wreg      unsigned char 
 10989 ;; Registers used:
 10990 ;;		wreg
 10991 ;; Tracked objects:
 10992 ;;		On entry : 0/0
 10993 ;;		On exit  : 0/0
 10994 ;;		Unchanged: 0/0
 10995 ;; Data sizes:     COMRAM   BANK0   BANK1   BANK2   BANK3   BANK4   BANK5   BANK6   BANK7   BANK8   BANK9  BANK10  BANK1
      +1  BANK12  BANK13  BANK14  BANK15
 10996 ;;      Params:         0       0       0       0       0       0       0       0       0       0       0       0       
      +0       0       0       0       0
 10997 ;;      Locals:         0       0       0       0       0       0       0       0       0       0       0       0       
      +0       0       0       0       0
 10998 ;;      Temps:          0       0       0       0       0       0       0       0       0       0       0       0       
      +0       0       0       0       0
 10999 ;;      Totals:         0       0       0       0       0       0       0       0       0       0       0       0       
      +0       0       0       0       0
 11000 ;;Total ram usage:        0 bytes
 11001 ;; Hardware stack levels used:    1
 11002 ;; This function calls:
 11003 ;;		Nothing
 11004 ;; This function is called by:
 11005 ;;		_ReadNUART2
 11006 ;;		_wait_for_ENTER
 11007 ;; This function uses a non-reentrant model
 11008 ;;
 11009                           
 11010                           	psect	text47
 11011  00BCC4                     __ptext47:
 11012                           	callstack 0
 11013  00BCC4                     _UART2_is_rx_ready:
 11014                           	callstack 29
 11015  00BCC4                     
 11016                           ;uart2.c: 119: return (bool)(PIR6bits.U2RXIF);
 11017  00BCC4  0139               	movlb	57	; () banked
 11018  00BCC6  B5A6               	btfsc	166,2,b	;volatile
 11019  00BCC8  EF68  F05E         	goto	u4291
 11020  00BCCC  EF6B  F05E         	goto	u4290
 11021  00BCD0                     u4291:
 11022  00BCD0  0E01               	movlw	1
 11023  00BCD2  EF6C  F05E         	goto	u4296
 11024  00BCD6                     u4290:
 11025  00BCD6  0E00               	movlw	0
 11026  00BCD8                     u4296:
 11027  00BCD8                     
 11028                           ; BSR set to: 57
 11029  00BCD8  0012               	return		;funcret
 11030  00BCDA                     __end_of_UART2_is_rx_ready:
 11031                           	callstack 0
 11032                           
 11033 ;; *************** function _UART2_Read *****************
 11034 ;; Defined at:
 11035 ;;		line 136 in file "mcc_generated_files/uart2.c"
 11036 ;; Parameters:    Size  Location     Type
 11037 ;;		None
 11038 ;; Auto vars:     Size  Location     Type
 11039 ;;		None
 11040 ;; Return value:  Size  Location     Type
 11041 ;;                  1    wreg      unsigned char 
 11042 ;; Registers used:
 11043 ;;		wreg, status,2, pclath, tosl, cstack
 11044 ;; Tracked objects:
 11045 ;;		On entry : 0/0
 11046 ;;		On exit  : 0/0
 11047 ;;		Unchanged: 0/0
 11048 ;; Data sizes:     COMRAM   BANK0   BANK1   BANK2   BANK3   BANK4   BANK5   BANK6   BANK7   BANK8   BANK9  BANK10  BANK1
      +1  BANK12  BANK13  BANK14  BANK15
 11049 ;;      Params:         0       0       0       0       0       0       0       0       0       0       0       0       
      +0       0       0       0       0
 11050 ;;      Locals:         0       0       0       0       0       0       0       0       0       0       0       0       
      +0       0       0       0       0
 11051 ;;      Temps:          0       0       0       0       0       0       0       0       0       0       0       0       
      +0       0       0       0       0
 11052 ;;      Totals:         0       0       0       0       0       0       0       0       0       0       0       0       
      +0       0       0       0       0
 11053 ;;Total ram usage:        0 bytes
 11054 ;; Hardware stack levels used:    1
 11055 ;; Hardware stack levels required when called:    1
 11056 ;; This function calls:
 11057 ;;		Absolute function
 11058 ;;		_UART2_DefaultErrorHandler
 11059 ;;		_UART2_DefaultFramingErrorHandler
 11060 ;;		_UART2_DefaultOverrunErrorHandler
 11061 ;; This function is called by:
 11062 ;;		_ReadNUART2
 11063 ;;		_getch
 11064 ;;		_wait_for_ENTER
 11065 ;; This function uses a non-reentrant model
 11066 ;;
 11067                           
 11068                           	psect	text48
 11069  00C1AA                     __ptext48:
 11070                           	callstack 0
 11071  00C1AA                     _UART2_Read:
 11072                           	callstack 28
 11073  00C1AA                     l226:
 11074  00C1AA  0139               	movlb	57	; () banked
 11075  00C1AC  A5A6               	btfss	166,2,b	;volatile
 11076  00C1AE  EFDB  F060         	goto	u4301
 11077  00C1B2  EFDD  F060         	goto	u4300
 11078  00C1B6                     u4301:
 11079  00C1B6  EFD5  F060         	goto	l226
 11080  00C1BA                     u4300:
 11081  00C1BA                     
 11082                           ; BSR set to: 57
 11083                           ;uart2.c: 140: };uart2.c: 142: uart2RxLastError.status = 0;
 11084  00C1BA  0E00               	movlw	0
 11085  00C1BC  6E4F               	movwf	_uart2RxLastError^0,c	;volatile
 11086  00C1BE                     
 11087                           ; BSR set to: 57
 11088                           ;uart2.c: 144: if(U2ERRIRbits.FERIF){
 11089  00C1BE  013D               	movlb	61	; () banked
 11090  00C1C0  A7E1               	btfss	225,3,b	;volatile
 11091  00C1C2  EFE5  F060         	goto	u4311
 11092  00C1C6  EFE7  F060         	goto	u4310
 11093  00C1CA                     u4311:
 11094  00C1CA  EFF5  F060         	goto	l4391
 11095  00C1CE                     u4310:
 11096  00C1CE                     
 11097                           ; BSR set to: 61
 11098                           ;uart2.c: 145: uart2RxLastError.ferr = 1;
 11099  00C1CE  824F               	bsf	_uart2RxLastError^0,1,c	;volatile
 11100  00C1D0                     
 11101                           ; BSR set to: 61
 11102                           ;uart2.c: 146: UART2_FramingErrorHandler();
 11103  00C1D0  D802               	call	u4328
 11104  00C1D2  EFF5  F060         	goto	u4329
 11105  00C1D6                     u4328:
 11106  00C1D6  0005               	push	
 11107  00C1D8  6EFA               	movwf	pclath,c
 11108  00C1DA  0101               	movlb	1	; () banked
 11109  00C1DC  51D9               	movf	_UART2_FramingErrorHandler& (0+255),w,b
 11110  00C1DE  6EFD               	movwf	tosl,c
 11111  00C1E0  51DA               	movf	(_UART2_FramingErrorHandler+1)& (0+255),w,b
 11112  00C1E2  6EFE               	movwf	tosh,c
 11113  00C1E4  6AFF               	clrf	tosu,c
 11114  00C1E6  50FA               	movf	pclath,w,c
 11115  00C1E8  0012               	return		;indir
 11116  00C1EA                     u4329:
 11117  00C1EA                     l4391:
 11118                           
 11119                           ;uart2.c: 147: };uart2.c: 149: if(U2ERRIRbits.RXFOIF){
 11120  00C1EA  013D               	movlb	61	; () banked
 11121  00C1EC  A3E1               	btfss	225,1,b	;volatile
 11122  00C1EE  EFFB  F060         	goto	u4331
 11123  00C1F2  EFFD  F060         	goto	u4330
 11124  00C1F6                     u4331:
 11125  00C1F6  EF0B  F061         	goto	l4397
 11126  00C1FA                     u4330:
 11127  00C1FA                     
 11128                           ; BSR set to: 61
 11129                           ;uart2.c: 150: uart2RxLastError.oerr = 1;
 11130  00C1FA  844F               	bsf	_uart2RxLastError^0,2,c	;volatile
 11131  00C1FC                     
 11132                           ; BSR set to: 61
 11133                           ;uart2.c: 151: UART2_OverrunErrorHandler();
 11134  00C1FC  D802               	call	u4348
 11135  00C1FE  EF0B  F061         	goto	u4349
 11136  00C202                     u4348:
 11137  00C202  0005               	push	
 11138  00C204  6EFA               	movwf	pclath,c
 11139  00C206  0101               	movlb	1	; () banked
 11140  00C208  51D7               	movf	_UART2_OverrunErrorHandler& (0+255),w,b
 11141  00C20A  6EFD               	movwf	tosl,c
 11142  00C20C  51D8               	movf	(_UART2_OverrunErrorHandler+1)& (0+255),w,b
 11143  00C20E  6EFE               	movwf	tosh,c
 11144  00C210  6AFF               	clrf	tosu,c
 11145  00C212  50FA               	movf	pclath,w,c
 11146  00C214  0012               	return		;indir
 11147  00C216                     u4349:
 11148  00C216                     l4397:
 11149                           
 11150                           ;uart2.c: 152: };uart2.c: 154: if(uart2RxLastError.status){
 11151  00C216  504F               	movf	_uart2RxLastError^0,w,c	;volatile
 11152  00C218  B4D8               	btfsc	status,2,c
 11153  00C21A  EF11  F061         	goto	u4351
 11154  00C21E  EF13  F061         	goto	u4350
 11155  00C222                     u4351:
 11156  00C222  EF20  F061         	goto	l4401
 11157  00C226                     u4350:
 11158  00C226                     
 11159                           ;uart2.c: 155: UART2_ErrorHandler();
 11160  00C226  D802               	call	u4368
 11161  00C228  EF20  F061         	goto	u4369
 11162  00C22C                     u4368:
 11163  00C22C  0005               	push	
 11164  00C22E  6EFA               	movwf	pclath,c
 11165  00C230  0101               	movlb	1	; () banked
 11166  00C232  51D5               	movf	_UART2_ErrorHandler& (0+255),w,b
 11167  00C234  6EFD               	movwf	tosl,c
 11168  00C236  51D6               	movf	(_UART2_ErrorHandler+1)& (0+255),w,b
 11169  00C238  6EFE               	movwf	tosh,c
 11170  00C23A  6AFF               	clrf	tosu,c
 11171  00C23C  50FA               	movf	pclath,w,c
 11172  00C23E  0012               	return		;indir
 11173  00C240                     u4369:
 11174  00C240                     l4401:
 11175                           
 11176                           ;uart2.c: 156: };uart2.c: 158: return U2RXB;
 11177  00C240  013D               	movlb	61	; () banked
 11178  00C242  51D0               	movf	208,w,b	;volatile
 11179  00C244                     
 11180                           ; BSR set to: 61
 11181  00C244  0012               	return		;funcret
 11182  00C246                     __end_of_UART2_Read:
 11183                           	callstack 0
 11184                           
 11185 ;; *************** function _UART2_DefaultOverrunErrorHandler *****************
 11186 ;; Defined at:
 11187 ;;		line 186 in file "mcc_generated_files/uart2.c"
 11188 ;; Parameters:    Size  Location     Type
 11189 ;;		None
 11190 ;; Auto vars:     Size  Location     Type
 11191 ;;		None
 11192 ;; Return value:  Size  Location     Type
 11193 ;;                  1    wreg      void 
 11194 ;; Registers used:
 11195 ;;		None
 11196 ;; Tracked objects:
 11197 ;;		On entry : 0/0
 11198 ;;		On exit  : 0/0
 11199 ;;		Unchanged: 0/0
 11200 ;; Data sizes:     COMRAM   BANK0   BANK1   BANK2   BANK3   BANK4   BANK5   BANK6   BANK7   BANK8   BANK9  BANK10  BANK1
      +1  BANK12  BANK13  BANK14  BANK15
 11201 ;;      Params:         0       0       0       0       0       0       0       0       0       0       0       0       
      +0       0       0       0       0
 11202 ;;      Locals:         0       0       0       0       0       0       0       0       0       0       0       0       
      +0       0       0       0       0
 11203 ;;      Temps:          0       0       0       0       0       0       0       0       0       0       0       0       
      +0       0       0       0       0
 11204 ;;      Totals:         0       0       0       0       0       0       0       0       0       0       0       0       
      +0       0       0       0       0
 11205 ;;Total ram usage:        0 bytes
 11206 ;; Hardware stack levels used:    1
 11207 ;; This function calls:
 11208 ;;		Nothing
 11209 ;; This function is called by:
 11210 ;;		_UART2_Initialize
 11211 ;;		_UART2_Read
 11212 ;; This function uses a non-reentrant model
 11213 ;;
 11214                           
 11215                           	psect	text49
 11216  00BC62                     __ptext49:
 11217                           	callstack 0
 11218  00BC62                     _UART2_DefaultOverrunErrorHandler:
 11219                           	callstack 28
 11220  00BC62  0012               	return		;funcret
 11221  00BC64                     __end_of_UART2_DefaultOverrunErrorHandler:
 11222                           	callstack 0
 11223                           
 11224 ;; *************** function _UART2_DefaultFramingErrorHandler *****************
 11225 ;; Defined at:
 11226 ;;		line 184 in file "mcc_generated_files/uart2.c"
 11227 ;; Parameters:    Size  Location     Type
 11228 ;;		None
 11229 ;; Auto vars:     Size  Location     Type
 11230 ;;		None
 11231 ;; Return value:  Size  Location     Type
 11232 ;;                  1    wreg      void 
 11233 ;; Registers used:
 11234 ;;		None
 11235 ;; Tracked objects:
 11236 ;;		On entry : 0/0
 11237 ;;		On exit  : 0/0
 11238 ;;		Unchanged: 0/0
 11239 ;; Data sizes:     COMRAM   BANK0   BANK1   BANK2   BANK3   BANK4   BANK5   BANK6   BANK7   BANK8   BANK9  BANK10  BANK1
      +1  BANK12  BANK13  BANK14  BANK15
 11240 ;;      Params:         0       0       0       0       0       0       0       0       0       0       0       0       
      +0       0       0       0       0
 11241 ;;      Locals:         0       0       0       0       0       0       0       0       0       0       0       0       
      +0       0       0       0       0
 11242 ;;      Temps:          0       0       0       0       0       0       0       0       0       0       0       0       
      +0       0       0       0       0
 11243 ;;      Totals:         0       0       0       0       0       0       0       0       0       0       0       0       
      +0       0       0       0       0
 11244 ;;Total ram usage:        0 bytes
 11245 ;; Hardware stack levels used:    1
 11246 ;; This function calls:
 11247 ;;		Nothing
 11248 ;; This function is called by:
 11249 ;;		_UART2_Initialize
 11250 ;;		_UART2_Read
 11251 ;; This function uses a non-reentrant model
 11252 ;;
 11253                           
 11254                           	psect	text50
 11255  00BC60                     __ptext50:
 11256                           	callstack 0
 11257  00BC60                     _UART2_DefaultFramingErrorHandler:
 11258                           	callstack 28
 11259  00BC60  0012               	return		;funcret
 11260  00BC62                     __end_of_UART2_DefaultFramingErrorHandler:
 11261                           	callstack 0
 11262                           
 11263 ;; *************** function _UART2_DefaultErrorHandler *****************
 11264 ;; Defined at:
 11265 ;;		line 188 in file "mcc_generated_files/uart2.c"
 11266 ;; Parameters:    Size  Location     Type
 11267 ;;		None
 11268 ;; Auto vars:     Size  Location     Type
 11269 ;;		None
 11270 ;; Return value:  Size  Location     Type
 11271 ;;                  1    wreg      void 
 11272 ;; Registers used:
 11273 ;;		None
 11274 ;; Tracked objects:
 11275 ;;		On entry : 0/0
 11276 ;;		On exit  : 0/0
 11277 ;;		Unchanged: 0/0
 11278 ;; Data sizes:     COMRAM   BANK0   BANK1   BANK2   BANK3   BANK4   BANK5   BANK6   BANK7   BANK8   BANK9  BANK10  BANK1
      +1  BANK12  BANK13  BANK14  BANK15
 11279 ;;      Params:         0       0       0       0       0       0       0       0       0       0       0       0       
      +0       0       0       0       0
 11280 ;;      Locals:         0       0       0       0       0       0       0       0       0       0       0       0       
      +0       0       0       0       0
 11281 ;;      Temps:          0       0       0       0       0       0       0       0       0       0       0       0       
      +0       0       0       0       0
 11282 ;;      Totals:         0       0       0       0       0       0       0       0       0       0       0       0       
      +0       0       0       0       0
 11283 ;;Total ram usage:        0 bytes
 11284 ;; Hardware stack levels used:    1
 11285 ;; This function calls:
 11286 ;;		Nothing
 11287 ;; This function is called by:
 11288 ;;		_UART2_Initialize
 11289 ;;		_UART2_Read
 11290 ;; This function uses a non-reentrant model
 11291 ;;
 11292                           
 11293                           	psect	text51
 11294  00BC5E                     __ptext51:
 11295                           	callstack 0
 11296  00BC5E                     _UART2_DefaultErrorHandler:
 11297                           	callstack 28
 11298  00BC5E  0012               	return		;funcret
 11299  00BC60                     __end_of_UART2_DefaultErrorHandler:
 11300                           	callstack 0
 11301                           
 11302                           	psect	text52
 11303  000000                     __ptext52:
 11304                           	callstack 0
 11305  000000                     
 11306                           	psect	rparam
 11307  0000                     
 11308                           	psect	idloc
 11309                           
 11310                           ;Config register IDLOC0 @ 0x200000
 11311                           ;	unspecified, using default values
 11312  200000                     	org	2097152
 11313  200000  0FFF               	dw	4095
 11314                           
 11315                           ;Config register IDLOC1 @ 0x200002
 11316                           ;	unspecified, using default values
 11317  200002                     	org	2097154
 11318  200002  0FFF               	dw	4095
 11319                           
 11320                           ;Config register IDLOC2 @ 0x200004
 11321                           ;	unspecified, using default values
 11322  200004                     	org	2097156
 11323  200004  0FFF               	dw	4095
 11324                           
 11325                           ;Config register IDLOC3 @ 0x200006
 11326                           ;	unspecified, using default values
 11327  200006                     	org	2097158
 11328  200006  0FFF               	dw	4095
 11329                           
 11330                           ;Config register IDLOC4 @ 0x200008
 11331                           ;	unspecified, using default values
 11332  200008                     	org	2097160
 11333  200008  0FFF               	dw	4095
 11334                           
 11335                           ;Config register IDLOC5 @ 0x20000A
 11336                           ;	unspecified, using default values
 11337  20000A                     	org	2097162
 11338  20000A  0FFF               	dw	4095
 11339                           
 11340                           ;Config register IDLOC6 @ 0x20000C
 11341                           ;	unspecified, using default values
 11342  20000C                     	org	2097164
 11343  20000C  0FFF               	dw	4095
 11344                           
 11345                           ;Config register IDLOC7 @ 0x20000E
 11346                           ;	unspecified, using default values
 11347  20000E                     	org	2097166
 11348  20000E  0FFF               	dw	4095
 11349                           
 11350                           	psect	config
 11351                           
 11352                           ;Config register CONFIG1L @ 0x300000
 11353                           ;	External Oscillator Selection
 11354                           ;	FEXTOSC = ECM, EC (external clock) for 500 kHz to 8 MHz; PFM set to medium power
 11355                           ;	Reset Oscillator Selection
 11356                           ;	RSTOSC = EXTOSC_4PLL, EXTOSC with 4x PLL, with EXTOSC operating per FEXTOSC bits
 11357  300000                     	org	3145728
 11358  300000  AE                 	db	174
 11359                           
 11360                           ;Config register CONFIG1H @ 0x300001
 11361                           ;	Clock out Enable bit
 11362                           ;	CLKOUTEN = ON, CLKOUT function is enabled
 11363                           ;	PRLOCKED One-Way Set Enable bit
 11364                           ;	PR1WAY = ON, PRLOCK bit can be cleared and set only once
 11365                           ;	Clock Switch Enable bit
 11366                           ;	CSWEN = ON, Writing to NOSC and NDIV is allowed
 11367                           ;	Fail-Safe Clock Monitor Enable bit
 11368                           ;	FCMEN = ON, Fail-Safe Clock Monitor enabled
 11369  300001                     	org	3145729
 11370  300001  FE                 	db	254
 11371                           
 11372                           ;Config register CONFIG2L @ 0x300002
 11373                           ;	MCLR Enable bit
 11374                           ;	MCLRE = EXTMCLR, If LVP = 0, MCLR pin is MCLR; If LVP = 1, RE3 pin function is MCLR
 11375                           ;	Power-up timer selection bits
 11376                           ;	PWRTS = PWRT_OFF, PWRT is disabled
 11377                           ;	Multi-vector enable bit
 11378                           ;	MVECEN = OFF, Interrupt contoller does not use vector table to prioritze interrupts
 11379                           ;	IVTLOCK bit One-way set enable bit
 11380                           ;	IVT1WAY = ON, IVTLOCK bit can be cleared and set only once
 11381                           ;	Low Power BOR Enable bit
 11382                           ;	LPBOREN = OFF, ULPBOR disabled
 11383                           ;	Brown-out Reset Enable bits
 11384                           ;	BOREN = SBORDIS, Brown-out Reset enabled , SBOREN bit is ignored
 11385  300002                     	org	3145730
 11386  300002  F7                 	db	247
 11387                           
 11388                           ;Config register CONFIG2H @ 0x300003
 11389                           ;	Brown-out Reset Voltage Selection bits
 11390                           ;	BORV = VBOR_2P45, Brown-out Reset Voltage (VBOR) set to 2.45V
 11391                           ;	ZCD Disable bit
 11392                           ;	ZCD = OFF, ZCD disabled. ZCD can be enabled by setting the ZCDSEN bit of ZCDCON
 11393                           ;	PPSLOCK bit One-Way Set Enable bit
 11394                           ;	PPS1WAY = ON, PPSLOCK bit can be cleared and set only once; PPS registers remain locke
      +                          d after one clear/set cycle
 11395                           ;	Stack Full/Underflow Reset Enable bit
 11396                           ;	STVREN = ON, Stack full/underflow will cause Reset
 11397                           ;	Debugger Enable bit
 11398                           ;	DEBUG = OFF, Background debugger disabled
 11399                           ;	Extended Instruction Set Enable bit
 11400                           ;	XINST = OFF, Extended Instruction Set and Indexed Addressing Mode disabled
 11401  300003                     	org	3145731
 11402  300003  FF                 	db	255
 11403                           
 11404                           ;Config register CONFIG3L @ 0x300004
 11405                           ;	WDT Period selection bits
 11406                           ;	WDTCPS = WDTCPS_31, Divider ratio 1:65536; software control of WDTPS
 11407                           ;	WDT operating mode
 11408                           ;	WDTE = OFF, WDT Disabled; SWDTEN is ignored
 11409  300004                     	org	3145732
 11410  300004  9F                 	db	159
 11411                           
 11412                           ;Config register CONFIG3H @ 0x300005
 11413                           ;	WDT Window Select bits
 11414                           ;	WDTCWS = WDTCWS_7, window always open (100%); software control; keyed access not requi
      +                          red
 11415                           ;	WDT input clock selector
 11416                           ;	WDTCCS = SC, Software Control
 11417  300005                     	org	3145733
 11418  300005  FF                 	db	255
 11419                           
 11420                           ;Config register CONFIG4L @ 0x300006
 11421                           ;	Boot Block Size selection bits
 11422                           ;	BBSIZE = BBSIZE_512, Boot Block size is 512 words
 11423                           ;	Boot Block enable bit
 11424                           ;	BBEN = OFF, Boot block disabled
 11425                           ;	Storage Area Flash enable bit
 11426                           ;	SAFEN = OFF, SAF disabled
 11427                           ;	Application Block write protection bit
 11428                           ;	WRTAPP = OFF, Application Block not write protected
 11429  300006                     	org	3145734
 11430  300006  FF                 	db	255
 11431                           
 11432                           ;Config register CONFIG4H @ 0x300007
 11433                           ;	Configuration Register Write Protection bit
 11434                           ;	WRTB = OFF, Configuration registers (300000-30000Bh) not write-protected
 11435                           ;	Boot Block Write Protection bit
 11436                           ;	WRTC = OFF, Boot Block (000000-0007FFh) not write-protected
 11437                           ;	Data EEPROM Write Protection bit
 11438                           ;	WRTD = OFF, Data EEPROM not write-protected
 11439                           ;	SAF Write protection bit
 11440                           ;	WRTSAF = OFF, SAF not Write Protected
 11441                           ;	Low Voltage Programming Enable bit
 11442                           ;	LVP = ON, Low voltage programming enabled. MCLR/VPP pin function is MCLR. MCLRE config
      +                          uration bit is ignored
 11443  300007                     	org	3145735
 11444  300007  FF                 	db	255
 11445                           
 11446                           ;Config register CONFIG5L @ 0x300008
 11447                           ;	PFM and Data EEPROM Code Protection bit
 11448                           ;	CP = OFF, PFM and Data EEPROM code protection disabled
 11449  300008                     	org	3145736
 11450  300008  FF                 	db	255
 11451                           
 11452                           ;Config register CONFIG5H @ 0x300009
 11453                           ;	unspecified, using default values
 11454  300009                     	org	3145737
 11455  300009  FF                 	db	255
 11456                           tosu	equ	0x3FFF
 11457                           tosh	equ	0x3FFE
 11458                           tosl	equ	0x3FFD
 11459                           stkptr	equ	0x3FFC
 11460                           pclatu	equ	0x3FFB
 11461                           pclath	equ	0x3FFA
 11462                           pcl	equ	0x3FF9
 11463                           tblptru	equ	0x3FF8
 11464                           tblptrh	equ	0x3FF7
 11465                           tblptrl	equ	0x3FF6
 11466                           tablat	equ	0x3FF5
 11467                           prodh	equ	0x3FF4
 11468                           prodl	equ	0x3FF3
 11469                           indf0	equ	0x3FEF
 11470                           postinc0	equ	0x3FEE
 11471                           postdec0	equ	0x3FED
 11472                           preinc0	equ	0x3FEC
 11473                           plusw0	equ	0x3FEB
 11474                           fsr0h	equ	0x3FEA
 11475                           fsr0l	equ	0x3FE9
 11476                           wreg	equ	0x3FE8
 11477                           indf1	equ	0x3FE7
 11478                           postinc1	equ	0x3FE6
 11479                           postdec1	equ	0x3FE5
 11480                           preinc1	equ	0x3FE4
 11481                           plusw1	equ	0x3FE3
 11482                           fsr1h	equ	0x3FE2
 11483                           fsr1l	equ	0x3FE1
 11484                           bsr	equ	0x3FE0
 11485                           indf2	equ	0x3FDF
 11486                           postinc2	equ	0x3FDE
 11487                           postdec2	equ	0x3FDD
 11488                           preinc2	equ	0x3FDC
 11489                           plusw2	equ	0x3FDB
 11490                           fsr2h	equ	0x3FDA
 11491                           fsr2l	equ	0x3FD9
 11492                           status	equ	0x3FD8

Data Sizes:
    Strings     478
    Constant    144
    Data        0
    BSS         9
    Persistent  0
    Stack       0

Auto Spaces:
    Space          Size  Autos    Used
    COMRAM           95     94      95
    BANK0           160    160     160
    BANK1           256    211     219
    BANK2           256      0       0
    BANK3           256      0       0
    BANK4           256      0       0
    BANK5           256      0       0
    BANK6           256      0       0
    BANK7           256      0       0
    BANK8           256      0       0
    BANK9           256      0       0
    BANK10          256      0       0
    BANK11          256      0       0
    BANK12          256      0       0
    BANK13          256      0       0
    BANK14          256      0       0
    BANK15          256      0       0

Pointer List with Targets:

    atoi@s	PTR const unsigned char  size(2) Largest target is 3
		 -> main@gap1(BANK0[3]), 

    atof@s	PTR const unsigned char  size(2) Largest target is 5
		 -> main@length1(BANK1[5]), 

    strtod@s	PTR const unsigned char  size(2) Largest target is 5
		 -> main@length1(BANK1[5]), 

    strtod@res	PTR PTR const unsigned char  size(2) Largest target is 0
		 -> NULL(NULL[0]), 

    printf@f	PTR const unsigned char  size(2) Largest target is 61
		 -> STR_17(CODE[7]), STR_16(CODE[9]), STR_15(CODE[9]), STR_14(CODE[44]), 
		 -> STR_13(CODE[9]), STR_12(CODE[27]), STR_11(CODE[51]), STR_10(CODE[38]), 
		 -> STR_9(CODE[25]), STR_8(CODE[23]), STR_7(CODE[35]), STR_6(CODE[51]), 
		 -> STR_5(CODE[61]), STR_4(CODE[24]), STR_3(CODE[26]), STR_2(CODE[18]), 
		 -> STR_1(CODE[37]), 

    printf@ap	PTR void [1] size(2) Largest target is 2
		 -> ?_printf(BANK0[2]), 

    ReadNUART2@holds_string	PTR unsigned char  size(2) Largest target is 5
		 -> main@length1(BANK1[5]), main@gap1(BANK0[3]), 

    UART2_SetErrorHandler@interruptHandler	PTR FTN()void  size(2) Largest target is 1
		 -> UART2_DefaultErrorHandler(), 

    UART2_SetOverrunErrorHandler@interruptHandler	PTR FTN()void  size(2) Largest target is 1
		 -> UART2_DefaultOverrunErrorHandler(), 

    UART2_SetFramingErrorHandler@interruptHandler	PTR FTN()void  size(2) Largest target is 1
		 -> UART2_DefaultFramingErrorHandler(), 

    UART2_ErrorHandler	PTR FTN()void  size(2) Largest target is 1
		 -> Absolute function(), UART2_DefaultErrorHandler(), 

    UART2_OverrunErrorHandler	PTR FTN()void  size(2) Largest target is 1
		 -> Absolute function(), UART2_DefaultOverrunErrorHandler(), 

    UART2_FramingErrorHandler	PTR FTN()void  size(2) Largest target is 1
		 -> Absolute function(), UART2_DefaultFramingErrorHandler(), 


Critical Paths under _main in COMRAM

    _main->_printf
    _clearPuTTY->_printf
    _printf->___flsub
    _scale->___flmul
    ___awdiv->___awmod
    _putch->_UART2_Write
    _fround->___flmul
    ___lwdiv->___lwmod
    ___llmod->___lldiv
    ___fltol->_scale
    ___flsub->___fladd
    ___fladd->_fround
    _atoi->___wmul
    _atof->_strtod
    _strtod->___fldiv
    _strtod->___flmul
    ___flmul->___awdiv
    ___fldiv->___xxtofl
    _UART2_Initialize->_UART2_SetErrorHandler
    _UART2_Initialize->_UART2_SetFramingErrorHandler
    _UART2_Initialize->_UART2_SetOverrunErrorHandler

Critical Paths under _main in BANK0

    _main->_printf
    _clearPuTTY->_printf

Critical Paths under _main in BANK1

    None.

Critical Paths under _main in BANK2

    None.

Critical Paths under _main in BANK3

    None.

Critical Paths under _main in BANK4

    None.

Critical Paths under _main in BANK5

    None.

Critical Paths under _main in BANK6

    None.

Critical Paths under _main in BANK7

    None.

Critical Paths under _main in BANK8

    None.

Critical Paths under _main in BANK9

    None.

Critical Paths under _main in BANK10

    None.

Critical Paths under _main in BANK11

    None.

Critical Paths under _main in BANK12

    None.

Critical Paths under _main in BANK13

    None.

Critical Paths under _main in BANK14

    None.

Critical Paths under _main in BANK15

    None.

Call Graph Tables:

 ---------------------------------------------------------------------------------
 (Depth) Function   	        Calls       Base Space   Used Autos Params    Refs
 ---------------------------------------------------------------------------------
 (0) _main                                               332   332      0   95155
                                             78 COMRAM    16    16      0
                                             55 BANK0    105   105      0
                                              0 BANK1    211   211      0
                         _ReadNUART2
         _SMT1_DataAcquisitionEnable
             _SMT1_GetCapturedPeriod
              _SMT1_ManualTimerReset
         _SMT1_RepeatDataAcquisition
                  _SYSTEM_Initialize
                            ___fladd
                            ___fldiv
                             ___fleq
                            ___flmul
                            ___flsub
                            ___lldiv
                           ___xxtofl
                               _atof
                               _atoi
                         _clearPuTTY
                             _printf
 ---------------------------------------------------------------------------------
 (1) _clearPuTTY                                           0     0      0   33192
                             _printf
 ---------------------------------------------------------------------------------
 (1) _printf                                              65    35     30   33192
                                             76 COMRAM     2     2      0
                                              0 BANK0     55    25     30
                            ___awdiv
                            ___fladd
                             ___fleq
                             ___flge
                            ___flmul
                            ___flneg
                            ___flsub
                            ___fltol
                            ___lldiv
                            ___llmod
                             ___wmul
                           ___xxtofl
                         __div_to_l_
                        __tdiv_to_l_
                             _fround
                              _putch
                              _scale
 ---------------------------------------------------------------------------------
 (2) _scale                                                9     5      4    7191
                                             39 COMRAM     9     5      4
                            ___awdiv
                            ___awmod
                            ___flmul
 ---------------------------------------------------------------------------------
 (3) ___awmod                                              6     2      4    1208
                                              0 COMRAM     6     2      4
 ---------------------------------------------------------------------------------
 (3) ___awdiv                                              8     4      4    1364
                                              6 COMRAM     8     4      4
                            ___awmod (ARG)
 ---------------------------------------------------------------------------------
 (2) _putch                                                1     1      0      44
                                              1 COMRAM     1     1      0
                        _UART2_Write
 ---------------------------------------------------------------------------------
 (3) _UART2_Write                                          1     1      0      22
                                              0 COMRAM     1     1      0
 ---------------------------------------------------------------------------------
 (2) _fround                                              13     9      4    5654
                                             39 COMRAM    13     9      4
                            ___flmul
                            ___lwdiv
                            ___lwmod
 ---------------------------------------------------------------------------------
 (3) ___lwmod                                              5     1      4     615
                                              0 COMRAM     5     1      4
 ---------------------------------------------------------------------------------
 (3) ___lwdiv                                              7     3      4     618
                                              5 COMRAM     7     3      4
                            ___lwmod (ARG)
 ---------------------------------------------------------------------------------
 (2) __tdiv_to_l_                                         17     9      8     455
                                              0 COMRAM    17     9      8
 ---------------------------------------------------------------------------------
 (2) __div_to_l_                                          14     6      8     455
                                              0 COMRAM    14     6      8
 ---------------------------------------------------------------------------------
 (2) ___llmod                                              9     1      8     767
                                             13 COMRAM     9     1      8
                            ___lldiv (ARG)
 ---------------------------------------------------------------------------------
 (2) ___lldiv                                             13     5      8     770
                                              0 COMRAM    13     5      8
 ---------------------------------------------------------------------------------
 (2) ___fltol                                             10     6      4     457
                                             48 COMRAM    10     6      4
                            ___flmul (ARG)
                              _scale (ARG)
 ---------------------------------------------------------------------------------
 (2) ___flsub                                              8     0      8    3041
                                             68 COMRAM     8     0      8
                            ___fladd
                           ___xxtofl (ARG)
 ---------------------------------------------------------------------------------
 (3) ___fladd                                             16     8      8    2566
                                             52 COMRAM    16     8      8
                             _fround (ARG)
 ---------------------------------------------------------------------------------
 (1) _atoi                                                 7     5      2     835
                                              6 COMRAM     7     5      2
                             ___wmul
                            _isdigit
 ---------------------------------------------------------------------------------
 (2) ___wmul                                               6     2      4     463
                                              0 COMRAM     6     2      4
 ---------------------------------------------------------------------------------
 (1) _atof                                                 4     0      4   10981
                                             51 COMRAM     4     0      4
                             _strtod
 ---------------------------------------------------------------------------------
 (2) _strtod                                              12     8      4   10883
                                             39 COMRAM    12     8      4
                            ___fldiv
                             ___fleq
                             ___flge
                            ___flmul
                            ___flneg
                             ___lmul
                           ___xxtofl
                            _isdigit
                            _isspace
 ---------------------------------------------------------------------------------
 (3) _isspace                                              3     3      0      90
                                              0 COMRAM     3     3      0
 ---------------------------------------------------------------------------------
 (2) _isdigit                                              3     3      0      68
                                              0 COMRAM     3     3      0
 ---------------------------------------------------------------------------------
 (2) ___xxtofl                                            14    10      4     702
                                              0 COMRAM    14    10      4
 ---------------------------------------------------------------------------------
 (3) ___lmul                                              12     4      8     370
                                              0 COMRAM    12     4      8
 ---------------------------------------------------------------------------------
 (2) ___flneg                                              4     0      4     197
                                              0 COMRAM     4     0      4
 ---------------------------------------------------------------------------------
 (3) ___flmul                                             25    17      8    4176
                                             14 COMRAM    25    17      8
                            ___awdiv (ARG)
                            ___awmod (ARG)
                            ___lwdiv (ARG)
                            ___lwmod (ARG)
 ---------------------------------------------------------------------------------
 (2) ___flge                                              12     4      8     942
                                              0 COMRAM    12     4      8
 ---------------------------------------------------------------------------------
 (2) ___fleq                                              12     4      8     950
                                              0 COMRAM    12     4      8
 ---------------------------------------------------------------------------------
 (3) ___fldiv                                             25    17      8    2007
                                             14 COMRAM    25    17      8
                           ___xxtofl (ARG)
 ---------------------------------------------------------------------------------
 (1) _SYSTEM_Initialize                                    0     0      0     294
              _OSCILLATOR_Initialize
             _PIN_MANAGER_Initialize
                     _PMD_Initialize
                    _PWM5_Initialize
                    _SMT1_Initialize
                    _TMR2_Initialize
                   _UART2_Initialize
 ---------------------------------------------------------------------------------
 (2) _UART2_Initialize                                     0     0      0     294
              _UART2_SetErrorHandler
       _UART2_SetFramingErrorHandler
       _UART2_SetOverrunErrorHandler
 ---------------------------------------------------------------------------------
 (3) _UART2_SetOverrunErrorHandler                         2     0      2      98
                                              0 COMRAM     2     0      2
 ---------------------------------------------------------------------------------
 (3) _UART2_SetFramingErrorHandler                         2     0      2      98
                                              0 COMRAM     2     0      2
 ---------------------------------------------------------------------------------
 (3) _UART2_SetErrorHandler                                2     0      2      98
                                              0 COMRAM     2     0      2
 ---------------------------------------------------------------------------------
 (2) _TMR2_Initialize                                      0     0      0       0
 ---------------------------------------------------------------------------------
 (2) _SMT1_Initialize                                      0     0      0       0
 ---------------------------------------------------------------------------------
 (2) _PWM5_Initialize                                      0     0      0       0
 ---------------------------------------------------------------------------------
 (2) _PMD_Initialize                                       0     0      0       0
 ---------------------------------------------------------------------------------
 (2) _PIN_MANAGER_Initialize                               0     0      0       0
 ---------------------------------------------------------------------------------
 (2) _OSCILLATOR_Initialize                                0     0      0       0
 ---------------------------------------------------------------------------------
 (1) _SMT1_RepeatDataAcquisition                           0     0      0       0
 ---------------------------------------------------------------------------------
 (1) _SMT1_ManualTimerReset                                0     0      0       0
 ---------------------------------------------------------------------------------
 (1) _SMT1_GetCapturedPeriod                               4     0      4       0
                                              0 COMRAM     4     0      4
 ---------------------------------------------------------------------------------
 (1) _SMT1_DataAcquisitionEnable                           0     0      0       0
 ---------------------------------------------------------------------------------
 (1) _ReadNUART2                                          12     8      4     529
                                              0 COMRAM    10     6      4
                         _UART2_Read
                  _UART2_is_rx_ready
 ---------------------------------------------------------------------------------
 (2) _UART2_is_rx_ready                                    0     0      0       0
 ---------------------------------------------------------------------------------
 (2) _UART2_Read                                           0     0      0       0
                   Absolute function *
          _UART2_DefaultErrorHandler *
   _UART2_DefaultFramingErrorHandler *
   _UART2_DefaultOverrunErrorHandler *
 ---------------------------------------------------------------------------------
 (3) _UART2_DefaultOverrunErrorHandler                     0     0      0       0
 ---------------------------------------------------------------------------------
 (3) _UART2_DefaultFramingErrorHandler                     0     0      0       0
 ---------------------------------------------------------------------------------
 (3) _UART2_DefaultErrorHandler                            0     0      0       0
 ---------------------------------------------------------------------------------
 (3) Absolute function(Fake)                               0     0      0       0
 ---------------------------------------------------------------------------------
 Estimated maximum stack depth 3
 ---------------------------------------------------------------------------------

 Call Graph Graphs:

 _main (ROOT)
   _ReadNUART2
     _UART2_Read
       Absolute function(Fake) *
       _UART2_DefaultErrorHandler *
       _UART2_DefaultFramingErrorHandler *
       _UART2_DefaultOverrunErrorHandler *
     _UART2_is_rx_ready
   _SMT1_DataAcquisitionEnable
   _SMT1_GetCapturedPeriod
   _SMT1_ManualTimerReset
   _SMT1_RepeatDataAcquisition
   _SYSTEM_Initialize
     _OSCILLATOR_Initialize
     _PIN_MANAGER_Initialize
     _PMD_Initialize
     _PWM5_Initialize
     _SMT1_Initialize
     _TMR2_Initialize
     _UART2_Initialize
       _UART2_SetErrorHandler
       _UART2_SetFramingErrorHandler
       _UART2_SetOverrunErrorHandler
   ___fladd
     _fround (ARG)
       ___flmul
         ___awdiv (ARG)
           ___awmod (ARG)
         ___awmod (ARG)
         ___lwdiv (ARG)
           ___lwmod (ARG)
         ___lwmod (ARG)
       ___lwdiv
         ___lwmod (ARG)
       ___lwmod
   ___fldiv
     ___xxtofl (ARG)
   ___fleq
   ___flmul
     ___awdiv (ARG)
       ___awmod (ARG)
     ___awmod (ARG)
     ___lwdiv (ARG)
       ___lwmod (ARG)
     ___lwmod (ARG)
   ___flsub
     ___fladd
       _fround (ARG)
         ___flmul
           ___awdiv (ARG)
             ___awmod (ARG)
           ___awmod (ARG)
           ___lwdiv (ARG)
             ___lwmod (ARG)
           ___lwmod (ARG)
         ___lwdiv
           ___lwmod (ARG)
         ___lwmod
     ___xxtofl (ARG)
   ___lldiv
   ___xxtofl
   _atof
     _strtod
       ___fldiv
         ___xxtofl (ARG)
       ___fleq
       ___flge
       ___flmul
         ___awdiv (ARG)
           ___awmod (ARG)
         ___awmod (ARG)
         ___lwdiv (ARG)
           ___lwmod (ARG)
         ___lwmod (ARG)
       ___flneg
       ___lmul
       ___xxtofl
       _isdigit
       _isspace
   _atoi
     ___wmul
     _isdigit
   _clearPuTTY
     _printf
       ___awdiv
         ___awmod (ARG)
       ___fladd
         _fround (ARG)
           ___flmul
             ___awdiv (ARG)
               ___awmod (ARG)
             ___awmod (ARG)
             ___lwdiv (ARG)
               ___lwmod (ARG)
             ___lwmod (ARG)
           ___lwdiv
             ___lwmod (ARG)
           ___lwmod
       ___fleq
       ___flge
       ___flmul
         ___awdiv (ARG)
           ___awmod (ARG)
         ___awmod (ARG)
         ___lwdiv (ARG)
           ___lwmod (ARG)
         ___lwmod (ARG)
       ___flneg
       ___flsub
         ___fladd
           _fround (ARG)
             ___flmul
               ___awdiv (ARG)
                 ___awmod (ARG)
               ___awmod (ARG)
               ___lwdiv (ARG)
                 ___lwmod (ARG)
               ___lwmod (ARG)
             ___lwdiv
               ___lwmod (ARG)
             ___lwmod
         ___xxtofl (ARG)
       ___fltol
         ___flmul (ARG)
           ___awdiv (ARG)
             ___awmod (ARG)
           ___awmod (ARG)
           ___lwdiv (ARG)
             ___lwmod (ARG)
           ___lwmod (ARG)
         _scale (ARG)
           ___awdiv
             ___awmod (ARG)
           ___awmod
           ___flmul
             ___awdiv (ARG)
               ___awmod (ARG)
             ___awmod (ARG)
             ___lwdiv (ARG)
               ___lwmod (ARG)
             ___lwmod (ARG)
       ___lldiv
       ___llmod
         ___lldiv (ARG)
       ___wmul
       ___xxtofl
       __div_to_l_
       __tdiv_to_l_
       _fround
         ___flmul
           ___awdiv (ARG)
             ___awmod (ARG)
           ___awmod (ARG)
           ___lwdiv (ARG)
             ___lwmod (ARG)
           ___lwmod (ARG)
         ___lwdiv
           ___lwmod (ARG)
         ___lwmod
       _putch
         _UART2_Write
       _scale
         ___awdiv
           ___awmod (ARG)
         ___awmod
         ___flmul
           ___awdiv (ARG)
             ___awmod (ARG)
           ___awmod (ARG)
           ___lwdiv (ARG)
             ___lwmod (ARG)
           ___lwmod (ARG)
   _printf
     ___awdiv
       ___awmod (ARG)
     ___fladd
       _fround (ARG)
         ___flmul
           ___awdiv (ARG)
             ___awmod (ARG)
           ___awmod (ARG)
           ___lwdiv (ARG)
             ___lwmod (ARG)
           ___lwmod (ARG)
         ___lwdiv
           ___lwmod (ARG)
         ___lwmod
     ___fleq
     ___flge
     ___flmul
       ___awdiv (ARG)
         ___awmod (ARG)
       ___awmod (ARG)
       ___lwdiv (ARG)
         ___lwmod (ARG)
       ___lwmod (ARG)
     ___flneg
     ___flsub
       ___fladd
         _fround (ARG)
           ___flmul
             ___awdiv (ARG)
               ___awmod (ARG)
             ___awmod (ARG)
             ___lwdiv (ARG)
               ___lwmod (ARG)
             ___lwmod (ARG)
           ___lwdiv
             ___lwmod (ARG)
           ___lwmod
       ___xxtofl (ARG)
     ___fltol
       ___flmul (ARG)
         ___awdiv (ARG)
           ___awmod (ARG)
         ___awmod (ARG)
         ___lwdiv (ARG)
           ___lwmod (ARG)
         ___lwmod (ARG)
       _scale (ARG)
         ___awdiv
           ___awmod (ARG)
         ___awmod
         ___flmul
           ___awdiv (ARG)
             ___awmod (ARG)
           ___awmod (ARG)
           ___lwdiv (ARG)
             ___lwmod (ARG)
           ___lwmod (ARG)
     ___lldiv
     ___llmod
       ___lldiv (ARG)
     ___wmul
     ___xxtofl
     __div_to_l_
     __tdiv_to_l_
     _fround
       ___flmul
         ___awdiv (ARG)
           ___awmod (ARG)
         ___awmod (ARG)
         ___lwdiv (ARG)
           ___lwmod (ARG)
         ___lwmod (ARG)
       ___lwdiv
         ___lwmod (ARG)
       ___lwmod
     _putch
       _UART2_Write
     _scale
       ___awdiv
         ___awmod (ARG)
       ___awmod
       ___flmul
         ___awdiv (ARG)
           ___awmod (ARG)
         ___awmod (ARG)
         ___lwdiv (ARG)
           ___lwmod (ARG)
         ___lwmod (ARG)

 Address spaces:
Name               Size   Autos  Total    Cost      Usage
BIGRAM             FFF      0       0      37        0.0%
EEDATA             400      0       0       0        0.0%
BITBANK15          100      0       0      30        0.0%
BANK15             100      0       0      31        0.0%
BITBANK14          100      0       0      28        0.0%
BANK14             100      0       0      29        0.0%
BITBANK13          100      0       0      36        0.0%
BANK13             100      0       0      27        0.0%
BITBANK12          100      0       0      35        0.0%
BANK12             100      0       0      26        0.0%
BITBANK11          100      0       0      34        0.0%
BANK11             100      0       0      25        0.0%
BITBANK10          100      0       0      33        0.0%
BANK10             100      0       0      24        0.0%
BITBANK9           100      0       0      22        0.0%
BANK9              100      0       0      23        0.0%
BITBANK8           100      0       0      20        0.0%
BANK8              100      0       0      21        0.0%
BITBANK7           100      0       0      18        0.0%
BANK7              100      0       0      19        0.0%
BITBANK6           100      0       0      16        0.0%
BANK6              100      0       0      17        0.0%
BITBANK5           100      0       0      14        0.0%
BANK5              100      0       0      15        0.0%
BITBANK4           100      0       0      12        0.0%
BANK4              100      0       0      13        0.0%
BITBANK3           100      0       0      10        0.0%
BANK3              100      0       0      11        0.0%
BITBANK2           100      0       0       8        0.0%
BANK2              100      0       0       9        0.0%
BITBANK1           100      0       0       6        0.0%
BANK1              100     D3      DB       7       85.5%
BITBANK0            A0      0       0       4        0.0%
BANK0               A0     A0      A0       5      100.0%
BITCOMRAM           5F      0       0       0        0.0%
COMRAM              5F     5E      5F       1      100.0%
BITSFR_8             0      0       0     200        0.0%
SFR_8                0      0       0     200        0.0%
BITSFR_7             0      0       0     200        0.0%
SFR_7                0      0       0     200        0.0%
BITSFR_6             0      0       0     200        0.0%
SFR_6                0      0       0     200        0.0%
BITSFR_5             0      0       0     200        0.0%
SFR_5                0      0       0     200        0.0%
BITSFR_4             0      0       0     200        0.0%
SFR_4                0      0       0     200        0.0%
BITSFR_3             0      0       0     200        0.0%
SFR_3                0      0       0     200        0.0%
BITSFR_2             0      0       0     200        0.0%
SFR_2                0      0       0     200        0.0%
BITSFR_1             0      0       0     200        0.0%
SFR_1                0      0       0     200        0.0%
BITSFR               0      0       0     200        0.0%
SFR                  0      0       0     200        0.0%
STACK                0      0       0       2        0.0%
NULL                 0      0       0       0        0.0%
ABS                  0      0     1DA      32        0.0%
DATA                 0      0     1DA       3        0.0%
CODE                 0      0       0       0        0.0%


Microchip Technology PIC18 Macro Assembler V2.30 build 20200825195618 
Symbol Table                                                                                   Tue Dec 15 18:08:27 2020

                                ___fldiv@aexp 0027                                  ___fldiv@bexp 0026  
                   __end_of_UART2_is_rx_ready BCDA                                  ___fldiv@sign 001F  
                                          l51 BD90                                            l45 BD46  
                                          l54 BD6A                                            l48 BD82  
                                ___awdiv@sign 000C                           ___wmul@multiplicand 0003  
                                         l212 BCD8                                           l300 BC68  
                                         l232 C244                                           l209 BF5A  
                                         l250 BC62                                           l226 C1AA  
                                         l235 BCF4                                           l244 BC9C  
                                         l253 BC5E                                           l149 C390  
                                         l342 BCAE                                           l318 BC74  
                                         l262 BC7E                                           l238 BD0A  
                                         l247 BC60                                           l327 BC6E  
                                         l423 BCF0                                           l256 BC88  
                                         l600 F01E                                           l259 BC92  
                                         l372 BD28                                           l552 C120  
                                         l297 BDE0                                           l650 BE0A  
                                         l490 F380                                           l547 C5AA  
                                         l491 F384                                           l572 D0F4  
                                         l628 EE68                                           l661 C018  
                                         l662 C028                                           l647 F1E4  
                                         l904 CAF4                                           l913 CAE4  
                                         l922 C43A                                           l579 DD90  
                                         l684 C2E8                                           l933 BE74  
                                         l677 C2D8                                           l928 C72C  
                                         l929 C772                                           l881 C66E  
                                         l956 C878                                           l894 C4EA  
                                         _PR2 003FAB                       __size_of_PMD_Initialize 0024  
                                ___awmod@sign 0006                               _TMR2_Initialize BD0C  
                                 main@accavg1 01B8                                           tosl 003FFD  
                                         wreg 003FE8                                  ___flmul@aexp 0020  
                                ___flmul@bexp 0021                                  ___flmul@sign 001B  
                                ___flmul@temp 0026                                  ___flmul@prod 0022  
                                ___fltol@exp1 003A                                          l1013 CC4A  
                                        l1022 CC3A                                          l1015 CB90  
                                        l1200 DF80                                          l1016 CBC2  
                                        l1201 DF6E                                          l1202 DF34  
                                        l1303 D89E                                          l1217 E09A  
                                        l1209 E250                                          l1330 CDFE  
                                        l1226 E16A                                          l1242 BEFE  
                                        l1170 C09C                                          l1227 E158  
                                        l1163 C094                                          l1404 BDB6  
                                        l1092 C198                                          l1180 BFBE  
                                        l1341 CD96                                          l1173 BFB6  
                                        l1254 D48E                                          l1334 CD3A  
                                        l1327 CCA2                                          l1256 D2EE  
                                        l1424 BE3C                                          l1265 D334  
                                        l4001 C2B6                                          l1290 D8DC  
                                        l1362 E3D0                                          l1418 C9A0  
                                        l1267 D3AC                                          l1259 D2B2  
                                        l4011 D102                                          l1363 E376  
                                        l1419 C9A8                                          l4003 C2C6  
                                        l1099 C1A8                                          l1268 D39A  
                                        l1364 E3E0                                          l4101 D332  
                                        l4021 D142                                          l4013 D110  
                                        l1293 D76E                                          l1429 BEB8  
                                        l1381 E864                                          l4005 C2C8  
                                        l1286 D554                                          l4111 D392  
                                        l4103 D344                                          l4031 D168  
                                        l4023 D144                                          l4015 D112  
                                        l1295 D7E6                                          l1391 E822  
                                        l4007 C2D2                                          l1296 D7D4  
                                        l4121 D400                                          l4105 D352  
                                        l4041 D1A8                                          l4033 D176  
                                        l4017 D122                                          l4025 D14C  
                                        l4009 D0F6                                          l3401 DEAE  
                                        l4201 C78A                                          l4131 D46A  
                                        l4115 D3BC                                          l4123 D404  
                                        l4107 D356                                          l4051 D1E8  
                                        l4043 D1AA                                          l4035 D178  
                                        l4027 D15C                                          l4019 D132  
                                        l3411 DEC2                                          l3403 DEB2  
                                        l4211 C7DA                                          l4133 D46E  
                                        l4125 D41E                                          l4117 D3C8  
                                        l4109 D364                                          l4061 D218  
                                        l4053 D1F0                                          l4037 D188  
                                        l4045 D1B2                                          l4029 D162  
                                        l4301 CDEE                                          l3501 E128  
                                        l3421 DED6                                          l3413 DEC6  
                                        l3405 DEB6                                          l3341 DD92  
                                        l4221 C804                                          l4213 C7DE  
                                        l4205 C79E                                          l4135 D47C  
                                        l4127 D434                                          l4119 D3D6  
                                        l4071 D256                                          l4063 D218  
                                        l4055 D1F4                                          l4047 D1C2  
                                        l4039 D198                                          l4311 BE9E  
                                        l3511 E17A                                          l3503 E12C  
                                        l3431 DF4E                                          l3423 DF00  
                                        l3415 DECA                                          l3407 DEBA  
                                        l3351 DDCE                                          l3343 DD9E  
                                        l4231 C82C                                          l4223 C80E  
                                        l4215 C7EC                                          l4207 C7C8  
                                        l4401 C240                                          l4137 D482  
                                        l4129 D44E                                          l4081 D2A2  
                                        l4073 D266                                          l4049 D1D8  
                                        l4161 C40E                                          l4153 C392  
                                        l3601 D61A                                          l4321 BE12  
                                        l4313 BEAE                                          l4305 BE78  
                                        l3521 E1E0                                          l3513 E186  
                                        l3505 E13A                                          l3441 DF8E  
                                        l3433 DF52                                          l3425 DF1C  
                                        l3417 DECE                                          l3409 DEBE  
                                        l3361 DDFE                                          l3353 DDDE  
                                        l3345 DDAC                                          l4233 C838  
                                        l4225 C818                                          l4209 C7CA  
                                        l3337 BCF4                                          l4331 BD48  
                                        l4139 D484                                          l4091 D2EC  
                                        l4083 D2B0                                          l4075 D276  
                                        l4067 D22C                                          l4059 D208  
                                        l4163 C432                                          l4155 C3C0  
                                        l4171 C69E                                          l3611 D678  
                                        l3603 D62A                                          l4323 BE22  
                                        l4315 BEB2                                          l4307 BE7C  
                                        l3531 E228                                          l3523 E1F0  
                                        l3515 E194                                          l3507 E150  
                                        l3451 DFD0                                          l3443 DF9E  
                                        l3435 DF60                                          l3427 DF2C  
                                        l3419 DED2                                          l3371 DE28  
                                        l3363 DE10                                          l3355 DDE0  
                                        l3347 DDAE                                          l4147 BEBA  
                                        l4235 C848                                          l4251 C15A  
                                        l4243 C122                                          l3339 BD04  
                                        l4411 E890                                          l4341 C366  
                                        l4333 C2EA                                          l4093 D2FE  
                                        l4085 D2BC                                          l4077 D27E  
                                        l4069 D246                                          l4165 C438  
                                        l4157 C3D0                                          l4181 C70C  
                                        l4173 C6AE                                          l3621 D728  
                                        l3613 D698                                          l3605 D63A  
                                        l4261 CC5E                                          l4325 BE32  
                                        l4309 BE8E                                          l3533 E22A  
                                        l3525 E210                                          l3517 E1CE  
                                        l3461 DFFE                                          l3453 DFDE  
                                        l3437 DF62                                          l3429 DF42  
                                        l3373 DE38                                          l3381 DE62  
                                        l3365 DE12                                          l3349 DDBE  
                                        l3357 DDE8                                          l4149 BECA  
                                        l4237 C858                                          l4253 C178  
                                        l4245 C138                                          l3701 C638  
                                        l4501 ECEC                                          l4421 E8C0  
                                        l4413 E89C                                          l4405 E866  
                                        l4351 C374                                          l4343 C368  
                                        l4335 C30A                                          l4095 D314  
                                        l4087 D2DA                                          l4079 D28E  
                                        l4159 C3FE                                          l4183 C71A  
                                        l4175 C6DC                                          l3631 D77E  
                                        l3623 D736                                          l3615 D6A8  
                                        l3607 D64A                                          l3551 D4BC  
                                        l3543 D490                                          l4191 BE3E  
                                        l4271 CCDC                                          l4263 CC6C  
                                        l4327 BE36                                          l4319 BE0E  
                                        l3535 E230                                          l3527 E214  
                                        l3519 E1D0                                          l3471 E06A  
                                        l3463 E008                                          l3455 DFEA  
                                        l3447 DFB2                                          l3439 DF6C  
                                        l3391 DE9A                                          l3383 DE72  
                                        l3375 DE48                                          l3367 DE18  
                                        l3359 DDF8                                          l4239 C868  
                                        l4255 C188                                          l4247 C140  
                                        l3711 C65E                                          l3703 C640  
                                        l4511 ED30                                          l4431 E92C  
                                        l4423 E8CA                                          l4415 E8A2  
                                        l4407 E874                                          l4353 C376  
                                        l4345 C36A                                          l4337 C322  
                                        l4361 BD0C                                          l4097 D31A  
                                        l4089 D2DC                                          l4185 C76A  
                                        l4177 C6EC                                          l4169 C670  
                                        l3633 D78C                                          l3625 D754  
                                        l3617 D6C8                                          l3609 D668  
                                        l3561 D4F8                                          l3553 D4CC  
                                        l3545 D49C                                          l4193 BE54  
                                        l4281 CD30                                          l4273 CCE4  
                                        l4265 CCB2                                          l4601 E280  
                                        l3537 E23E                                          l3529 E222  
                                        l3473 E07A                                          l3457 DFEE  
                                        l3449 DFC2                                          l3465 E00E  
                                        l3393 DE9E                                          l3385 DE84  
                                        l3377 DE58                                          l3369 DE26  
                                        l4257 C192                                          l4249 C14C  
                                        l3801 CE12                                          l3713 C666  
                                        l3705 C642                                          l3721 C44E  
                                        l4521 EDC6                                          l4513 ED32  
                                        l4441 E992                                          l4433 E934  
                                        l4417 E8A8                                          l4409 E886  
                                        l4355 BD6C                                          l4347 C370  
                                        l4339 C364                                          l4363 BD20  
                                        l4371 BF3E                                          l4099 D324  
                                        l4187 C770                                          l4179 C6FA  
                                        l3643 D7F6                                          l3651 D83E  
                                        l3635 D790                                          l3627 D75E  
                                        l3619 D6F2                                          l3571 D52E  
                                        l3563 D4FE                                          l3555 D4DC  
                                        l3547 D4AA                                          l4195 BE64  
                                        l4291 CDA6                                          l4283 CD6C  
                                        l4275 CCF0                                          l4267 CCC8  
                                        l4259 CC4E                                          l4611 E2C2  
                                        l4603 E284                                          l3539 E240  
                                        l3491 E0FC                                          l3483 E0D4  
                                        l3467 E034                                          l3475 E08A  
                                        l3459 DFFC                                          l3395 DEA2  
                                        l3387 DE92                                          l3379 DE5A  
                                        l3707 C648                                          l3731 C482  
                                        l3723 C456                                          l4531 EE2A  
                                        l4523 EDFA                                          l4515 ED44  
                                        l4507 ECF0                                          l4451 E9E8  
                                        l4443 E998                                          l4435 E958  
                                        l4419 E8B8                                          l4427 E8D2  
                                        l4381 C1AA                                          l4349 C372  
                                        l4365 BCDA                                          l4357 BDB8  
                                        l4373 BF4A                                          l3661 D8B2  
                                        l3653 D858                                          l3645 D802  
                                        l3637 D79E                                          l3629 D76C  
                                        l3573 D53E                                          l3565 D50C  
                                        l3557 D4E2                                          l3549 D4AC  
                                        l4293 CDAA                                          l4285 CD78  
                                        l4277 CD22                                          l4701 E5FE  
                                        l4621 E2F4                                          l4613 E2CA  
                                        l4605 E2A8                                          l3493 E104  
                                        l3485 E0DE                                          l3477 E0B0  
                                        l3469 E068                                          l3397 DEA6  
                                        l3389 DE96                                          l3901 CC0A  
                                        l3813 D09A                                          l3709 C64E  
                                        l3741 C4BE                                          l3733 C48A  
                                        l3725 C45A                                          l3717 C43C  
                                        l3821 D904                                          l4541 EE84  
                                        l4533 EE44                                          l4517 ED62  
                                        l4525 EE04                                          l4461 EA4E  
                                        l4453 EA04                                          l4445 E9A0  
                                        l4437 E960                                          l4429 E91A  
                                        l4391 C1EA                                          l4383 C1BA  
                                        l4359 BDDE                                          l4375 BF56  
                                        l4367 BF00                                          l3663 D8C0  
                                        l3655 D86C                                          l3647 D810  
                                        l3639 D7CC                                          l3591 D5C8  
                                        l3583 D588                                          l3575 D544  
                                        l3567 D50E                                          l3559 D4F2  
                                        l4295 CDCE                                          l4287 CD86  
                                        l4279 CD24                                          l4711 E662  
                                        l4703 E60C                                          l4623 E2F8  
                                        l4607 E2AC                                          l3495 E108  
                                        l3487 E0EC                                          l3479 E0C0  
                                        l3399 DEAA                                          l4199 C774  
                                        l3911 C9AA                                          l3807 CF96  
                                        l3743 C4C4                                          l3735 C492  
                                        l3727 C468                                          l3719 C440  
                                        l4551 EF7C                                          l4543 EE8A  
                                        l4535 EE60                                          l4527 EE1C  
                                        l4519 ED6C                                          l4463 EA82  
                                        l4455 EA20                                          l4447 E9D2  
                                        l4471 EAF8                                          l4439 E96E  
                                        l4393 C1FA                                          l4385 C1BE  
                                        l4377 BCC4                                          l4801 C58E  
                                        l4369 BF32                                          l3665 D8C2  
                                        l3657 D886                                          l3649 D83A  
                                        l3593 D5E4                                          l3585 D598  
                                        l3577 D564                                          l3569 D51E  
                                        l4297 CDDE                                          l4289 CDA4  
                                        l4721 E6E8                                          l4713 E696  
                                        l4705 E612                                          l4641 E378  
                                        l4633 E352                                          l4625 E306  
                                        l4617 E2E0                                          l4609 E2BE  
                                        l3497 E118                                          l3489 E0EE  
                                        l3913 C9C0                                          l3761 C054  
                                        l3753 C02A                                          l3809 CFA6  
                                        l3681 C5CA                                          l3673 C5AC  
                                        l3737 C4A0                                          l3745 C4CA  
                                        l3729 C470                                          l3833 DB08  
                                        l3817 D8E0                                          l4561 F02C  
                                        l4553 EFE2                                          l4545 EEA2  
                                        l4537 EE6C                                          l4529 EE22  
                                        l4481 EBAC                                          l4473 EAF8  
                                        l4465 EAB4                                          l4457 EA30  
                                        l4449 E9E2                                          l4395 C1FC  
                                        l4387 C1CE                                          l3659 D8A2  
                                        l3667 D8C8                                          l3595 D5F0  
                                        l3587 D5A2                                          l3579 D574  
                                        l4299 CDEC                                          l4715 E698  
                                        l4707 E646                                          l4651 E40A  
                                        l4643 E3AC                                          l4635 E354  
                                        l4627 E324                                          l4619 E2E4  
                                        l4811 C8BE                                          l4803 C87A  
                                        l3499 E11A                                          l3931 CA22  
                                        l3923 C9EE                                          l3907 CC1E  
                                        l3771 C088                                          l3763 C062  
                                        l3755 C032                                          l3691 C5FE  
                                        l3683 C5D8                                          l3675 C5B0  
                                        l3747 C4DA                                          l3739 C4B6  
                                        l3851 DD5A                                          l3827 DA40  
                                        l3819 D8EE                                          l4563 F050  
                                        l4555 EFFA                                          l4547 EEEE  
                                        l4539 EE74                                          l4491 EC2A  
                                        l4483 EBCA                                          l4475 EB32  
                                        l4467 EAC0                                          l4459 EA36  
                                        l4397 C216                                          l4389 C1D0  
                                        l3669 D8CC                                          l3597 D5FC  
                                        l3589 D5BC                                          l4741 E7A8  
                                        l4733 E728                                          l4725 E6FC  
                                        l4717 E6A8                                          l4709 E64A  
                                        l4653 E428                                          l4645 E3DE  
                                        l4637 E366                                          l4629 E32E  
                                        l4821 C918                                          l4813 C8CA  
                                        l4805 C87E                                          l3941 CA58  
                                        l3933 CA26                                          l3925 C9F0  
                                        l3917 C9D4                                          l3909 CC2A  
                                        l3861 CB2E                                          l3773 C08E  
                                        l3765 C068                                          l3757 C044  
                                        l3781 BF7E                                          l3693 C606  
                                        l3685 C5E0                                          l3677 C5BE  
                                        l3749 C4E2                                          l3845 DC92  
                                        l3829 DA54                                          l3837 DB42  
                                        l4581 F0CE                                          l4565 F05C  
                                        l4557 F000                                          l4549 EF48  
                                        l4485 EBFC                                          l4477 EB50  
                                        l4469 EAF2                                          l4901 F30C  
                                        l4399 C226                                          l3791 BC80  
                                        l3599 D60A                                          l4743 E7AA  
                                        l4735 E75C                                          l4719 E6DA  
                                        l4671 E4CA                                          l4663 E476  
                                        l4655 E44A                                          l4639 E374  
                                        l4647 E3E8                                          l4831 BD92  
                                        l4815 C8E8                                          l4807 C882  
                                        l3951 CA88                                          l3943 CA68  
                                        l3935 CA2C                                          l3927 CA00  
                                        l3871 CB66                                          l3855 CAF6  
                                        l3767 C07E                                          l3759 C04C  
                                        l3783 BF8C                                          l3775 BF5C  
                                        l3695 C60E                                          l3687 C5E4  
                                        l3679 C5C6                                          l3847 DCA6  
                                        l3839 DB56                                          l4591 F196  
                                        l4583 F0E0                                          l4575 F08C  
                                        l4567 F080                                          l4559 F008  
                                        l4495 EC5E                                          l4487 EC0A  
                                        l4479 EB82                                          l4911 F392  
                                        l4903 F31E                                          l3793 BC8A  
                                        l4753 E80E                                          l4745 E7BA  
                                        l4737 E760                                          l4729 E710  
                                        l4673 E4EA                                          l4681 E546  
                                        l4665 E494                                          l4657 E454  
                                        l4649 E3EC                                          l4825 C954  
                                        l4817 C8F2                                          l4809 C8A0  
                                        l3961 CAB4                                          l3945 CA6A  
                                        l3937 CA30                                          l3929 CA12  
                                        l3881 CB9A                                          l3873 CB72  
                                        l3857 CB1A                                          l3769 C086  
                                        l3785 BFA2                                          l3777 BF6E  
                                        l3697 C61C                                          l3689 C5EC  
                                        l4593 F19C                                          l4585 F0FE  
                                        l4569 F088                                          l4489 EC14  
                                        l4497 EC74                                          l4921 F49A  
                                        l4913 F3D4                                          l4905 F36E  
                                        l4841 F1EA                                          l4771 BC6A  
                                        l3795 BC76                                          l4763 BD2A  
                                        l4747 E7EC                                          l4739 E774  
                                        l4691 E57A                                          l4683 E554  
                                        l4675 E506                                          l4667 E4B4  
                                        l4659 E472                                          l3971 BDE2  
                                        l4827 C974                                          l4819 C910  
                                        l3947 CA74                                          l3939 CA3A  
                                        l3891 CBDE                                          l3883 CBB4  
                                        l3875 CB82                                          l3867 CB56  
                                        l3787 BFAA                                          l3779 BF76  
                                        l3699 C622                                          l4587 F104  
                                        l4579 F0CC                                          l4499 ECE2  
                                        l4595 F1B8                                          l4931 F71C  
                                        l4923 F4A0                                          l4915 F3DA  
                                        l4907 F370                                          l4851 F1EA  
                                        l4843 F1EA                                          l4781 C4F4  
                                        l4773 BC9E                                          l4765 BD42  
                                        l3981 BFDE                                          l4757 E830  
                                        l4749 E7FA                                          l4693 E592  
                                        l4677 E50A                                          l4669 E4C6  
                                        l4685 E556                                          l4597 E252  
                                        l3973 BE02                                          l4829 C984  
                                        l3957 CAA0                                          l3949 CA7A  
                                        l3885 CBC0                                          l3877 CB86  
                                        l3869 CB58                                          l3789 BFB0  
                                        l3797 BC96                                          l4589 F110  
                                        l4941 F8FA                                          l4933 F722  
                                        l4925 F4C4                                          l4917 F3FE  
                                        l4909 F372                                          l4861 F1EA  
                                        l4853 F1EA                                          l4845 F1EA  
                                        l4791 C542                                          l4783 C508  
                                        l4767 BC64                                          l3983 BFEE  
                                        l4759 E854                                          l4695 E5B8  
                                        l4687 E55A                                          l4679 E52A  
                                        l4599 E264                                          l3991 C26C  
                                        l3967 CAC8                                          l3959 CAAA  
                                        l3887 CBCA                                          l3879 CB8C  
                                        l3799 CE02                                          l4951 FA26  
                                        l4943 F9CA                                          l4935 F75E  
                                        l4927 F4D2                                          l4919 F40C  
                                        l4871 F21E                                          l4863 F1EA  
                                        l4855 F1EA                                          l4847 F1EA  
                                        l4839 F1E6                                          l4793 C54E  
                                        l4785 C514                                          l4769 BC70  
                                        l3985 BFF8                                          l3977 BFC0  
                                        l4697 E5EA                                          l4689 E56C  
                                        l3993 C274                                          l3969 CAD4  
                                        l3897 CBF6                                          l3889 CBD0  
                                        l4777 C09E                                          l4961 FC6E  
                                        l4953 FBD6                                          l4937 F76C  
                                        l4945 F9D0                                          l4929 F678  
                                        l4881 F22E                                          l4873 F222  
                                        l4865 F1EE                                          l4857 F1EA  
                                        l4849 F1EA                                          l4795 C560  
                                        l4787 C528                                          l4779 C4EC  
                                        l3979 BFD0                                          l3995 C280  
                                        l3987 C246                                          l3899 CC00  
                                        l4971 FD66                                          l4963 FC74  
                                        l4955 FBDC                                          l4947 FA0C  
                                        l4939 F82A                                          l4891 F28A  
                                        l4883 F240                                          l4875 F226  
                                        l4867 F1FC                                          l4859 F1EA  
                                        l4797 C564                                          l4789 C52E  
                                        l3997 C28E                                          l3989 C256  
                                        l4965 FCB0                                          l4957 FC00  
                                        l4949 FA18                                          l4893 F29C  
                                        l4885 F24E                                          l4877 F22A  
                                        l4869 F21A                                          l4799 C578  
                                        l3999 C298                                          l4967 FD14  
                                        l4959 FC0E                                          l4895 F2AA  
                                        l4887 F262                                          l4879 F22C  
                                        l4969 FD32                                          l4897 F2BE  
                                        l4889 F276                                          l4899 F2DA  
                                        STR_1 FF12                                          STR_2 FFD7  
                                        STR_3 FF75                                          STR_4 FFA8  
                                        STR_5 FE1D                                          STR_6 FE8D  
                                        STR_7 FF37                                          STR_8 FFC0  
                                        STR_9 FF8F                                          u3000 E1CE  
                                        u3001 E1CA                                          u3010 E1E0  
                                        u3011 E1DC                                          u3100 D51E  
                                        u3020 E1F0                                          u3101 D51A  
                                        u3021 E1EC                                          _LATA 003FBA  
                                        u3110 D52E                                          u3030 E210  
                                        _LATB 003FBB                                          u3111 D52A  
                                        u3031 E20C                                          _LATC 003FBC  
                                        u4000 C71A                                          u3200 D7F6  
                                        u3120 D564                                          u3040 E222  
                                        _LATD 003FBD                                          u4001 C716  
                                        u3201 D7F2                                          u3121 D560  
                                        u3041 E21E                                          _LATE 003FBE  
                                        u4010 C76A                                          u3210 D810  
                                        u3130 D574                                          u3050 E23E  
                                        u4011 C766                                          u3211 D80C  
                                        u3131 D570                                          u3051 E23A  
                                        u3220 D858                                          u3140 D712  
                                        u3060 D4AA                                          u4020 BE54  
                                        u4100 C138                                          u3300 C65E  
                                        u3221 D854                                          u3061 D4A6  
                                        u4021 BE50                                          u4101 C134  
                                        u3301 C65A                                          u3230 D886  
                                        u3150 D76C                                          u3070 D4BC  
                                        u4030 C78A                                          u4110 C15A  
                                        u3310 C44E                                          u3231 D882  
                                        u3151 D768                                          u3071 D4B8  
                                        u4031 C786                                          u4111 C156  
                                        u3311 C44A                                          u5000 C578  
                                        u3240 D8C0                                          u3160 D78C  
                                        u3080 D4CC                                          u4200 CDA4  
                                        u4040 C7BE                                          u4120 C178  
                                        u3400 BF6E                                          u3320 C468  
                                        u5001 C574                                          u3241 D8BC  
                                        u3161 D788                                          u3145 D708  
                                        u3081 D4C8                                          u4201 CDA0  
                                        u4121 C174                                          u3401 BF6A  
                                        u3321 C464                                          u5010 C58E  
                                        u3170 D79E                                          u3090 D50C  
                                        u4210 CDDE                                          u4130 CC5E  
                                        u4050 C7EC                                          u3410 BF8C  
                                        u3250 C5BE                                          u3330 C482  
                                        _T2PR 003FAB                                          u5011 C58A  
                                        u3171 D79A                                          u3091 D508  
                                        u4211 CDDA                                          u4131 CC5A  
                                        u4051 C7E8                                          u3411 BF88  
                                        u3251 C5BA                                          u3331 C47E  
                                        u4300 C1BA                                          u3180 D7CC  
                                        u4220 CDEC                                          u4140 CC6C  
                                        u5020 C8A0                                          u2700 DE10  
                                        u4060 C800                                          u3420 BFA2  
                                        u3260 C5D8                                          u3340 C4A0  
                                        u5100 F392                                          u4301 C1B6  
                                        u3181 D7C8                                          u4221 CDE8  
                                        u4141 CC68                                          u5021 C89C  
                                        u2701 DE0C                                          u4061 C7FC  
                                        u4045 C7B4                                          u3501 CB06  
                                        u3421 BF9E                                          u3261 C5D4  
                                        u3341 C49C                                          u5101 F38E  
                                        u4310 C1CE                                          u3190 D7E2  
                                        u4150 CCC8                                          u4230 BE8E  
                                        u5030 C8BE                                          u2710 DE26  
                                        u4070 C828                                          u3510 CB1A  
                                        u3430 CE12                                          u3270 C5FE  
                                        u3350 C4B6                                          u5110 F3FE  
                                        u4311 C1CA                                          u3191 D7DE  
                                        u4151 CCC4                                          u4231 BE8A  
                                        u5031 C8BA                                          u2711 DE22  
                                        u4071 C824                                          u3511 CB16  
                                        u3431 CE0E                                          u3271 C5FA  
                                        u3351 C4B2                                          u5111 F3FA  
                                        u4160 CD1E                                          u4240 BE9E  
                                        u5040 C8E8                                          u2800 DF60  
                                        u2720 DE38                                          u4080 C848  
                                        u3600 C9EA                                          u3440 CFA6  
                                        u3280 C61C                                          u3360 C4DA  
                                        u4400 E9D2                                          u5120 F4C4  
                                        u4161 CD1A                                          u4241 BE9A  
                                        u5041 C8E4                                          u2801 DF5C  
                                        u2721 DE34                                          u4081 C844  
                                        u3601 C9E6                                          u3521 CB3E  
                                        u3441 CFA2                                          u3281 C618  
                                        u3361 C4D6                                          u4401 E9CE  
                                        u5121 F4C0                                          u4330 C1FA  
                                        u4170 CD68                                          u4250 BEAE  
                                        u5050 C910                                          u2810 DF80  
                                        u2730 DE48                                          u4090 C858  
                                        u3610 CA58                                          u3530 CB52  
                                        u3370 C044                                          u3290 C638  
                                        u3450 D8EE                                          u4410 EA30  
                                        u5130 F75E                                          u4331 C1F6  
                                        u4171 CD64                                          u4251 BEAA  
                                        u5051 C90C                                          u2811 DF7C  
                                        u2731 DE44                                          u4091 C854  
                                        u3611 CA54                                          u3531 CB4E  
                                        u3371 C040                                          u3291 C634  
                                        u3451 D8EA                                          u4411 EA2C  
                                        u5131 F75A                                  printf@tmpval 008E  
                                        u4180 CD86                                          u4260 BE22  
                                        u5060 C974                                          u2900 E0C0  
                                        u2820 DF8E                                          u2740 DE84  
                                        u3700 C2B6                                          u3620 CA88  
                                        u3540 CBB4                                          u3380 C062  
                                        u2660 BD04                                          u3460 D904  
                                        u4500 ED44                                          u4420 EAB4  
                                        u5140 FA0C                                          u4181 CD82  
                                        u4261 BE1E                                          u5061 C970  
                                        u2901 E0BC                                          u2821 DF8A  
                                        u2741 DE80                                          u3701 C2B2  
                                        u3621 CA84                                          u3541 CBB0  
                                        u3381 C05E                                          u2661 BD00  
                                        u3461 D900                                          u4501 ED40  
                                        u4421 EAB0                                          u5141 FA08  
                                        u4350 C226                                          u3710 D110  
                                        u4190 CD96                                          u4270 BE32  
                                        u5070 C984                                          u2910 E0EC  
                                        u2830 DF9E                                          u2750 DE92  
                                        u2670 DDAC                                          u3630 CA9C  
                                        u3550 CBDE                                          u3390 C07E  
                                        u3470 DA54                                          u4510 ED62  
                                        u4430 EAF2                                          u5150 FC00  
                                        u4351 C222                                          u3711 D10C  
                                        u4191 CD92                                          u4271 BE2E  
                                        u5071 C980                                          u2911 E0E8  
                                        u2831 DF9A                                          u2751 DE8E  
                                        u2671 DDA8                                          u3631 CA98  
                                        u3551 CBDA                                          u3391 C07A  
                                        u3471 DA50                                          u4511 ED5E  
                                        u4431 EAEE                                          u5151 FBFC  
                                        u4328 C1D6                                          u4280 BD90  
                                        u3800 D2B0                                          u3720 D122  
                                        u2920 E0FC                                          u2840 DFD0  
                                        u2760 DF00                                          u2680 DDBE  
                                        u3640 CAC4                                          u3560 CBF2  
                                        u3480 DB56                                          u4600 F0E0  
                                        u4520 EE18                                          u4440 EB50  
                                        u5160 FCB0                                          u5080 F28A  
                                        u4329 C1EA                                          u4281 BD8C  
                                        u3801 D2AC                                          u3721 D11E  
                                        u2921 E0F8                                          u2841 DFCC  
                                        u2761 DEFC                                          u2681 DDBA  
                                        u3641 CAC0                                          u3561 CBEE  
                                        u3481 DB52                                          u4601 F0DC  
                                        u4521 EE14                                          u4441 EB4C  
                                        u5161 FCAC                                          u5081 F286  
                                        u4290 BCD6                                          u3810 D2DA  
                                        u3730 D132                                          u2930 E118  
                                        u2850 DFDE                                          u2770 DF18  
                                        u2690 DDCE                                          u3650 CAE4  
                                        u3570 CC1A                                          u3490 DCA6  
                                        u4610 F0FE                                          u4530 EE44  
                                        u4450 EB82                                          u4370 E886  
                                        u5090 F30C                                          u4291 BCD0  
                                        u3811 D2D6                                          u3731 D12E  
                                        u2931 E114                                          u2851 DFDA  
                                        u2771 DF12                                          u2691 DDCA  
                                        u3651 CAE0                                          u3571 CC16  
                                        u3491 DCA2                                          u4611 F0FA  
                                        u4531 EE40                                          u4451 EB7E  
                                        u4371 E882                                          u5091 F308  
                                        u4348 C202                                          u3900 D3D6  
                                        u3820 D2FE                                          u3740 D176  
                                        u3660 BFDE                                          u4700 E34E  
                                        u2940 E128                                          u2860 DFFC  
                                        u2780 DF1A                                          u3580 CC3A  
                                        u4620 F1B8                                          u4540 EE60  
                                        u4460 EBAC                                          u4380 E92C  
                                        _PMD0 0039C0                                          u4349 C216  
                                        u3901 D3D2                                          u3821 D2FA  
                                        u3741 D172                                          u3661 BFDA  
                                        u4701 E34A                                          u2941 E124  
                                        u2861 DFF8                                          u3581 CC36  
                                        u4621 F1B4                                          u4541 EE5C  
                                        u4461 EBA8                                          u4381 E928  
                                        _PMD1 0039C1                                          u3910 D41E  
                                        u3830 D314                                          u3750 D188  
                                        u3670 C018                                          u4710 E366  
                                        u2950 E13A                                          u2870 E034  
                                        u2790 DF42                                          u3590 C9C0  
                                        u4630 F1E4                                          u4550 EE84  
                                        u4470 EBCA                                          u4390 E96E  
                                        _PMD2 0039C2                                          u3911 D41A  
                                        u3831 D310                                          u3751 D184  
                                        u3671 C014                                          u4711 E362  
                                        u2951 E136                                          u2871 E030  
                                        u2791 DF3E                                          u3591 C9BC  
                                        u4631 F1E0                                          u4551 EE80  
                                        u4471 EBC6                                          u4391 E96A  
                                        _PMD3 0039C3                                          u4368 C22C  
                                        u4296 BCD8                                          u3920 D44E  
                                        u3840 D332                                          u3760 D198  
                                        u4800 E4EA                                          u4720 E374  
                                        u4640 E264                                          u2960 E150  
                                        u2880 E07A                                          u3680 C26C  
                                        u4560 EFF6                                          u4480 EBFC  
                                        _PMD4 0039C4                                          u4369 C240  
                                        u3921 D44A                                          u3841 D32E  
                                        u3761 D194                                          u4801 E4E6  
                                        u4721 E370                                          u4641 E260  
                                        u2961 E14C                                          u2881 E076  
                                        u3681 C268                                          u4561 EFF2  
                                        u4481 EBF8                                          _PMD5 0039C5  
                                        u3930 D47C                                          u3850 D352  
                                        u3770 D1D8                                          u4810 E52A  
                                        u4730 E3DE                                          u4650 E2A8  
                                        u2970 E166                                          u2890 E0B0  
                                        u3690 C28E                                          u4570 F01A  
                                        u4490 ED2C                                          _PMD6 0039C6  
                                        u3931 D478                                          u3851 D34E  
                                        u3771 D1D4                                          u4811 E526  
                                        u4731 E3DA                                          u4651 E2A4  
                                        u2971 E162                                          u2891 E0AC  
                                        u3691 C28A                                          u4571 F016  
                                        u4491 ED28                                          _PMD7 0039C7  
                                        u3860 D364                                          u3780 D218  
                                        u3940 C3C0                                          u4900 E6E8  
                                        u4820 E554                                          u4740 E40A  
                                        u4660 E2BE                                          u2980 E17A  
                                        u4580 F02C                                          u3861 D360  
                                        u3781 D214                                          u3941 C3BC  
                                        u4901 E6E4                                          u4821 E550  
                                        u4741 E406                                          u4661 E2BA  
                                        u2981 E176                                          u4581 F028  
                                        u3870 D392                                          u3790 D28E  
                                        u3950 C3FE                                          u4910 E724  
                                        u4830 E56C                                          u4750 E428  
                                        u4670 E2DC                                          u2990 E194  
                                        u4590 F0C8                                          u3871 D38E  
                                        u3791 D28A                                          u3951 C3FA  
                                        u4911 E720                                          u4831 E568  
                                        u4751 E424                                          u4671 E2D8  
                                        u2991 E190                                          u4591 F0C4  
                                        u3880 D3A8                                          u3960 C432  
                                        u4920 E770                                          u4840 E57A  
                                        u4760 E44A                                          u4680 E306  
                                        u3881 D3A4                                          u3961 C42E  
                                        u4921 E76C                                          u4841 E576  
                                        u4761 E446                                          u4681 E302  
                                        u3890 D3BC                                          u3970 C69E  
                                        u4930 E7BA                                          u4850 E5EA  
                                        u4770 E472                                          u4690 E324  
                                        u3891 D3B8                                          u3971 C69A  
                                        u4931 E7B6                                          u4851 E5E6  
                                        u4771 E46E                                          u4691 E320  
                                        u3980 C6DC                                          u4940 E7EC  
                                        u4860 E60C                                          u4780 E494  
                                        u3981 C6D8                                          u4941 E7E8  
                                        u4861 E608                                          u4781 E490  
                                        u3990 C6FA                                          u4950 E7FA  
                                        u4870 E65E                                          u4790 E4B4  
                                 main@length1 01BC                                          u3991 C6F6  
                                        u4951 E7F6                                          u4871 E65A  
                                        u4791 E4B0                                          u4960 E830  
                                        u4880 E6A8                                          u4961 E82C  
                                        u4881 E6A4                                          u4970 C508  
                                        u4890 E6DA                                          u4971 C504  
                                        u4891 E6D6                                          u4980 C528  
                                        u4981 C524                                          u4990 C542  
                                        u4991 C53E                                          _PLLR 01CEE0  
                                        _TMR2 003FAA                                          _WPUA 003A41  
                                        _WPUB 003A51                                          _WPUC 003A61  
                                        _WPUD 003A71                                          _WPUE 003A81  
                                        _atof BD92                                          _atoi C87A  
                                        _main F1E6                                          fsr2h 003FDA  
                                        indf2 003FDF                                          fsr2l 003FD9  
                                        prodh 003FF4                                          prodl 003FF3  
                                        start FFFC                                   ReadNUART2@i 0009  
                             ___fldiv@new_exp 0020                               _PWM5_Initialize BCDA  
                                ___param_bank 000000                                   ?_UART2_Read 0001  
              __size_of_OSCILLATOR_Initialize 0026                 __end_of_OSCILLATOR_Initialize BD92  
                      ReadNUART2@holds_string 0001                                 ___fltol@sign1 0039  
                                       ?_atof 0034                                         ?_atoi 0007  
                             __end_of___fladd E252                                         ?_main 0001  
                             __end_of___fldiv D490                               __end_of___awdiv C670  
                             __end_of___flneg BE76                                         STR_10 FEEC  
                                       STR_11 FE5A                                         STR_12 FF5A  
                                       STR_13 FFF2                                         STR_14 FEC0  
                                       STR_15 FFE9                                         STR_16 FFE9  
                                       STR_17 FFEB                               __end_of___awmod C4EC  
                             __end_of___flmul D8DE                               __end_of___flsub BF00  
                             __end_of___fltol C87A                               __end_of___lldiv C2EA  
                             ___awdiv@divisor 0009                               __end_of___llmod C1AA  
                                       _T2CON 003FAC                                         _U2P1L 003DD4  
                                       _U2P2L 003DD6                                         _U2P3L 003DD8  
                                       _T2HLT 003FAD                               __end_of___lwdiv C09E  
                                       _T2TMR 003FAA                                         _T2RST 003FAF  
                                       _U2UIR 003DE0                               __end_of___lwmod BFC0  
                                       _U2RXB 003DD0                                         _U2TXB 003DD2  
                             ___awdiv@counter 000B                                         _OSCEN 0039DD  
                                       _TRISA 003FC2                                         _TRISB 003FC3  
                                       _TRISC 003FC4                                         _TRISD 003FC5  
                                       _TRISE 003FC6                           ___lmul@multiplicand 0005  
                             __end_of_dpowers FE1D                         _SMT1_ManualTimerReset BC6A  
                                main@timeData 0190                                         _scale D8DE  
                             __end_of_isdigit BE3E                                         atoi@a 000C  
                                       atof@s 0034                                         atoi@s 0007  
                                       _putch BC94                                         main@a 00D9  
                                       main@h 01CF                                         main@i 01C1  
                                       main@j 01CD                                         main@k 01D1  
                             __end_of_isspace BEBA                              ?_SMT1_Initialize 0001  
                                       pclath 003FFA                                         tablat 003FF5  
                                       status 003FD8                                    _ReadNUART2 C4EC  
              ??_UART2_SetOverrunErrorHandler 0003                               __initialization BCB0  
                                __end_of_atof BDB8                                  __end_of_atoi C9AA  
                                __end_of_main FD8C                    __size_of_UART2_is_rx_ready 0016  
                     __end_of_TMR2_Initialize BD2A                                  ?_UART2_Write 0001  
                                      ??_atof 0038                                        ??_atoi 0009  
                                      ??_main 0097                                 __activetblptr 000003  
                        __size_of__tdiv_to_l_ 0156                              ___llmod@dividend 000E  
                                      ?_scale 0028                              ___awdiv@dividend 0007  
                                      _ANSELA 003A40                                        ?_putch 0001  
                                      _ANSELB 003A50                                        _ANSELC 003A60  
                                      _ANSELD 003A70                                        _ANSELE 003A80  
                                      _RB1I2C 003A5A                                        _RB2I2C 003A5B  
                                      _RD0I2C 003A7A                                        _RC3I2C 003A6A  
                                      _RD1I2C 003A7B                                        _RC4I2C 003A6B  
                                      _U2CON0 003DDA                                        _U2CON1 003DDB  
                                      _U2CON2 003DDC                                        _U2BRGH 003DDE  
                                      _U2FIFO 003DDF                                        _U2BRGL 003DDD  
                         __size_of_UART2_Read 009C                                        _RA1PPS 003A01  
                                      _RB6PPS 003A0E                                        _ODCONA 003A42  
                                      _ODCONB 003A52                                        _ODCONC 003A62  
                                      _ODCOND 003A72                                        _ODCONE 003A82  
                     __end_of_PWM5_Initialize BCF2                                        _INLVLA 003A44  
                                      _INLVLB 003A54                                        _INLVLC 003A64  
                                      _INLVLD 003A74                                        _INLVLE 003A84  
                                      _OSCFRQ 0039DF                                        _SMT1PR 003F1B  
                            __end_of___xxtofl CE00                              _UART2_Initialize BF00  
                            __end_of__powers_ FDC1                                  _CCPTMRS1bits 003F5F  
                   _UART2_OverrunErrorHandler 01D7                                        ___flge C670  
                                      ___fleq C392                                        ___lmul BFC0  
          __size_of_UART2_DefaultErrorHandler 0002                                     ??___fladd 003D  
                                      ___wmul BDE2                                     ??___fldiv 0017  
                                   ??___awdiv 000B                                     ??___flneg 0005  
                                   ??___awmod 0005                                     ??___flmul 0017  
                                   ??___flsub 004D                                     ??___fltol 0035  
                  ?_UART2_DefaultErrorHandler 0001                                     ??___lldiv 0009  
                                   ??___llmod 0016                                     ??___lwdiv 000A  
                                   ??___lwmod 0005                                        _fround CE00  
                                      clear_0 BCB6                              ___awdiv@quotient 000D  
                             ___awmod@divisor 0003                               ___awmod@counter 0005  
                                      _printf E866                                        main@dT 00B5  
                                      main@dV 0100                                        main@dt 0124  
                                      _strtod E252                                _PMD_Initialize BD48  
                                   ??_isdigit 0001                                  __mediumconst FD8C  
                                   ??_isspace 0001                                        tblptrh 003FF7  
                                      tblptrl 003FF6                                        tblptru 003FF8  
                      ?_SMT1_ManualTimerReset 0001                                    ___flge@ff1 0001  
                                  ___flge@ff2 0005                                  ___xxtofl@arg 000B  
                                ___xxtofl@exp 000A                             _SYSTEM_Initialize BD2A  
                                ___xxtofl@val 0001                                    ___fleq@ff1 0001  
                                  ___fleq@ff2 0005                                    __accesstop 0060  
                     __end_of__initialization BCBE                                    ___flneg@f1 0001  
                                 ?_ReadNUART2 0001                            ?_SYSTEM_Initialize 0001  
                               ___rparam_used 000001                                    ___fltol@f1 0031  
                              __pcstackCOMRAM 0001                         _UART2_SetErrorHandler BC76  
                         ??_SYSTEM_Initialize 0003                                 __end_of_scale DD92  
           __end_of_UART2_DefaultErrorHandler BC60                                 __end_of_putch BC9E  
                            ?_TMR2_Initialize 0001                      ??_SMT1_GetCapturedPeriod 0005  
                      __end_of_PMD_Initialize BD6C                                    __div_to_l_ C9AA  
                ??_SMT1_DataAcquisitionEnable 0001                               __div_to_l_@exp1 000E  
                             __div_to_l_@cntr 000D                                       ??_scale 002C  
                   __end_of_SYSTEM_Initialize BD48                               __div_to_l_@quot 0009  
                                     ??_putch 0002                                    __pbssBANK1 01D3  
                            ?_PWM5_Initialize 0001                                 __div_to_l_@f1 0001  
                               __div_to_l_@f2 0005                                    _clearPuTTY C09E  
                ??_SMT1_RepeatDataAcquisition 0001                                       ?___flge 0001  
                                     ?___fleq 0001                                       ?___lmul 0001  
                                ??_UART2_Read 0001                                       ?___wmul 0001  
        __end_of_UART2_SetFramingErrorHandler BC8A         __size_of_UART2_SetFramingErrorHandler 000A  
                _UART2_SetFramingErrorHandler BC80           __size_of_SMT1_DataAcquisitionEnable 0006  
                                     ?_fround 0028                                ___lmul@product 0009  
                                     ?_printf 0060                               ?_PMD_Initialize 0001  
                                     ?_strtod 0028                                       _U2ERRIE 003DE2  
                                     _U2ERRIR 003DE1                          __size_of_UART2_Write 001A  
                         __size_of_ReadNUART2 00C0                                     ?___xxtofl 0001  
                                     _U2RXPPS 003AE8                                       _OSCCON1 0039D9  
                                     _OSCCON3 0039DB                                       _SMT1CLK 003F21  
                                     _OSCTUNE 0039DE                                       _SMT1CPR 003F15  
                                     _SMT1CPW 003F18                                       _PWM5DCH 003F6D  
                                     _PWM5DCL 003F6C                                       _SMT1SIG 003F22  
                                     _PWM5CON 003F6E                                       _SMT1PRH 003F1C  
                                     _SMT1PRL 003F1B                                       _SMT1PRU 003F1D  
                                     _SMT1WIN 003F23                                       _SMT1TMR 003F12  
                                     _SLRCONA 003A43                                       _SLRCONB 003A53  
                                     _SLRCONC 003A63                                       _SLRCOND 003A73  
                                     _SLRCONE 003A83                            __end_of_UART2_Read C246  
         __size_of_SMT1_RepeatDataAcquisition 0006                             __end_of__npowers_ FDF5  
                                     __Hparam 0000                                    _scale$1939 002C  
                      ?_UART2_SetErrorHandler 0001                                       __Lparam 0000  
                             __size_of___flge 0104                               __size_of___fleq 00AA  
                                     ___fladd DD92                                       ___fldiv D0F6  
                                     ___awdiv C5AC                                       ___flneg BE3E  
                             __size_of___lmul 006A                                       ___awmod C43C  
                                     ___flmul D490                                       ___flsub BEBA  
                                     ___fltol C774                                       ___lldiv C246  
                             __size_of___wmul 002A                                       ___llmod C122  
                                     ___lwdiv C02A                                       ___lwmod BF5C  
               ?_UART2_SetFramingErrorHandler 0001                                       __pcinit BCB0  
                             __size_of_fround 02F6                                       __ramtop 1000  
             __size_of_SMT1_GetCapturedPeriod 0012                                       __ptext0 F1E6  
                                     __ptext1 C09E                                       __ptext2 E866  
                                     __ptext3 D8DE                                       __ptext4 C43C  
                                     __ptext5 C5AC                                       __ptext6 BC94  
                                     __ptext7 BCF2                                       __ptext8 CE00  
                                     __ptext9 BF5C                               __size_of_printf 0980  
                                 ?__div_to_l_ 0001                               __size_of_strtod 0614  
         fp__UART2_DefaultOverrunErrorHandler 0000      __end_of_UART2_DefaultOverrunErrorHandler BC64  
   __size_of_UART2_DefaultOverrunErrorHandler 0002            ??_UART2_DefaultOverrunErrorHandler 0001  
           ?_UART2_DefaultOverrunErrorHandler 0001              _UART2_DefaultOverrunErrorHandler BC62  
                                     _dpowers FDF5                         _OSCILLATOR_Initialize BD6C  
                                   _T2CONbits 003FAC                                       _isdigit BE0C  
                                  ??___xxtofl 0005                              ___awmod@dividend 0001  
                    ??_PIN_MANAGER_Initialize 0001                                       _isspace BE76  
                                   _T2HLTbits 003FAD                      __end_of_UART2_Initialize BF5C  
                  __size_of_SYSTEM_Initialize 001E                                       main@sum 01C7  
                        end_of_initialization BCBE                                     _T2RSTbits 003FAF  
                                 ?_clearPuTTY 0001                               ___lldiv@divisor 0005  
                             ___lldiv@counter 000D                      __size_of_SMT1_Initialize 002A  
                                     printf@c 0096                                       printf@f 0060  
                                     postdec2 003FDD                                       postinc0 003FEE  
                                     postinc2 003FDE                   ??_UART2_DefaultErrorHandler 0001  
                              __tdiv_to_l_@f1 0001                                __tdiv_to_l_@f2 0005  
                               ??__tdiv_to_l_ 0009                                       strtod@s 0028  
                     ??_SMT1_ManualTimerReset 0001                                   ___fladd@grs 0044  
          __end_of_SMT1_DataAcquisitionEnable BC6A                    _SMT1_DataAcquisitionEnable BC64  
                               ___xxtofl@sign 0009                                   ___fldiv@grs 0022  
                                 ___fldiv@rem 001B                                    main@accavg 01B4  
                      _SMT1_GetCapturedPeriod BC9E                                   ___flmul@grs 001C  
                                ??_ReadNUART2 0005                                    main@length 01C3  
                         __size_of__div_to_l_ 014C            __end_of_SMT1_RepeatDataAcquisition BC76  
                  _SMT1_RepeatDataAcquisition BC70                                __end_of___flge C774  
                              __end_of___fleq C43C                                __end_of___lmul C02A  
                              __end_of___wmul BE0C                        ?_OSCILLATOR_Initialize 0001  
                              __end_of_fround D0F6                                __end_of_printf F1E6  
                              __end_of_strtod E866                ??_UART2_SetFramingErrorHandler 0003  
                         start_initialization BCB0                            __end_of_ReadNUART2 C5AC  
                         __size_of_clearPuTTY 0084               __size_of_PIN_MANAGER_Initialize 00A8  
                         __end_of__tdiv_to_l_ CC4C                     _UART2_DefaultErrorHandler BC5E  
                                 putch@txData 0002                               ___llmod@divisor 0012  
                             ___llmod@counter 0016                                      ??___flge 0009  
                                    ??___fleq 0009                              ??_PMD_Initialize 0001  
                                    ??___lmul 0009                                      ??___wmul 0005  
                                    ??_fround 002C                             UART2_Write@txData 0001  
                           ??_SMT1_Initialize 0001                                      ??_printf 004D  
                                    ??_strtod 002C                                     ___fladd@a 0039  
                                   ___fladd@b 0035                                    fround@prec 0034  
                                   ___fldiv@a 0013                                     ___fldiv@b 000F  
                                   ___flmul@a 0013                                     ___flmul@b 000F  
                                 __pbssCOMRAM 004F                                     ___flsub@a 0049  
                                   ___flsub@b 0045                     _UART2_FramingErrorHandler 01D9  
                               __pcstackBANK0 0060                                 __pcstackBANK1 0100  
                    __size_of_TMR2_Initialize 001E                             __size_of___xxtofl 01B4  
                                _isdigit$1634 0002                       ??_UART2_SetErrorHandler 0003  
                            ___lwdiv@dividend 0006                        _PIN_MANAGER_Initialize C2EA  
                    __size_of_PWM5_Initialize 0018                                 __pmediumconst FD8C  
                                    ?___fladd 0035                                      ?___fldiv 000F  
                                    ?___awdiv 0007                                      ?___flneg 0001  
                                    ?___awmod 0001                                      ?___flmul 000F  
                                    ?___flsub 0045                                      ?___fltol 0031  
                                    ?___lldiv 0001                                      ?___llmod 000E  
                                   __npowers_ FDC1                                      ?___lwdiv 0006  
                                    ?___lwmod 0001                                 ??_UART2_Write 0001  
                                 __tdiv_to_l_ CAF6                                  ??__div_to_l_ 0009  
                                    ?_isdigit 0001                                      ?_isspace 0001  
                           ?_UART2_Initialize 0001                              ___lwdiv@quotient 000A  
                                    _T2CLKCON 003FAE                                __size_of_scale 04B4  
                          ??_UART2_Initialize 0003                                __size_of_putch 000A  
                            _uart2RxLastError 004F                                   _U2ERRIRbits 003DE1  
                              ___wmul@product 0005         UART2_SetErrorHandler@interruptHandler 0001  
                                    _LATDbits 003FBD                            _last_switch1_value 01D3  
                                ??_clearPuTTY 004F                                      _PIR1bits 0039A1  
                          __end_of__div_to_l_ CAF6                                      _PIR4bits 0039A4  
                                    _PIR6bits 0039A6                                      _SMT1CON0 003F1E  
                                    _SMT1CON1 003F1F                                      _SMT1STAT 003F20  
                                 strtod@flags 002E                                   strtod@expon 002F  
                           ___wmul@multiplier 0001                                    printf@flag 0084  
                                  printf@eexp 008C                                    printf@fval 0092  
                                  printf@prec 0086                __size_of_SMT1_ManualTimerReset 0006  
                 ?_SMT1_DataAcquisitionEnable 0001                 __end_of_SMT1_ManualTimerReset BC70  
                          _UART2_ErrorHandler 01D5                           __end_of_UART2_Write BD0C  
                                _isspace$1637 0002                            __end_of_clearPuTTY C122  
                                _SMT1CON0bits 003F1E                                  _SMT1CON1bits 003F1F  
                     ?_SMT1_GetCapturedPeriod 0001                             ___lmul@multiplier 0001  
                           ??_TMR2_Initialize 0001                                      __Hrparam 0000  
                 ?_SMT1_RepeatDataAcquisition 0001                                      __Lrparam 0000  
                     ??_OSCILLATOR_Initialize 0001                              __size_of___fladd 04C0  
                            __size_of___fldiv 039A                              __size_of___awdiv 00C4  
                            __size_of___flneg 0038                              __size_of___awmod 00B0  
                            __size_of___flmul 044E                              __size_of___flsub 0046  
                            __size_of___fltol 0106                                  _SMT1STATbits 003F20  
                            __size_of___lldiv 00A4                              __size_of___llmod 0088  
                            __size_of___lwdiv 0074                              __size_of___lwmod 0064  
                          ReadNUART2@length_N 0003                                   _fround$1937 0030  
                                 _fround$1938 002C                             ??_PWM5_Initialize 0001  
                                    ___xxtofl CC4C                __end_of_SMT1_GetCapturedPeriod BCB0  
                            __size_of_isdigit 0032                               ___lwdiv@divisor 0008  
                            __size_of_isspace 0044                               ___lwdiv@counter 000C  
                                    __ptext10 C02A                                      __ptext11 CAF6  
                                    __ptext20 BD92                                      __ptext12 C9AA  
                                    __ptext21 E252                                      __ptext13 C122  
                                    __ptext30 D0F6                                      __ptext22 BE76  
                                    __ptext14 C246                                      __ptext31 BD2A  
                                    __ptext23 BE0C                                      __ptext15 C774  
                                    __ptext40 C2EA                                      __ptext32 BF00  
                                    __ptext24 CC4C                                      __ptext16 BEBA  
                                    __ptext41 BD6C                                      __ptext33 BC8A  
                                    __ptext25 BFC0                                      __ptext17 DD92  
                                    __ptext50 BC60                                      __ptext42 BC70  
                                    __ptext34 BC80                                      __ptext26 BE3E  
                                    __ptext18 C87A                                      __ptext51 BC5E  
                                    __ptext43 BC6A                                      __ptext35 BC76  
                                    __ptext27 D490                                      __ptext19 BDE2  
                                    __ptext52 0000                                      __ptext44 BC9E  
                                    __ptext36 BD0C                                      __ptext28 C670  
                                    __ptext45 BC64                                      __ptext37 BDB8  
                                    __ptext29 C392                                      __ptext46 C4EC  
                                    __ptext38 BCDA                                      __ptext47 BCC4  
                                    __ptext39 BD48                                      __ptext48 C1AA  
                                    __ptext49 BC62                                      __powers_ FD8D  
                                  _U2CON0bits 003DDA                                 __size_of_atof 0026  
                               __size_of_atoi 0130                                 __size_of_main 0BA6  
         fp__UART2_DefaultFramingErrorHandler 0000      __end_of_UART2_DefaultFramingErrorHandler BC62  
   __size_of_UART2_DefaultFramingErrorHandler 0002            ??_UART2_DefaultFramingErrorHandler 0001  
           ?_UART2_DefaultFramingErrorHandler 0001              _UART2_DefaultFramingErrorHandler BC60  
                             _SMT1_Initialize BDB8  UART2_SetOverrunErrorHandler@interruptHandler 0001  
                                  strtod@eexp 002D                                      atoi@sign 000B  
                                    main@MidT 0148                                      main@Vavg 016C  
                                    main@gap1 00FD                                      main@gaps 01CB  
                                   printf@val 0088                                   _UART2_Write BCF2  
                                    isdigit@c 0003                                      scale@scl 0030  
        __end_of_UART2_SetOverrunErrorHandler BC94         __size_of_UART2_SetOverrunErrorHandler 000A  
                _UART2_SetOverrunErrorHandler BC8A                              __tdiv_to_l_@exp1 0011  
                            __tdiv_to_l_@cntr 0010                              __tdiv_to_l_@quot 000C  
                            ___lwmod@dividend 0001                                      isspace@c 0003  
                            ___lldiv@dividend 0001                       ?_PIN_MANAGER_Initialize 0001  
              __size_of_UART2_SetErrorHandler 000A                 __end_of_UART2_SetErrorHandler BC80  
                                   strtod@res 002A                                      printf@ap 0082  
                                  _UART2_Read C1AA  UART2_SetFramingErrorHandler@interruptHandler 0001  
                           _UART2_is_rx_ready BCC4                                    _SMT1SIGPPS 003AD2  
                                ?__tdiv_to_l_ 0001                                    _SMT1WINPPS 003AD1  
                                 _printf$1940 007E                              ReadNUART2@letter 0007  
                          ?_UART2_is_rx_ready 0001                              ___lldiv@quotient 0009  
                             ___lwmod@divisor 0003                               ___lwmod@counter 0005  
                                    strtod@_u 0030                           ??_UART2_is_rx_ready 0001  
                               ___fladd@signs 0041                       __end_of_SMT1_Initialize BDE2  
              __end_of_PIN_MANAGER_Initialize C392                 ?_UART2_SetOverrunErrorHandler 0001  
                                ___fladd@aexp 0042                                  ___fladd@bexp 0043  
                fp__UART2_DefaultErrorHandler 0000                     __size_of_UART2_Initialize 005C  
